; entry = $4060
4010: 00 17 05 INT $0517
4013: A2 39    LDX #$39
4015: BD 37 40 LDA $4037,X
4018: 9D 8C 08 STA $088C,X
401B: CA       DEX
401C: D0 F7    BNE $4015
401E: A9 00    LDA #$00
4020: 8D CC 08 STA $08CC
4023: A9 25    LDA #$25
4025: 85 E0    STA $E0
4027: A9 06    LDA #$06
4029: 85 E1    STA $E1
402B: 00 25 05 INT $0525
402E: 20 50 40 JSR $4050
4031: 4C 00 44 JMP $4400
4034: FF       ??
4035: FF       ??
4036: FF       ??
4037: FF       ??
4038: 2F       ??
4039: D3       ??
403A: A6 D3    LDX $D3
403C: C3       ??
403D: B3       ??
403E: CC D0 F2 CPY $F2D0

4041: 2F       ?? ; /GVBASIC+.bin
4042: 47       ??
4043: 56 42    LSR $42,X
4045: 41 53    EOR ($53,X)
4047: 49 43    EOR #$43
4049: 2B       ??
404A: 2E 62 69 ROL $6962
404D: 6E 00 FF ROR $FF00

4050: A9 00    LDA #$00
4052: A2 10    LDX #$10
4054: 9D 8C 08 STA $088C,X
4057: CA       DEX
4058: D0 FA    BNE $4054
405A: 60       RTS

4060: A2 0D    LDX #$0D
4062: BD 8C 08 LDA $088C,X
4065: 9D 41 40 STA $4041,X
4068: CA       DEX
4069: D0 F7    BNE $4062
406B: 4C 10 40 JMP $4010

4400: 4C 03 44 JMP $4403
4403: BA       TSX
4404: 86 5F    STX $5F
4406: A5 0A    LDA $0A
4408: 8D 28 B8 STA $B828
440B: 20 81 4C JSR $4C81
440E: 90 0D    BCC $441D

; 切换 /BASIC文件 工作目录失败，报错退出
4410: AD CC 08 LDA $08CC
4413: C9 0E    CMP #$0E
4415: D0 03    BNE $441A
4417: 20 8F 4D JSR $4D8F
441A: 4C B7 47 JMP $47B7

441D: 00 2A C7 INT $C72A
4420: A9 FF    LDA #$FF
4422: 8D AF 03 STA $03AF
4425: A9 FF    LDA #$FF
4427: 8D B0 03 STA $03B0
442A: 00 19 C7 INT $C719
442D: A9 00    LDA #$00
442F: 85 64    STA $64
4431: 85 62    STA $62
4433: 85 63    STA $63
4435: 20 A1 4C JSR $4CA1
4438: A5 60    LDA $60
443A: 05 61    ORA $61
443C: F0 0E    BEQ $444C
443E: A5 62    LDA $62
4440: 85 80    STA $80
4442: A5 63    LDA $63
4444: 85 81    STA $81
4446: 20 E9 47 JSR $47E9
4449: 20 54 49 JSR $4954
444C: A5 60    LDA $60
444E: 05 61    ORA $61
4450: D0 22    BNE $4474
4452: 8A       TXA
4453: 48       PHA
4454: A9 00    LDA #$00
4456: A2 09    LDX #$09
4458: 9D 88 03 STA $0388,X
445B: CA       DEX
445C: D0 FA    BNE $4458
445E: 68       PLA
445F: AA       TAX
4460: 00 2A C7 INT $C72A
4463: A9 FF    LDA #$FF
4465: 8D AF 03 STA $03AF
4468: A9 FF    LDA #$FF
446A: 8D B0 03 STA $03B0
446D: 00 19 C7 INT $C719
4470: A9 1C    LDA #$1C
4472: D0 2B    BNE $449F

4474: A4 64    LDY $64
4476: A2 00    LDX #$00
4478: 00 1D C7 INT $C71D
447B: 20 BA 49 JSR $49BA
447E: A9 00    LDA #$00
4480: 8D B1 03 STA $03B1
4483: A9 00    LDA #$00
4485: 8D B2 03 STA $03B2
4488: A9 80    LDA #$80
448A: 8D B3 03 STA $03B3
448D: A9 FF    LDA #$FF
448F: 8D AF 03 STA $03AF
4492: A9 FF    LDA #$FF
4494: 8D B0 03 STA $03B0
4497: 00 19 C7 INT $C719
449A: 00 06 C0 INT $C006
449D: F0 FB    BEQ $449A

; 显示完basic文件列表，读取按键
449F: AA       TAX
44A0: A0 0D    LDY #$0D
44A2: A9 B0    LDA #$B0
44A4: 85 80    STA $80
44A6: A9 44    LDA #$44
44A8: 85 81    STA $81
44AA: 20 3C E0 JSR $E03C
44AD: 4C 4C 44 JMP $444C

44B0: .db 21, 22, 14, 20, 23, 19, 13, 28, 29, 30, 31, 25, 27
44BD: .dw $44D7 ; 下
44BF: .dw $44D7 ; 右
44C1: .dw $4501 ; 下翻页
44C3: .dw $455A ; 上
44C5: .dw $455A ; 左
44C7: .dw $458A ; 上翻页
44C9: .dw $45E3 ; 输入
44CB: .dw $465E ; f1 新建
44CD: .dw $4661 ; f2 删除
44CF: .dw $46CF ; f3 帮助
44D1: .dw $46D3 ; f4 修改
44D3: .dw $46CF ; 帮助
44D5: .dw $47B7 ; 跳出

; 下移
44D7: E6 62    INC $62
44D9: D0 02    BNE $44DD
44DB: E6 63    INC $63
44DD: A5 63    LDA $63
44DF: C5 61    CMP $61
44E1: D0 04    BNE $44E7
44E3: A5 62    LDA $62
44E5: C5 60    CMP $60
44E7: 90 0B    BCC $44F4
44E9: A5 62    LDA $62
44EB: D0 02    BNE $44EF
44ED: C6 63    DEC $63
44EF: C6 62    DEC $62
44F1: 4C 12 E0 JMP $E012
44F4: A6 64    LDX $64
44F6: E8       INX
44F7: E0 05    CPX #$05
44F9: 90 03    BCC $44FE
44FB: 4C CB 47 JMP $47CB
44FE: 86 64    STX $64
4500: 60       RTS

; 下翻页
4501: A5 62    LDA $62
4503: 85 80    STA $80
4505: A5 63    LDA $63
4507: 85 81    STA $81
4509: 18       CLC
450A: A5 80    LDA $80
450C: 69 05    ADC #$05
450E: 85 80    STA $80
4510: 90 02    BCC $4514
4512: E6 81    INC $81
4514: A5 81    LDA $81
4516: C5 61    CMP $61
4518: D0 04    BNE $451E
451A: A5 80    LDA $80
451C: C5 60    CMP $60
451E: 90 2F    BCC $454F
4520: 38       SEC
4521: A5 80    LDA $80
4523: E5 60    SBC $60
4525: 85 80    STA $80
4527: A5 81    LDA $81
4529: E5 61    SBC $61
452B: 85 81    STA $81
452D: A5 64    LDA $64
452F: E5 80    SBC $80
4531: B0 03    BCS $4536
4533: 4C 12 E0 JMP $E012
4536: D0 03    BNE $453B
4538: 4C 12 E0 JMP $E012
453B: 85 64    STA $64
453D: C6 64    DEC $64
453F: A5 60    LDA $60
4541: 85 80    STA $80
4543: A5 61    LDA $61
4545: 85 81    STA $81
4547: A5 80    LDA $80
4549: D0 02    BNE $454D
454B: C6 81    DEC $81
454D: C6 80    DEC $80
454F: A5 80    LDA $80
4551: 85 62    STA $62
4553: A5 81    LDA $81
4555: 85 63    STA $63
4557: 4C CB 47 JMP $47CB

; 上移
455A: A5 62    LDA $62
455C: 85 80    STA $80
455E: A5 63    LDA $63
4560: 85 81    STA $81
4562: A5 80    LDA $80
4564: D0 02    BNE $4568
4566: C6 81    DEC $81
4568: C6 80    DEC $80
456A: A5 80    LDA $80
456C: 25 81    AND $81
456E: C9 FF    CMP #$FF
4570: D0 03    BNE $4575
4572: 4C 12 E0 JMP $E012
4575: A5 80    LDA $80
4577: 85 62    STA $62
4579: A5 81    LDA $81
457B: 85 63    STA $63
457D: A6 64    LDX $64
457F: E0 00    CPX #$00
4581: D0 03    BNE $4586
4583: 4C CB 47 JMP $47CB
4586: CA       DEX
4587: 86 64    STX $64
4589: 60       RTS

; 上翻页
458A: A5 62    LDA $62
458C: 85 80    STA $80
458E: A5 63    LDA $63
4590: 85 81    STA $81
4592: 38       SEC
4593: A5 80    LDA $80
4595: E5 64    SBC $64
4597: 85 80    STA $80
4599: A5 81    LDA $81
459B: E9 00    SBC #$00
459D: 85 81    STA $81
459F: B0 03    BCS $45A4
45A1: 4C 12 E0 JMP $E012
45A4: A5 80    LDA $80
45A6: 05 81    ORA $81
45A8: D0 03    BNE $45AD
45AA: 4C 12 E0 JMP $E012
45AD: 38       SEC
45AE: A5 80    LDA $80
45B0: E9 05    SBC #$05
45B2: 85 80    STA $80
45B4: A5 81    LDA $81
45B6: E9 00    SBC #$00
45B8: 85 81    STA $81
45BA: A5 80    LDA $80
45BC: 05 81    ORA $81
45BE: F0 02    BEQ $45C2
45C0: B0 13    BCS $45D5
45C2: A5 64    LDA $64
45C4: 85 80    STA $80
45C6: A9 00    LDA #$00
45C8: 85 81    STA $81
45CA: A5 80    LDA $80
45CC: 85 62    STA $62
45CE: A5 81    LDA $81
45D0: 85 63    STA $63
45D2: 4C CB 47 JMP $47CB
45D5: 18       CLC
45D6: A5 80    LDA $80
45D8: 65 64    ADC $64
45DA: 85 80    STA $80
45DC: 90 02    BCC $45E0
45DE: E6 81    INC $81
45E0: 4C CA 45 JMP $45CA

45E3: 20 3B 4C JSR $4C3B
45E6: F0 14    BEQ $45FC

; 显示 文件加载错误，请重新升级此文件
45E8: A9 00    LDA #$00
45EA: 8D 32 0A STA $0A32
45ED: A2 1B    LDX #$1B
45EF: A0 4E    LDY #$4E
45F1: A9 00    LDA #$00
45F3: 00 12 CA INT $CA12
45F6: 20 2A E0 JSR $E02A
45F9: 4C CB 47 JMP $47CB

45FC: 20 38 49 JSR $4938
45FF: A5 5F    LDA $5F
4601: 48       PHA
4602: AD 73 BA LDA $BA73
4605: 48       PHA
4606: AD 74 BA LDA $BA74
4609: 48       PHA
460A: A5 62    LDA $62
460C: 48       PHA
460D: A5 63    LDA $63
460F: 48       PHA
4610: A5 64    LDA $64
4612: 48       PHA
4613: 20 D7 51 JSR $51D7   ; 读取bas文件？
4616: 68       PLA
4617: 85 64    STA $64
4619: 68       PLA
461A: 85 63    STA $63
461C: 68       PLA
461D: 85 62    STA $62
461F: 68       PLA
4620: 8D 74 BA STA $BA74
4623: 68       PLA
4624: 8D 73 BA STA $BA73
4627: 68       PLA
4628: 85 5F    STA $5F
462A: A5 62    LDA $62
462C: 85 80    STA $80
462E: A5 63    LDA $63
4630: 85 81    STA $81
4632: 38       SEC
4633: A5 80    LDA $80
4635: E5 64    SBC $64
4637: 85 80    STA $80
4639: A5 81    LDA $81
463B: E9 00    SBC #$00
463D: 85 81    STA $81
463F: 20 E9 47 JSR $47E9
4642: 20 A1 4C JSR $4CA1
4645: 20 54 49 JSR $4954
4648: 20 5A 46 JSR $465A
464B: 8A       TXA
464C: 48       PHA
464D: A9 00    LDA #$00
464F: A2 09    LDX #$09
4651: 9D 88 03 STA $0388,X
4654: CA       DEX
4655: D0 FA    BNE $4651
4657: 68       PLA
4658: AA       TAX
4659: 60       RTS

465A: 00 27 04 INT $0427
465D: 60       RTS
465E: 4C F2 49 JMP $49F2
4661: A9 00    LDA #$00
4663: 8D 32 0A STA $0A32
4666: A2 07    LDX #$07
4668: A0 4E    LDY #$4E
466A: A9 02    LDA #$02
466C: 00 12 CA INT $CA12
466F: C9 79    CMP #$79
4671: F0 03    BEQ $4676
4673: 4C CB 47 JMP $47CB
4676: 20 38 49 JSR $4938
4679: 00 0E 05 INT $050E
467C: 90 03    BCC $4681
467E: 4C B8 4D JMP $4DB8
4681: A5 60    LDA $60
4683: 85 80    STA $80
4685: A5 61    LDA $61
4687: 85 81    STA $81
4689: A5 80    LDA $80
468B: D0 02    BNE $468F
468D: C6 81    DEC $81
468F: C6 80    DEC $80
4691: A5 63    LDA $63
4693: C5 81    CMP $81
4695: D0 04    BNE $469B
4697: A5 62    LDA $62
4699: C5 80    CMP $80
469B: D0 10    BNE $46AD
469D: C6 64    DEC $64
469F: 10 04    BPL $46A5
46A1: A9 00    LDA #$00
46A3: 85 64    STA $64
46A5: A5 62    LDA $62
46A7: D0 02    BNE $46AB
46A9: C6 63    DEC $63
46AB: C6 62    DEC $62
46AD: A5 60    LDA $60
46AF: D0 02    BNE $46B3
46B1: C6 61    DEC $61
46B3: C6 60    DEC $60
46B5: A5 60    LDA $60
46B7: 05 61    ORA $61
46B9: D0 10    BNE $46CB
46BB: 00 2A C7 INT $C72A
46BE: A9 FF    LDA #$FF
46C0: 8D AF 03 STA $03AF
46C3: A9 FF    LDA #$FF
46C5: 8D B0 03 STA $03B0
46C8: 00 19 C7 INT $C719
46CB: 20 CB 47 JSR $47CB
46CE: 60       RTS

46CF: 20 12 E0 JSR $E012
46D2: 60       RTS

46D3: 20 3B 4C JSR $4C3B
46D6: F0 14    BEQ $46EC

; 显示 文件加载错误，请重新升级此文件
46D8: A9 00    LDA #$00
46DA: 8D 32 0A STA $0A32
46DD: A2 1B    LDX #$1B
46DF: A0 4E    LDY #$4E
46E1: A9 00    LDA #$00
46E3: 00 12 CA INT $CA12
46E6: 20 2A E0 JSR $E02A
46E9: 4C CB 47 JMP $47CB

46EC: 20 38 49 JSR $4938
46EF: A9 C0    LDA #$C0
46F1: 8D C9 08 STA $08C9
46F4: 00 15 05 INT $0515
46F7: 90 03    BCC $46FC
46F9: 4C B8 4D JMP $4DB8
46FC: AD C8 08 LDA $08C8
46FF: 8D 75 BA STA $BA75
4702: 00 14 05 INT $0514
4705: AD FD 08 LDA $08FD
4708: F0 03    BEQ $470D
470A: 4C B8 4D JMP $4DB8
470D: AD FB 08 LDA $08FB
4710: 8D 77 BA STA $BA77
4713: AD FC 08 LDA $08FC
4716: 8D 78 BA STA $BA78
4719: A9 A0    LDA #$A0
471B: 85 52    STA $52
471D: AD 78 BA LDA $BA78
4720: C9 40    CMP #$40
4722: D0 05    BNE $4729
4724: AD 77 BA LDA $BA77
4727: C9 00    CMP #$00
4729: 90 2A    BCC $4755
472B: F0 28    BEQ $4755
472D: A9 20    LDA #$20
472F: 85 52    STA $52
4731: A9 00    LDA #$00
4733: 8D 32 0A STA $0A32
4736: A2 11    LDX #$11
4738: A0 4E    LDY #$4E
473A: A9 00    LDA #$00
473C: 00 12 CA INT $CA12
473F: 20 2A E0 JSR $E02A
4742: 20 A5 53 JSR $53A5
4745: AD 75 BA LDA $BA75
4748: 8D C8 08 STA $08C8
474B: 00 17 05 INT $0517
474E: 20 5A 46 JSR $465A
4751: 20 CB 47 JSR $47CB
4754: 60       RTS
4755: 20 57 53 JSR $5357
4758: 4C 2E 4A JMP $4A2E
475B: 60       RTS
475C: FF       ??
475D: FF       ??
475E: FF       ??
475F: FF       ??
4760: 47       ??
4761: 56 42    LSR $42,X
4763: 61 73    ADC ($73,X)
4765: 69 63    ADC #$63
4767: 2B       ??
4768: 20 6D 61 JSR $616D
476B: 64       ??
476C: 65 20    ADC $20
476E: 62       ??
476F: 79 20 44 ADC $4420,Y
4772: 65 6E    ADC $6E
4774: 7A       ??
4775: 68       PLA
4776: FF       ??
4777: FF       ??
4778: FF       ??
4779: FF       ??
477A: FF       ??
477B: FF       ??
477C: FF       ??
477D: FF       ??
477E: FF       ??
477F: FF       ??
4780: FF       ??
4781: FF       ??
4782: FF       ??
4783: FF       ??
4784: FF       ??
4785: FF       ??
4786: FF       ??
4787: FF       ??
4788: FF       ??
4789: FF       ??
478A: FF       ??
478B: FF       ??
478C: FF       ??
478D: FF       ??
478E: FF       ??
478F: FF       ??
4790: FF       ??
4791: FF       ??
4792: FF       ??
4793: FF       ??
4794: FF       ??
4795: FF       ??
4796: FF       ??
4797: FF       ??
4798: 60       RTS
4799: A2 64    LDX #$64
479B: BD 2E 4E LDA $4E2E,X
479E: 9D BF 02 STA $02BF,X
47A1: CA       DEX
47A2: D0 F7    BNE $479B
47A4: A9 FF    LDA #$FF
47A6: 8D AF 03 STA $03AF
47A9: A9 FF    LDA #$FF
47AB: 8D B0 03 STA $03B0
47AE: 00 19 C7 INT $C719
47B1: 00 06 C0 INT $C006
47B4: 4C B1 47 JMP $47B1

47B7: 00 12 03 INT $0312

47BA: 00 A2 09 INT $09A2
47BD: 9D 88 03 STA $0388,X
47C0: CA       DEX
47C1: D0 FA    BNE $47BD
47C3: 68       PLA
47C4: AA       TAX
47C5: A6 5F    LDX $5F
47C7: 9A       TXS
47C8: 4C 6C 52 JMP $526C
47CB: A5 62    LDA $62
47CD: 85 80    STA $80
47CF: A5 63    LDA $63
47D1: 85 81    STA $81
47D3: 38       SEC
47D4: A5 80    LDA $80
47D6: E5 64    SBC $64
47D8: 85 80    STA $80
47DA: A5 81    LDA $81
47DC: E9 00    SBC #$00
47DE: 85 81    STA $81
47E0: 20 E9 47 JSR $47E9
47E3: 20 54 49 JSR $4954
47E6: 60       RTS
47E7: 60       RTS
47E8: EA       NOP

47E9: A5 0A    LDA $0A
47EB: 48       PHA
47EC: A5 0A    LDA $0A
47EE: 29 F0    AND #$F0
47F0: 09 01    ORA #$01
47F2: 85 0A    STA $0A
47F4: A5 80    LDA $80
47F6: 8D 05 09 STA $0905
47F9: A5 81    LDA $81
47FB: 8D 06 09 STA $0906
47FE: A9 00    LDA #$00
4800: 85 65    STA $65
4802: AD D2 08 LDA $08D2
4805: 8D F6 08 STA $08F6
4808: AD D3 08 LDA $08D3
480B: 8D F7 08 STA $08F7
480E: A9 C0    LDA #$C0
4810: 8D 00 09 STA $0900
4813: 00 1A 05 INT $051A
4816: 90 03    BCC $481B
4818: 4C 33 49 JMP $4933
481B: 00 1B 05 INT $051B
481E: 90 03    BCC $4823
4820: 4C 33 49 JMP $4933
4823: A2 12    LDX #$12
4825: BD D4 08 LDA $08D4,X
4828: 8D F8 08 STA $08F8
482B: BD D5 08 LDA $08D5,X
482E: 8D F9 08 STA $08F9
4831: A9 00    LDA #$00
4833: 8D 18 09 STA $0918
4836: A9 00    LDA #$00
4838: 8D 19 09 STA $0919
483B: AD 05 09 LDA $0905
483E: 8D 09 CC STA $CC09
4841: AD 06 09 LDA $0906
4844: 8D 0A CC STA $CC0A
4847: A9 00    LDA #$00
4849: 8D 0B CC STA $CC0B
484C: A9 00    LDA #$00
484E: 8D 0C CC STA $CC0C
4851: A9 56    LDA #$56
4853: 85 EA    STA $EA
4855: A9 C8    LDA #$C8
4857: 85 EB    STA $EB
4859: A9 56    LDA #$56
485B: 85 E2    STA $E2
485D: A9 C8    LDA #$C8
485F: 85 E3    STA $E3
4861: 00 06 05 INT $0506
4864: 90 03    BCC $4869
4866: 4C 33 49 JMP $4933
4869: AD 19 09 LDA $0919
486C: C9 00    CMP #$00
486E: D0 05    BNE $4875
4870: AD 18 09 LDA $0918
4873: C9 00    CMP #$00
4875: D0 03    BNE $487A
4877: 4C E6 48 JMP $48E6
487A: A9 00    LDA #$00
487C: 8D F6 03 STA $03F6
487F: A0 00    LDY #$00
4881: B1 E2    LDA ($E2),Y
4883: 8D F6 08 STA $08F6
4886: C8       INY
4887: B1 E2    LDA ($E2),Y
4889: 8D F7 08 STA $08F7
488C: AD F7 08 LDA $08F7
488F: C9 FF    CMP #$FF
4891: D0 05    BNE $4898
4893: AD F6 08 LDA $08F6
4896: C9 FF    CMP #$FF
4898: D0 03    BNE $489D
489A: 4C 2E 49 JMP $492E
489D: 00 20 05 INT $0520
48A0: B0 44    BCS $48E6
48A2: AD 0C CC LDA $CC0C
48A5: CD 0A CC CMP $CC0A
48A8: D0 06    BNE $48B0
48AA: AD 0B CC LDA $CC0B
48AD: CD 09 CC CMP $CC09
48B0: F0 0B    BEQ $48BD
48B2: EE 0B CC INC $CC0B
48B5: D0 03    BNE $48BA
48B7: EE 0C CC INC $CC0C
48BA: 4C E6 48 JMP $48E6
48BD: A5 65    LDA $65
48BF: 0A       ASL
48C0: AA       TAX
48CB: 38       SEC
48CC: A5 82    LDA $82
48CE: E9 02    SBC #$02
48D0: 85 82    STA $82
48D2: B0 02    BCS $48D6
48D4: C6 83    DEC $83
48D6: A0 02    LDY #$02
48D8: B1 E2    LDA ($E2),Y
48DA: 91 82    STA ($82),Y
48DC: F0 44    BEQ $4922
48DE: C8       INY
48DF: C0 10    CPY #$10
48E1: 90 F5    BCC $48D8
48E3: 4C 22 49 JMP $4922
48E6: 18       CLC
48E7: A5 E2    LDA $E2
48E9: 69 10    ADC #$10
48EB: 85 E2    STA $E2
48ED: 90 02    BCC $48F1
48EF: E6 E3    INC $E3
48F1: A5 E3    LDA $E3
48F3: C9 CA    CMP #$CA
48F5: D0 04    BNE $48FB
48F7: A5 E2    LDA $E2
48F9: C9 56    CMP #$56
48FB: B0 03    BCS $4900
48FD: 4C 7A 48 JMP $487A
4900: 18       CLC
4901: AD 18 09 LDA $0918
4904: 69 00    ADC #$00
4906: 8D 18 09 STA $0918
4909: AD 19 09 LDA $0919
490C: 69 02    ADC #$02
490E: 8D 19 09 STA $0919
4911: AD 19 09 LDA $0919
4914: C9 40    CMP #$40
4916: D0 05    BNE $491D
4918: AD 18 09 LDA $0918
491B: C9 00    CMP #$00
491D: B0 14    BCS $4933
491F: 4C 51 48 JMP $4851
4922: E6 65    INC $65
4924: A5 65    LDA $65
4926: C9 05    CMP #$05
4928: 90 BC    BCC $48E6
492A: 18       CLC
492B: 4C 34 49 JMP $4934
492E: A9 02    LDA #$02
4930: 8D CC 08 STA $08CC
4933: 38       SEC
4934: 68       PLA
4935: 85 0A    STA $0A
4937: 60       RTS

4938: A5 64    LDA $64
493A: 0A       ASL
493B: AA       TAX
493C: BD DA 4D LDA $4DDA,X
493F: 85 80    STA $80
4941: BD DB 4D LDA $4DDB,X
4944: 85 81    STA $81
4946: A0 0D    LDY #$0D
4948: B1 80    LDA ($80),Y
494A: 99 8D 08 STA $088D,Y
494D: 99 61 BA STA $BA61,Y
4950: 88       DEY
4951: 10 F5    BPL $4948
4953: 60       RTS

4954: A9 00    LDA #$00
4956: 85 57    STA $57
4958: A5 65    LDA $65
495A: D0 03    BNE $495F
495C: 4C 95 49 JMP $4995
495F: A5 57    LDA $57
4961: 0A       ASL
4962: AA       TAX
4963: BD DA 4D LDA $4DDA,X
4966: 85 80    STA $80
4968: BD DB 4D LDA $4DDB,X
496B: 85 81    STA $81
496D: BD E4 4D LDA $4DE4,X
4970: 85 82    STA $82
4972: BD E5 4D LDA $4DE5,X
4975: 85 83    STA $83
4977: A0 00    LDY #$00
4979: B1 80    LDA ($80),Y
497B: F0 07    BEQ $4984
497D: 91 82    STA ($82),Y
497F: C8       INY
4980: C0 0E    CPY #$0E
4982: 90 F5    BCC $4979
4984: A9 00    LDA #$00
4986: 91 82    STA ($82),Y
4988: C8       INY
4989: C0 14    CPY #$14
498B: 90 F7    BCC $4984
498D: E6 57    INC $57
498F: A5 57    LDA $57
4991: C5 65    CMP $65
4993: D0 CC    BNE $4961
4995: C9 05    CMP #$05
4997: D0 01    BNE $499A
4999: 60       RTS
499A: 0A       ASL
499B: AA       TAX
499C: BD E4 4D LDA $4DE4,X
499F: 85 80    STA $80
49A1: BD E5 4D LDA $4DE5,X
49A4: 85 81    STA $81
49A6: 20 B0 49 JSR $49B0
49A9: E6 57    INC $57
49AB: A5 57    LDA $57
49AD: 4C 95 49 JMP $4995
49B0: A9 00    LDA #$00
49B2: A0 13    LDY #$13
49B4: 91 80    STA ($80),Y
49B6: 88       DEY
49B7: 10 FB    BPL $49B4
49B9: 60       RTS
49BA: A5 62    LDA $62
49BC: 85 82    STA $82
49BE: A5 63    LDA $63
49C0: 85 83    STA $83
49C2: A5 60    LDA $60
49C4: 85 80    STA $80
49C6: A5 61    LDA $61
49C8: 85 81    STA $81
49CA: A5 80    LDA $80
49CC: D0 02    BNE $49D0
49CE: C6 81    DEC $81
49D0: C6 80    DEC $80
49D2: 00 2C C7 INT $C72C
49D5: A5 62    LDA $62
49D7: 85 80    STA $80
49D9: A5 63    LDA $63
49DB: 85 81    STA $81
49DD: E6 80    INC $80
49DF: D0 02    BNE $49E3
49E1: E6 81    INC $81
49E3: 00 2D C7 INT $C72D
49E6: 60       RTS
49E7: A9 00    LDA #$00
49E9: A0 63    LDY #$63
49EB: 99 2A B8 STA $B82A,Y
49EE: 88       DEY
49EF: 10 FA    BPL $49EB
49F1: 60       RTS
49F2: 8A       TXA
49F3: 48       PHA
49F4: A9 00    LDA #$00
49F6: A2 09    LDX #$09
49F8: 9D 88 03 STA $0388,X
49FB: CA       DEX
49FC: D0 FA    BNE $49F8
49FE: 68       PLA
49FF: AA       TAX
4A00: A9 00    LDA #$00
4A02: 8D 32 0A STA $0A32
4A05: A2 F3    LDX #$F3
4A07: A0 4D    LDY #$4D
4A09: A9 02    LDA #$02
4A0B: 00 12 CA INT $CA12
4A0E: C9 79    CMP #$79
4A10: F0 0F    BEQ $4A21
4A12: A5 60    LDA $60
4A14: 05 61    ORA $61
4A16: D0 03    BNE $4A1B
4A18: 4C B8 4D JMP $4DB8
4A1B: 20 5A 46 JSR $465A
4A1E: 4C CB 47 JMP $47CB
4A21: A2 12    LDX #$12
4A23: A9 00    LDA #$00
4A25: 9D 60 BA STA $BA60,X
4A28: CA       DEX
4A29: D0 F8    BNE $4A23
4A2B: 20 11 53 JSR $5311
4A2E: AD B4 03 LDA $03B4
4A31: 48       PHA
4A32: AD B5 03 LDA $03B5
4A35: 48       PHA
4A36: AD 91 03 LDA $0391
4A39: 48       PHA
4A3A: AD B3 03 LDA $03B3
4A3D: 48       PHA
4A3E: 20 87 4A JSR $4A87
4A41: 68       PLA
4A42: 8D B3 03 STA $03B3
4A45: 68       PLA
4A46: 8D 91 03 STA $0391
4A49: 68       PLA
4A4A: 8D B5 03 STA $03B5
4A4D: 68       PLA
4A4E: 8D B4 03 STA $03B4
4A51: A6 57    LDX $57
4A53: F0 1B    BEQ $4A70
4A55: E0 01    CPX #$01
4A57: D0 06    BNE $4A5F
4A59: 20 2E 55 JSR $552E
4A5C: 4C 2E 4A JMP $4A2E
4A5F: 8A       TXA
4A60: 48       PHA
4A61: A9 00    LDA #$00
4A63: A2 09    LDX #$09
4A65: 9D 88 03 STA $0388,X
4A68: CA       DEX
4A69: D0 FA    BNE $4A65
4A6B: 68       PLA
4A6C: AA       TAX
4A6D: 4C 12 4A JMP $4A12
4A70: 90 BC    BCC $4A2E
4A72: 20 CB 47 JSR $47CB
4A75: 20 5A 46 JSR $465A
4A78: 8A       TXA
4A79: 48       PHA
4A7A: A9 00    LDA #$00
4A7C: A2 09    LDX #$09
4A7E: 9D 88 03 STA $0388,X
4A81: CA       DEX
4A82: D0 FA    BNE $4A7E
4A84: 68       PLA
4A85: AA       TAX
4A86: 60       RTS
4A87: BA       TSX
4A88: 86 57    STX $57
4A8A: A2 2B    LDX #$2B
4A8C: A0 4F    LDY #$4F
4A8E: 00 02 CB INT $CB02
4A91: 60       RTS
4A92: 00 2A C7 INT $C72A
4A95: A2 0D    LDX #$0D
4A97: BD BD 4E LDA $4EBD,X
4A9A: 9D BF 02 STA $02BF,X
4A9D: CA       DEX
4A9E: D0 F7    BNE $4A97
4AA0: A9 0C    LDA #$0C
4AA2: 8D 4A 04 STA $044A
4AA5: AD 91 03 LDA $0391
4AA8: 09 01    ORA #$01
4AAA: 8D 91 03 STA $0391
4AAD: A9 00    LDA #$00
4AAF: 8D 47 04 STA $0447
4AB2: A9 00    LDA #$00
4AB4: 8D B3 03 STA $03B3
4AB7: A9 FF    LDA #$FF
4AB9: 8D AF 03 STA $03AF
4ABC: A9 FF    LDA #$FF
4ABE: 8D B0 03 STA $03B0
4AC1: 00 19 C7 INT $C719
4AC4: 60       RTS
4AC5: 20 92 4A JSR $4A92
4AC8: AC 61 BA LDY $BA61
4ACB: F0 13    BEQ $4AE0
4ACD: A0 00    LDY #$00
4ACF: B9 61 BA LDA $BA61,Y
4AD2: F0 0C    BEQ $4AE0
4AD4: C9 2E    CMP #$2E
4AD6: F0 08    BEQ $4AE0
4AD8: 99 D4 02 STA $02D4,Y
4ADB: C8       INY
4ADC: C0 0E    CPY #$0E
4ADE: 90 EF    BCC $4ACF
4AE0: 98       TYA
4AE1: A2 EE    LDX #$EE
4AE3: A0 4D    LDY #$4D
4AE5: 20 19 4C JSR $4C19
4AE8: 00 07 CB INT $CB07
4AEB: 4C F8 4A JMP $4AF8
4AEE: 20 92 4A JSR $4A92
4AF1: A2 EE    LDX #$EE
4AF3: A0 4D    LDY #$4D
4AF5: 00 06 CB INT $CB06
4AF8: C9 1B    CMP #$1B
4AFA: F0 11    BEQ $4B0D
4AFC: C9 0D    CMP #$0D
4AFE: F0 1E    BEQ $4B1E
4B00: C9 19    CMP #$19
4B02: D0 03    BNE $4B07
4B04: 4C EE 4A JMP $4AEE
4B07: 00 07 CB INT $CB07
4B0A: 4C F8 4A JMP $4AF8
4B0D: 18       CLC
4B0E: A9 00    LDA #$00
4B10: F0 06    BEQ $4B18
4B12: A9 01    LDA #$01
4B14: D0 02    BNE $4B18
4B16: A9 02    LDA #$02
4B18: A6 57    LDX $57
4B1A: 85 57    STA $57
4B1C: 9A       TXS
4B1D: 60       RTS
4B1E: AD D4 02 LDA $02D4
4B21: F0 CE    BEQ $4AF1
4B23: A0 00    LDY #$00
4B25: B9 D4 02 LDA $02D4,Y
4B28: F0 11    BEQ $4B3B
4B2A: C9 2E    CMP #$2E
4B2C: F0 C3    BEQ $4AF1
4B2E: C9 2F    CMP #$2F
4B30: F0 BF    BEQ $4AF1
4B32: C9 20    CMP #$20
4B34: F0 BB    BEQ $4AF1
4B36: C8       INY
4B37: C0 0A    CPY #$0A
4B39: 90 EA    BCC $4B25
4B3B: A2 00    LDX #$00
4B3D: BD FB 4B LDA $4BFB,X
4B40: 99 D4 02 STA $02D4,Y
4B43: C8       INY
4B44: E8       INX
4B45: E0 04    CPX #$04
4B47: 90 F4    BCC $4B3D
4B49: A9 00    LDA #$00
4B4B: 99 D4 02 STA $02D4,Y
4B4E: A2 0E    LDX #$0E
4B50: BD D3 02 LDA $02D3,X
4B53: 9D 60 BA STA $BA60,X
4B56: CA       DEX
4B57: D0 F7    BNE $4B50
4B59: A2 0E    LDX #$0E
4B5B: BD 60 BA LDA $BA60,X
4B5E: 9D 8C 08 STA $088C,X
4B61: CA       DEX
4B62: D0 F7    BNE $4B5B
4B64: 20 FF 4B JSR $4BFF
4B67: 90 16    BCC $4B7F
4B69: A9 60    LDA #$60
4B6B: 8D C9 08 STA $08C9
4B6E: A9 CF    LDA #$CF
4B70: 8D CA 08 STA $08CA
4B73: A9 FF    LDA #$FF
4B75: 8D CB 08 STA $08CB
4B78: A9 00    LDA #$00
4B7A: 85 59    STA $59
4B7C: 4C 9D 4B JMP $4B9D
4B7F: A9 00    LDA #$00
4B81: 8D 32 0A STA $0A32
4B84: A2 FD    LDX #$FD
4B86: A0 4D    LDY #$4D
4B88: A9 02    LDA #$02
4B8A: 00 12 CA INT $CA12
4B8D: C9 79    CMP #$79
4B8F: F0 03    BEQ $4B94
4B91: 4C C5 4A JMP $4AC5
4B94: A9 50    LDA #$50
4B96: 8D C9 08 STA $08C9
4B99: A9 01    LDA #$01
4B9B: 85 59    STA $59
4B9D: 00 15 05 INT $0515
4BA0: 90 14    BCC $4BB6
4BA2: AD CC 08 LDA $08CC
4BA5: C9 0E    CMP #$0E
4BA7: F0 07    BEQ $4BB0
4BA9: C9 19    CMP #$19
4BAB: F0 03    BEQ $4BB0
4BAD: 4C B8 4D JMP $4DB8
4BB0: 20 8F 4D JSR $4D8F
4BB3: 4C 0D 4B JMP $4B0D
4BB6: A9 00    LDA #$00
4BB8: 85 E0    STA $E0
4BBA: A9 70    LDA #$70
4BBC: 85 E1    STA $E1
4BBE: 38       SEC
4BBF: AD 58 BA LDA $BA58
4BC2: E9 00    SBC #$00
4BC4: 8D C6 08 STA $08C6
4BC7: AD 59 BA LDA $BA59
4BCA: E9 70    SBC #$70
4BCC: 8D C7 08 STA $08C7
4BCF: 00 18 05 INT $0518
4BD2: B0 19    BCS $4BED
4BD4: 00 17 05 INT $0517
4BD7: A5 59    LDA $59
4BD9: D0 0E    BNE $4BE9
4BDB: A5 60    LDA $60
4BDD: 85 62    STA $62
4BDF: A5 61    LDA $61
4BE1: 85 63    STA $63
4BE3: E6 60    INC $60
4BE5: D0 02    BNE $4BE9
4BE7: E6 61    INC $61
4BE9: 38       SEC
4BEA: 4C 0E 4B JMP $4B0E
4BED: 48       PHA
4BEE: 00 17 05 INT $0517
4BF1: 00 0E 05 INT $050E
4BF4: 68       PLA
4BF5: 8D CC 08 STA $08CC
4BF8: 4C A2 4B JMP $4BA2
4BFB: 2E 42 41 ROL $4142
4BFE: 53       ??
4BFF: A9 80    LDA #$80
4C01: 8D C9 08 STA $08C9
4C04: 00 15 05 INT $0515
4C07: 90 0B    BCC $4C14
4C09: AD CC 08 LDA $08CC
4C0C: C9 02    CMP #$02
4C0E: F0 03    BEQ $4C13
4C10: 4C B8 4D JMP $4DB8
4C13: 60       RTS
4C14: 00 17 05 INT $0517
4C17: 18       CLC
4C18: 60       RTS
4C19: 86 A8    STX $A8
4C1B: 84 A9    STY $A9
4C1D: 8D 13 06 STA $0613
4C20: AD 91 03 LDA $0391
4C23: 09 01    ORA #$01
4C25: 8D 91 03 STA $0391
4C28: A0 00    LDY #$00
4C2A: B1 A8    LDA ($A8),Y
4C2C: 8D 14 06 STA $0614
4C2F: C8       INY
4C30: B1 A8    LDA ($A8),Y
4C32: 85 8A    STA $8A
4C34: C8       INY
4C35: B1 A8    LDA ($A8),Y
4C37: 8D 15 06 STA $0615
4C3A: 60       RTS

4C3B: A5 64    LDA $64
4C3D: 0A       ASL
4C3E: AA       TAX
4C3F: BD DA 4D LDA $4DDA,X
4C42: 85 80    STA $80
4C44: BD DB 4D LDA $4DDB,X
4C47: 85 81    STA $81
4C49: A0 00    LDY #$00
4C4B: B1 80    LDA ($80),Y
4C4D: F0 09    BEQ $4C58
4C4F: C9 2E    CMP #$2E
4C51: F0 08    BEQ $4C5B
4C53: C8       INY
4C54: C0 0E    CPY #$0E
4C56: 90 F3    BCC $4C4B
4C58: A9 FF    LDA #$FF
4C5A: 60       RTS

4C5B: A2 00    LDX #$00
4C5D: C8       INY
4C5E: C0 0E    CPY #$0E
4C60: B0 F6    BCS $4C58
4C62: B1 80    LDA ($80),Y
4C64: C9 61    CMP #$61
4C66: 90 06    BCC $4C6E
4C68: C9 7B    CMP #$7B
4C6A: B0 02    BCS $4C6E
4C6C: 29 DF    AND #$DF
4C6E: DD FC 4B CMP $4BFC,X
4C71: F0 01    BEQ $4C74
4C73: 60       RTS
4C74: E8       INX
4C75: E0 03    CPX #$03
4C77: D0 E4    BNE $4C5D
4C79: C8       INY
4C7A: C0 0E    CPY #$0E
4C7C: F0 02    BEQ $4C80
4C7E: B1 80    LDA ($80),Y
4C80: 60       RTS

; 切换 /BASIC文件 工作目录
4C81: A2 0B    LDX #$0B
4C83: BD CE 4D LDA $4DCE,X
4C86: 9D 8C 08 STA $088C,X
4C89: CA       DEX
4C8A: D0 F7    BNE $4C83
4C8C: 00 0D 05 INT $050D
4C8F: B0 01    BCS $4C92
4C91: 60       RTS

; 创建 /BASIC文件 目录
4C92: AD CC 08 LDA $08CC
4C95: C9 02    CMP #$02
4C97: F0 02    BEQ $4C9B
4C99: 38       SEC
4C9A: 60       RTS
4C9B: 00 0B 05 INT $050B
4C9E: 90 E1    BCC $4C81
4CA0: 60       RTS

; 读取nand
4CA1: A5 0A    LDA $0A
4CA3: 48       PHA
4CA4: A5 0A    LDA $0A
4CA6: 29 F0    AND #$F0
4CA8: 09 01    ORA #$01
4CAA: 85 0A    STA $0A
4CAC: A9 00    LDA #$00
4CAE: 85 60    STA $60
4CB0: A9 00    LDA #$00
4CB2: 85 61    STA $61
4CB4: AD D2 08 LDA $08D2
4CB7: 8D F6 08 STA $08F6
4CBA: AD D3 08 LDA $08D3
4CBD: 8D F7 08 STA $08F7
4CC0: A9 C0    LDA #$C0
4CC2: 8D 00 09 STA $0900
4CC5: 00 1A 05 INT $051A
4CC8: 00 1B 05 INT $051B
4CCB: A2 12    LDX #$12
4CCD: BD D4 08 LDA $08D4,X
4CD0: 8D F8 08 STA $08F8
4CD3: BD D5 08 LDA $08D5,X
4CD6: 8D F9 08 STA $08F9
4CD9: A9 00    LDA #$00
4CDB: 8D 18 09 STA $0918
4CDE: A9 00    LDA #$00
4CE0: 8D 19 09 STA $0919
4CE3: 20 0B 4D JSR $4D0B
4CE6: B0 1F    BCS $4D07
4CE8: 18       CLC
4CE9: AD 18 09 LDA $0918
4CEC: 69 00    ADC #$00
4CEE: 8D 18 09 STA $0918
4CF1: AD 19 09 LDA $0919
4CF4: 69 02    ADC #$02
4CF6: 8D 19 09 STA $0919
4CF9: AD 19 09 LDA $0919
4CFC: C9 40    CMP #$40
4CFE: D0 05    BNE $4D05
4D00: AD 18 09 LDA $0918
4D03: C9 00    CMP #$00
4D05: 90 DC    BCC $4CE3
4D07: 68       PLA
4D08: 85 0A    STA $0A
4D0A: 60       RTS

4D0B: A9 56    LDA #$56
4D0D: 85 EA    STA $EA
4D0F: A9 C8    LDA #$C8
4D11: 85 EB    STA $EB
4D13: A9 56    LDA #$56
4D15: 85 E2    STA $E2
4D17: A9 C8    LDA #$C8
4D19: 85 E3    STA $E3
4D1B: 00 06 05 INT $0506
4D1E: AD 19 09 LDA $0919
4D21: C9 00    CMP #$00
4D23: D0 05    BNE $4D2A
4D25: AD 18 09 LDA $0918
4D28: C9 00    CMP #$00
4D2A: D0 03    BNE $4D2F
4D2C: 4C 43 4D JMP $4D43
4D2F: A9 00    LDA #$00
4D31: 8D F6 03 STA $03F6
4D34: 20 60 4D JSR $4D60
4D37: B0 0A    BCS $4D43
4D39: C9 FF    CMP #$FF
4D3B: F0 21    BEQ $4D5E
4D3D: E6 60    INC $60
4D3F: D0 02    BNE $4D43
4D41: E6 61    INC $61
4D43: 18       CLC
4D44: A5 E2    LDA $E2
4D46: 69 10    ADC #$10
4D48: 85 E2    STA $E2
4D4A: 90 02    BCC $4D4E
4D4C: E6 E3    INC $E3
4D4E: A5 E3    LDA $E3
4D50: C9 CA    CMP #$CA
4D52: D0 04    BNE $4D58
4D54: A5 E2    LDA $E2
4D56: C9 56    CMP #$56
4D58: 90 D5    BCC $4D2F
4D5A: 18       CLC
4D5B: 4C 5F 4D JMP $4D5F
4D5E: 38       SEC
4D5F: 60       RTS
4D60: A0 00    LDY #$00
4D62: B1 E2    LDA ($E2),Y
4D64: 8D F6 08 STA $08F6
4D67: C8       INY
4D68: B1 E2    LDA ($E2),Y
4D6A: 8D F7 08 STA $08F7
4D6D: AD F7 08 LDA $08F7
4D70: C9 FF    CMP #$FF
4D72: D0 05    BNE $4D79
4D74: AD F6 08 LDA $08F6
4D77: C9 FF    CMP #$FF
4D79: D0 03    BNE $4D7E
4D7B: 4C 8B 4D JMP $4D8B
4D7E: 00 20 05 INT $0520
4D81: B0 04    BCS $4D87
4D83: A9 00    LDA #$00
4D85: 18       CLC
4D86: 60       RTS

4D87: A9 00    LDA #$00
4D89: 38       SEC
4D8A: 60       RTS
4D8B: A9 FF    LDA #$FF
4D8D: 18       CLC
4D8E: 60       RTS

; 显示 空间已满 对话框
4D8F: A9 00    LDA #$00
4D91: 8D 32 0A STA $0A32
4D94: A2 A4    LDX #$A4
4D96: A0 4D    LDY #$4D
4D98: A9 00    LDA #$00
4D9A: 00 12 CA INT $CA12
4D9D: 20 2A E0 JSR $E02A
4DA0: 20 2A E0 JSR $E02A
4DA3: 60       RTS

4DA4: 80       ??
4DA5: AE 4D 20 LDX $204D
4DA8: 19 08 02 ORA $0208,Y
4DAB: AD 4D 02 LDA $024D
4DAE: BF       ??
4DAF: D5 BC    CMP $BC,X
4DB1: E4 D2    CPX $D2
4DB3: D1 C2    CMP ($C2),Y
4DB5: FA       ??
4DB6: 00 00 00 INT $0000
4DB9: 12       ??
4DBA: 03       ??
4DBB: 00 A2 09 INT $09A2
4DBE: 9D 88 03 STA $0388,X
4DC1: CA       DEX
4DC2: D0 FA    BNE $4DBE
4DC4: 68       PLA
4DC5: AA       TAX
4DC6: 00 23 05 INT $0523
4DC9: A6 5F    LDX $5F
4DCB: 9A       TXS
4DCC: 4C 6C 52 JMP $526C
4DCF: 2F       ??
4DD0: 42       ??
4DD1: 41 53    EOR ($53,X)
4DD3: 49 43    EOR #$43
4DD5: CE C4 BC DEC $BCC4
4DD8: FE 00 2A INC $2A00,X
4DDB: B8       CLV
4DDC: 3E B8 52 ROL $52B8,X
4DDF: B8       CLV
4DE0: 66 B8    ROR $B8
4DE2: 7A       ??
4DE3: B8       CLV
4DE4: C0 02    CPY #$02
4DE6: D4       ??
4DE7: 02       ??
4DE8: E8       INX
4DE9: 02       ??
4DEA: FC       ??
4DEB: 02       ??
4DEC: 10 03    BPL $4DF1
4DEE: 14       ??
4DEF: 0A       ASL
4DF0: 20 93 4E JSR $4E93
4DF3: 80       ??
4DF4: CB       ??
4DF5: 4E 18 10 LSR $1018
4DF8: 0C       ??
4DF9: 02       ??
4DFA: FC       ??
4DFB: 4D 02 80 EOR $8002
4DFE: D9 4E 1A CMP $1A4E,Y
4E01: 08       PHP
4E02: 0C       ??
4E03: 04       ??
4E04: 06 4E    ASL $4E
4E06: 02       ??
4E07: 80       ??
4E08: F4       ??
4E09: 4E 1A 12 LSR $121A
4E0C: 0C       ??
4E0D: 02       ??
4E0E: 10 4E    BPL $4E5E
4E10: 02       ??
4E11: 80       ??
4E12: 01 4F    ORA ($4F,X)
4E14: 28       PLP
4E15: 12       ??
4E16: 08       PHP
4E17: 04       ??
4E18: 1A       ??
4E19: 4E 02 80 LSR $8002
4E1C: 14       ??
4E1D: 4F       ??
4E1E: 22       ??
4E1F: 1E 0A 02 ASL $020A,X
4E22: 24 4E    BIT $4E
4E24: 02       ??
4E25: 80       ??
4E26: 20 4F 26 JSR $264F
4E29: 1E 09 02 ASL $0209,X
4E2C: 2E 4E 02 ROL $024E
4E2F: 2D 2D 2D AND $2D2D
4E32: 2D 2D 2D AND $2D2D
4E35: 2D 2D 2D AND $2D2D
4E38: 2D 2D 2D AND $2D2D
4E3B: 2D 2D 2D AND $2D2D
4E3E: 2D 2D 2D AND $2D2D
4E41: 2D 2D 20 AND $202D
4E44: 20 20 20 JSR $2020
4E47: CE C4 BC DEC $BCC4
4E4A: FE BC D3 INC $D3BC,X
4E4D: D4       ??
4E4E: D8       CLD
4E4F: B4 ED    LDY $ED,X
4E51: CE F3 20 DEC $20F3
4E54: 20 20 20 JSR $2020
4E57: 20 20 C7 JSR $C720
4E5A: EB       ??
4E5B: D6 D8    DEC $D8,X
4E5D: D0 C2    BNE $4E21
4E5F: C9 FD    CMP #$FD
4E61: BC B6 B4 LDY $B4B6,X
4E64: CB       ??
4E65: CE C4 BC DEC $BCC4
4E68: FE 20 20 INC $2020,X
4E6B: 20 20 20 JSR $2020
4E6E: 20 20 20 JSR $2020
4E71: 20 20 20 JSR $2020
4E74: 20 20 20 JSR $2020
4E77: 20 20 20 JSR $2020
4E7A: 20 20 20 JSR $2020
4E7D: 20 20 2D JSR $2D20
4E80: 2D 2D 2D AND $2D2D
4E83: 2D 2D 2D AND $2D2D
4E86: 2D 2D 2D AND $2D2D
4E89: 2D 2D 2D AND $2D2D
4E8C: 2D 2D 2D AND $2D2D
4E8F: 2D 2D 2D AND $2D2D
4E92: 2D 3D 3D AND $3D3D
4E95: 3D 3D 3D AND $3D3D,X
4E98: 20 47 56 JSR $5647
4E9B: 20 42 41 JSR $4142
4E9E: 53       ??
4E9F: 49 43    EOR #$43
4EA1: 20 3D 3D JSR $3D3D
4EA4: 3D 3D 3D AND $3D3D,X
4EA7: 00 CA E4 INT $E4CA
4EAA: C8       INY
4EAB: EB       ??
4EAC: C4 FA    CPY $FA
4EAE: CB       ??
4EAF: F9 C8 A1 SBC $A1C8,Y
4EB2: B5 C4    LDA $C4,X
4EB4: CE C4 BC DEC $BCC4
4EB7: FE C3 FB INC $FBC3,X
4EBA: A1 A3    LDA ($A3,X)
4EBC: 00 00 C7 INT $C700
4EBF: EB       ??
4EC0: CA       DEX
4EC1: E4 C8    CPX $C8
4EC3: EB       ??
4EC4: CE C4 BC DEC $BCC4
4EC7: FE C3 FB INC $FBC3,X
4ECA: 3A       ??
4ECB: 20 20 B4 JSR $B420
4ECE: B4 BD    LDY $BD,X
4ED0: A8       TAY
4ED1: D0 C2    BNE $4E95
4ED3: CE C4 BC DEC $BCC4
4ED6: FE 00 00 INC $0000,X
4ED9: 20 20 D3 JSR $D320
4EDC: D0 CD    BNE $4EAB
4EDE: AC C3 FB LDY $FBC3
4EE1: CE C4 BC DEC $BCC4
4EE4: FE 00 20 INC $2000,X
4EE7: 20 B4 E6 JSR $E6B4
4EEA: D4       ??
4EEB: DA       ??
4EEC: 2C 20 B8 BIT $B820
4EEF: B2       ??
4EF0: B8       CLV
4EF1: C7       ??
4EF2: 00 00 20 INT $2000
4EF5: 20 20 C8 JSR $C820
4EF8: B7       ??
4EF9: CA       DEX
4EFA: B5 C9    LDA $C9,X
4EFC: BE B3 FD LDX $FDB3,Y
4EFF: 00 00 CE INT $CE00
4F02: C4 BC    CPY $BC
4F04: FE B3 AC INC $ACB3,X
4F07: B3       ??
4F08: A4 00    LDY $00
4F0A: B2       ??
4F0B: BB       ??
4F0C: BF       ??
4F0D: C9 B1    CMP #$B1
4F0F: E0 BC    CPX #$BC
4F11: AD 00 00 LDA $0000
4F14: 20 B7 C7 JSR $C7B7
4F17: 42       ??
4F18: 41 53    EOR ($53,X)
4F1A: CE C4 BC DEC $BCC4
4F1D: FE 00 00 INC $0000,X
4F20: 20 BF D5 JSR $D5BF
4F23: BC E4 B2 LDY $B2E4,X
4F26: BB       ??
4F27: D7       ??
4F28: E3       ??
4F29: 00 00 09 INT $0900
4F2C: 03       ??
4F2D: C5 4A    CMP $4A
4F2F: 5A       ??
4F30: 4F       ??
4F31: 12       ??
4F32: 4B       ??
4F33: 85 4F    STA $4F
4F35: 16 4B    ASL $4B,X
4F37: B2       ??
4F38: 4F       ??
4F39: 31 2E    AND ($2E),Y
4F3B: B1 A3    LDA ($A3),Y
4F3D: B4 E6    LDY $E6,X
4F3F: CE C4 BC DEC $BCC4
4F42: FE FF 32 INC $32FF,X
4F45: 2E B7 B5 ROL $B5B7
4F48: BB       ??
4F49: D8       CLD
4F4A: B1 E0    LDA ($E0),Y
4F4C: BC AD FF LDY $FFAD,X
4F4F: 33       ??
4F50: 2E B7 C5 ROL $C5B7
4F53: C6 FA    DEC $FA
4F55: B1 A3    LDA ($A3),Y
4F57: B4 E6    LDY $E6,X
4F59: FF       ??
4F5A: 3D 3D 3D AND $3D3D,X
4F5D: 3D 3D 20 AND $203D,X
4F60: 47       ??
4F61: 56 20    LSR $20,X
4F63: 42       ??
4F64: 41 53    EOR ($53,X)
4F66: 49 43    EOR #$43
4F68: 20 3D 3D JSR $3D3D
4F6B: 3D 3D 3D AND $3D3D,X
4F6E: 00 CA E4 INT $E4CA
4F71: C8       INY
4F72: EB       ??
4F73: CE C4 BC DEC $BCC4
4F76: FE C3 FB INC $FBC3,X
4F79: B1 A3    LDA ($A3),Y
4F7B: B4 E6    LDY $E6,X
4F7D: CE C4 BC DEC $BCC4
4F80: FE A1 A3 INC $A3A1,X
4F83: 00 00 3D INT $3D00
4F86: 3D 3D 3D AND $3D3D,X
4F89: 3D 20 47 AND $4720,X
4F8C: 56 20    LSR $20,X
4F8E: 42       ??
4F8F: 41 53    EOR ($53,X)
4F91: 49 43    EOR #$43
4F93: 20 3D 3D JSR $3D3D
4F96: 3D 3D 3D AND $3D3D,X
4F99: 00 B7 B5 INT $B5B7
4F9C: BB       ??
4F9D: D8       CLD
4F9E: B1 E0    LDA ($E0),Y
4FA0: BC AD BD LDY $BDAD,X
4FA3: E7       ??
4FA4: C3       ??
4FA5: E6 BC    INC $BC
4FA7: CC D0 F8 CPY $F8D0
4FAA: B1 E0    LDA ($E0),Y
4FAC: BC AD A1 LDY $A1AD,X
4FAF: A3       ??
4FB0: 00 00 3D INT $3D00
4FB3: 3D 3D 3D AND $3D3D,X
4FB6: 3D 20 47 AND $4720,X
4FB9: 56 20    LSR $20,X
4FBB: 42       ??
4FBC: 41 53    EOR ($53,X)
4FBE: 49 43    EOR #$43
4FC0: 20 3D 3D JSR $3D3D
4FC3: 3D 3D 3D AND $3D3D,X
4FC6: 00 B7 C5 INT $C5B7
4FC9: C6 FA    DEC $FA
4FCB: B1 A3    LDA ($A3),Y
4FCD: B4 E6    LDY $E6,X
4FCF: CE C4 BC DEC $BCC4
4FD2: FE B7 B5 INC $B5B7,X
4FD5: BB       ??
4FD6: D8       CLD
4FD7: B2       ??
4FD8: CB       ??
4FD9: B5 A5    LDA $A5,X
4FDB: A1 A3    LDA ($A3,X)
4FDD: 00 00 2B INT $2B00
4FE0: 2D 2A 2F AND $2F2A
4FE3: 5E 3E 3D LSR $3D3E,X
4FE6: 3C       ??
4FE7: 20 00 3A JSR $3A00
4FEA: 3B       ??
4FEB: 2C 22 28 BIT $2822
4FEE: 29 C9    AND #$C9
4FF0: CA       DEX
4FF1: CB       ??
4FF2: CC CD D0 CPY $D0CD
4FF5: D1 D2    CMP ($D2),Y

; table of commands
; each ended with a bit mask 0x80
4FF7: .DB 0x45, 0x4E, 0xC4 ; end
4FFA: .DB 0x46, 0x4f, 0xd2 ; for
4FFD: .DB 0x4E, 0x45, 0x58, 0xd4 ; next
5001: .DB 0x44, 0x41, 0x54, 0xc1 ; data
5005: .DB 0x49, 0x4e, 0x50, 0x55, 0xd4 ; input
500A: .DB 0x44, 0x45, 0xcc ; del
500D: .DB 0x44, 0x49, 0xcd ; dim
5010: .DB 0x52, 0x45, 0x41, 0xc4 ; read
5014: .DB 0x53, 0x57, 0x41, 0xd0 ; swap
5018: .DB 0x54, 0x52, 0x41, 0x43, 0xc5 ; trace
501d: .DB 0x4E, 0x4f, 0x54, 0x52, 0x41, 0x43, 0xc5 ; notrace
5024: .DB 0x50, 0x4f, 0xd0 ; pop
5027: .DB 0x4C, 0x45, 0xd4 ; let
502A: .DB 0x47, 0x4f, 0x54, 0xcf ; goto
502E: .DB 0x52, 0x55, 0xce ; run
5031: .DB 0x49, 0xC6 ; if
5033: .DB 0x52, 0x45, 0x53, 0x54, 0x4f, 0x52, 0xcf ; restore
5039: .DB 0x47, 0x4f, 0x53, 0x55, 0xc2 ; gosub
503F: .DB 0x52, 0x45, 0x54, 0x55, 0x52, 0xce ; return
5045: .DB 0x52, 0x45, 0xcd ; rem
5048: .DB 0x53, 0x54, 0x4f, 0xd0 ; stop
504C: .DB 0x4F, 0xce ; on
504E: .DB 0x44, 0x45, 0xc6 ; def
5051: .DB 0x50, 0x4f, 0x4b, 0xc5 ; poke
5055: .DB 0x50, 0x52, 0x49, 0x4e, 0xd4 ; print
505A: .DB 0x43, 0x4f, 0x4e, 0xd4 ; cont
505e: .DB 0x4C, 0x49, 0x53, 0xd4 ; list
5062: .DB 0x43, 0x4c, 0x45, 0x41, 0xd2 ; clear
5067: .DB 0x4E, 0x45, 0xD7 ; new
506A: .db 0x54, 0x45, 0x58, 0xd4 ; text
506E: .db 0x47, 0x52, 0x41, 0x50, 0xc8 ; graph
5073: .db 0x53, 0x59, 0x53, 0x54, 0x45, 0xcd ; system
5079: .db 0x4E, 0x4F, 0x52, 0x4d, 0x41, 0xcc ; normal
507F: .db 0x49, 0x4E, 0x56, 0x45, 0x52, 0x53, 0xc5 ; inverse
5086: .db 0x46, 0x4c, 0x41, 0x53, 0xc8 ; flash
508B: .db 0x50, 0x4C, 0x41, 0xd9 ; play
508F: .db 0x42, 0x45, 0x45, 0xd0 ; beep
5093: .db 0x49, 0x4e, 0x4b, 0x45, 0x59, 0xa4 ; inkey$
5099: .db 0x4C, 0x4f, 0x41, 0xc4 ; load
509D: .db 0x53, 0x41, 0x56, 0xc5 ; save
50A1: .db 0x4B, 0x49, 0x4c, 0xcc ; kill
50A5: .db 0x46, 0x49, 0x4c, 0x45, 0xd3 ; files
50AA: .db 0x4F, 0x50, 0x45, 0xce ; open
50AE: .db 0x43, 0x4C, 0x4f, 0x53, 0xc5 ; close
50B2: .db 0x57, 0x52, 0x49, 0x54, 0xc5 ; write
50B8: .db 0x46, 0x49, 0x45, 0x4c, 0xc4 ; field
50Bd: .db 0x47, 0x45, 0xd4 ; get
50C0: .db 0x50, 0x55, 0xd4 ; put
50C3: .db 0x4C, 0x53, 0x45, 0xd4 ; lset
50C7: .db 0x52, 0x53, 0x45, 0xd4 ; rset
50CB: .db 0x41, 0x55, 0x54, 0xcf ; auto
50CF: .db 0x4C, 0x4F, 0x43, 0x41, 0x54, 0xc5 ; locate
50D5: .db 0x44, 0x52, 0x41, 0xd7 ; draw
50D9: .db 0x4C, 0x49, 0x4E, 0xc5 ; line
50DD: .db 0x42, 0x4f, 0xd8 ; box
50E0: .db 0x43, 0x49, 0x52, 0x43, 0x4c, 0xc5 ; circle
50E6: .db 0x45, 0x4c, 0x4c, 0x49, 0x50, 0x53, 0xc5 ; ellipse
50ED: .db 0x43, 0x4c, 0xd3 ; cls
50f0: .db 0x45, 0x44, 0x49, 0xd4 ; edit
50F4: .db 0x57, 0x48, 0x49, 0x4c, 0xc5 ; while
50F9: .db 0x57, 0x45, 0x4e, 0xc4 ; wend
50FD: .db 0x43, 0x41, 0x4c, 0xcc ; call
5101: .db 0x52, 0x45, 0x4e, 0x41, 0x4d, 0xc5 ; rename
5107: .db 0x43, 0x4f, 0x50, 0xd9 ; copy
510B: .db 0x54, 0x41, 0xc2 ; tab
510E: .db 0x54, 0xcf ; to
5110: .db 0x46, 0xCE ; fn
5112: .db 0x53, 0x50, 0xc3 ; spc
5116: .db 0x48, 0x45, 0xce ; then
5119: .db 0x45, 0x4C, 0x53, 0xc5 ; else
511d: .db 0x41, 0xd4 ; at
511F: .db 0x4E, 0x4F, 0xD4 ; not
5122: .db 0x53, 0x54, 0x45, 0xd0 ; step
5126: .db 0xAB ; +
5127: .db 0xAD ; -
5128: .db 0xAA ; *
5129: .db 0xAF ; /
512A: .db 0xDE ; ^
512b: .db 0x41, 0x4E, 0xc4 ; and
512E: .db 0x4F, 0xD2 ; or
5130: .db 0xBE ; >
5131: .db 0xBD ; =
5132: .db 0xBC ; <
5133: .db 0x53, 0x47, 0xce ; sgn
5136: .db 0x49, 0x4E, 0xd4 ; int
5139: .db 0x41, 0x42, 0xd3 ; abs
513C: .db 0x50, 0x4F, 0xd3 ; pos
513F: .db 0x53, 0x51, 0xd2 ; sqr
5142: .db 0x52, 0x4e, 0xc4 ; rnd
5145: .db 0x4C, 0x4f, 0xc7 ; log
5148: .db 0x45, 0x58, 0xd0 ; exp
514V: .db 0x43, 0x4f, 0xd3 ; cos
514E: .db 0x53, 0x49, 0xce ; sin
5151: .db 0x54, 0x41, 0xce ; tan
5154: .db 0x41, 0x54, 0xce ; atn
5157: .db 0x50, 0x45, 0x45, 0xcb ; peek
515B: .db 0x4C, 0x45, 0xCE ; len
515E: .db 0x53, 0x54, 0x52, 0xa4 ; str$
5162: .db 0x56, 0x41, 0xcc ; val
5165: .db 0x41, 0x53, 0xc3 ; asc
5168: .db 0x4D, 0x4B, 0x53, 0xa4 ; mks$
516C: .db 0x4D, 0x4b, 0x49, 0xa4 ; mki$
5170: .db 0x43, 0x56, 0x53, 0xa4 ; cvs$
5174: .db 0x43, 0x56, 0x49, 0xa4 ; cvi$
5178: .db 0x4C, 0x4f, 0xc6 ; lof
517B: .db 0x45, 0x4f, 0xc6 ; eof
517e: .db 0x43, 0x48, 0x52, 0xa4 ; chr$
5182: .db 0x4C, 0x45, 0x46, 0x54, 0xa4 ; left$
5187: .db 0x52, 0x49, 0x47, 0x48, 0x54, 0xa4 ; right$
518d: .db 0x4D, 0x49, 0x44, 0xa4 ; mid$
5191: .db 0x00

5192: A2 00    LDX #$00
5194: A0 64    LDY #$64
5196: D0 07    BNE $519F
5198: 20 AC 51 JSR $51AC
519B: A2 50    LDX #$50
519D: A0 14    LDY #$14
519F: A9 00    LDA #$00
51A1: 9D C0 02 STA $02C0,X
51A4: E8       INX
51A5: 88       DEY
51A6: D0 F9    BNE $51A1
51A8: 00 1A C7 INT $C71A
51AB: 60       RTS
51AC: A9 C0    LDA #$C0
51AE: 85 80    STA $80
51B0: A9 23    LDA #$23
51B2: 85 81    STA $81
51B4: A2 00    LDX #$00
51B6: F0 0A    BEQ $51C2
51B8: A5 80    LDA $80
51BA: 69 28    ADC #$28
51BC: 85 80    STA $80
51BE: 90 02    BCC $51C2
51C0: E6 81    INC $81
51C2: A9 00    LDA #$00
51C4: A0 27    LDY #$27
51C6: 91 80    STA ($80),Y
51C8: 88       DEY
51C9: D0 FB    BNE $51C6
51CB: A9 C0    LDA #$C0
51CD: 31 80    AND ($80),Y
51CF: 91 80    STA ($80),Y
51D1: E8       INX
51D2: E0 10    CPX #$10
51D4: 90 E2    BCC $51B8
51D6: 60       RTS

51D7: A0 00    LDY #$00
51D9: B9 E5 51 LDA $51E5,Y
51DC: 99 00 BF STA $BF00,Y
51DF: C8       INY
51E0: D0 F7    BNE $51D9
51E2: 4C 00 BF JMP $BF00

51E5: A9 00    LDA #$00
51E7: 8D D1 08 STA $08D1
51EA: A9 00    LDA #$00
51EC: 8D CD 08 STA $08CD
51EF: 8D D0 08 STA $08D0
51F2: A9 30    LDA #$30
51F4: 8D CE 08 STA $08CE
51F7: A9 00    LDA #$00
51F9: 8D CF 08 STA $08CF
51FC: 00 27 05 INT $0527
51FF: B0 4C    BCS $524D
5201: A9 00    LDA #$00
5203: 85 E0    STA $E0
5205: A9 60    LDA #$60
5207: 85 E1    STA $E1
5209: A9 00    LDA #$00
520B: 8D C6 08 STA $08C6
520E: A9 52    LDA #$52
5210: 8D C7 08 STA $08C7
5213: 00 26 05 INT $0526
5216: B0 36    BCS $524E
5218: 20 00 60 JSR $6000
521B: 00 23 05 INT $0523
521E: A9 00    LDA #$00
5220: 8D D1 08 STA $08D1
5223: A9 00    LDA #$00
5225: 8D CD 08 STA $08CD
5228: 8D CF 08 STA $08CF
522B: 8D D0 08 STA $08D0
522E: A9 04    LDA #$04
5230: 8D CE 08 STA $08CE
5233: 00 27 05 INT $0527
5236: A9 00    LDA #$00
5238: 85 E0    STA $E0
523A: A9 44    LDA #$44
523C: 85 E1    STA $E1
523E: A9 00    LDA #$00
5240: 8D C6 08 STA $08C6
5243: A9 6C    LDA #$6C
5245: 8D C7 08 STA $08C7
5248: 00 26 05 INT $0526
524B: B0 01    BCS $524E
524D: 60       RTS
524E: A2 64    LDX #$64
5250: BD AC 52 LDA $52AC,X
5253: 9D BF 02 STA $02BF,X
5256: CA       DEX
5257: D0 F7    BNE $5250
5259: A9 FF    LDA #$FF
525B: 8D AF 03 STA $03AF
525E: A9 FF    LDA #$FF
5260: 8D B0 03 STA $03B0
5263: 00 19 C7 INT $C719
5266: 00 06 C0 INT $C006
5269: 4C 66 52 JMP $5266
526C: A0 00    LDY #$00
526E: B9 7A 52 LDA $527A,Y
5271: 99 00 BF STA $BF00,Y
5274: C8       INY
5275: D0 F7    BNE $526E
5277: 4C 00 BF JMP $BF00
527A: AD 28 B8 LDA $B828
527D: 85 0A    STA $0A
527F: A9 00    LDA #$00
5281: 8D D1 08 STA $08D1
5284: A9 00    LDA #$00
5286: 8D CD 08 STA $08CD
5289: 8D CE 08 STA $08CE
528C: 8D CF 08 STA $08CF
528F: 8D D0 08 STA $08D0
5292: 00 27 05 INT $0527
5295: A9 00    LDA #$00
5297: 85 E0    STA $E0
5299: A9 40    LDA #$40
529B: 85 E1    STA $E1
529D: A9 00    LDA #$00
529F: 8D C6 08 STA $08C6
52A2: A9 7E    LDA #$7E
52A4: 8D C7 08 STA $08C7
52A7: 00 26 05 INT $0526
52AA: B0 A2    BCS $524E
52AC: 60       RTS
52AD: 2D 2D 2D AND $2D2D
52B0: 2D 2D 2D AND $2D2D
52B3: 2D 2D 2D AND $2D2D
52B6: 2D 2D 2D AND $2D2D
52B9: 2D 2D 2D AND $2D2D
52BC: 2D 2D 2D AND $2D2D
52BF: 2D 2D 20 AND $202D
52C2: 20 20 20 JSR $2020
52C5: CE C4 BC DEC $BCC4
52C8: FE BC D3 INC $D3BC,X
52CB: D4       ??
52CC: D8       CLD
52CD: B4 ED    LDY $ED,X
52CF: CE F3 20 DEC $20F3
52D2: 20 20 20 JSR $2020
52D5: 20 20 C7 JSR $C720
52D8: EB       ??
52D9: D6 D8    DEC $D8,X
52DB: D0 C2    BNE $529F
52DD: C9 FD    CMP #$FD
52DF: BC B6 B4 LDY $B4B6,X
52E2: CB       ??
52E3: CE C4 BC DEC $BCC4
52E6: FE 20 20 INC $2020,X
52E9: 20 20 20 JSR $2020
52EC: 20 20 20 JSR $2020
52EF: 20 20 20 JSR $2020
52F2: 20 20 20 JSR $2020
52F5: 20 20 20 JSR $2020
52F8: 20 20 20 JSR $2020
52FB: 20 20 2D JSR $2D20
52FE: 2D 2D 2D AND $2D2D
5301: 2D 2D 2D AND $2D2D
5304: 2D 2D 2D AND $2D2D
5307: 2D 2D 2D AND $2D2D
530A: 2D 2D 2D AND $2D2D
530D: 2D 2D 2D AND $2D2D
5310: 2D 20 49 AND $4920
5313: 6D A9 00 ADC $00A9
5316: 85 53    STA $53
5318: A9 70    LDA #$70
531A: 85 54    STA $54
531C: A9 03    LDA #$03
531E: 8D 58 BA STA $BA58
5321: A9 70    LDA #$70
5323: 8D 59 BA STA $BA59
5326: A9 80    LDA #$80
5328: 85 52    STA $52
532A: A9 0A    LDA #$0A
532C: 8D 5A BA STA $BA5A
532F: A9 00    LDA #$00
5331: 8D 5B BA STA $BA5B
5334: A9 00    LDA #$00
5336: 8D 79 BA STA $BA79
5339: A9 00    LDA #$00
533B: 8D 7A BA STA $BA7A
533E: AD 91 03 LDA $0391
5341: 09 01    ORA #$01
5343: 8D 91 03 STA $0391
5346: A9 00    LDA #$00
5348: 8D 47 04 STA $0447
534B: A9 20    LDA #$20
534D: 0D 48 04 ORA $0448
5350: 8D 48 04 STA $0448
5353: 20 DD 54 JSR $54DD
5356: 60       RTS
5357: 20 49 6D JSR $6D49
535A: A9 0A    LDA #$0A
535C: 8D 5A BA STA $BA5A
535F: A9 00    LDA #$00
5361: 8D 5B BA STA $BA5B
5364: A9 00    LDA #$00
5366: 8D 79 BA STA $BA79
5369: A9 00    LDA #$00
536B: 8D 7A BA STA $BA7A
536E: AD 77 BA LDA $BA77
5371: 85 80    STA $80
5373: AD 78 BA LDA $BA78
5376: 85 81    STA $81
5378: 20 DC 67 JSR $67DC
537B: 00 17 05 INT $0517
537E: 20 FA 68 JSR $68FA
5381: 20 4D 62 JSR $624D
5384: A9 00    LDA #$00
5386: 85 53    STA $53
5388: A9 70    LDA #$70
538A: 85 54    STA $54
538C: AD 91 03 LDA $0391
538F: 09 01    ORA #$01
5391: 8D 91 03 STA $0391
5394: A9 00    LDA #$00
5396: 8D 47 04 STA $0447
5399: A9 20    LDA #$20
539B: 0D 48 04 ORA $0448
539E: 8D 48 04 STA $0448
53A1: 20 DD 54 JSR $54DD
53A4: 60       RTS
53A5: 20 C6 53 JSR $53C6
53A8: A9 00    LDA #$00
53AA: 8D 79 BA STA $BA79
53AD: A9 00    LDA #$00
53AF: 8D 7A BA STA $BA7A
53B2: 8D 5C BA STA $BA5C
53B5: AD 77 BA LDA $BA77
53B8: 85 80    STA $80
53BA: AD 78 BA LDA $BA78
53BD: 85 81    STA $81
53BF: 20 DC 67 JSR $67DC
53C2: 20 DD 54 JSR $54DD
53C5: 60       RTS
53C6: A2 10    LDX #$10
53C8: A9 00    LDA #$00
53CA: 9D 7C BA STA $BA7C,X
53CD: CA       DEX
53CE: D0 F8    BNE $53C8
53D0: A9 00    LDA #$00
53D2: 8D 7C BA STA $BA7C
53D5: 8D 7B BA STA $BA7B
53D8: A9 00    LDA #$00
53DA: 8D 79 BA STA $BA79
53DD: A9 00    LDA #$00
53DF: 8D 7A BA STA $BA7A
53E2: A9 00    LDA #$00
53E4: 85 80    STA $80
53E6: A9 02    LDA #$02
53E8: 85 81    STA $81
53EA: 20 DC 67 JSR $67DC
53ED: 20 80 62 JSR $6280
53F0: A5 82    LDA $82
53F2: 85 53    STA $53
53F4: A5 83    LDA $83
53F6: 85 54    STA $54
53F8: AD 7C BA LDA $BA7C
53FB: 0A       ASL
53FC: AA       TAX
53FD: A5 82    LDA $82
53FF: 9D 7D BA STA $BA7D,X
5402: A5 83    LDA $83
5404: 9D 7E BA STA $BA7E,X
5407: 20 74 54 JSR $5474
540A: 90 67    BCC $5473
540C: A9 00    LDA #$00
540E: 85 80    STA $80
5410: A9 40    LDA #$40
5412: 85 81    STA $81
5414: 20 DC 67 JSR $67DC
5417: E6 82    INC $82
5419: D0 02    BNE $541D
541B: E6 83    INC $83
541D: A5 82    LDA $82
541F: 85 66    STA $66
5421: A5 83    LDA $83
5423: 85 67    STA $67
5425: 20 47 6C JSR $6C47
5428: A5 68    LDA $68
542A: 85 80    STA $80
542C: A5 69    LDA $69
542E: 85 81    STA $81
5430: A0 00    LDY #$00
5432: B1 80    LDA ($80),Y
5434: 85 66    STA $66
5436: C8       INY
5437: B1 80    LDA ($80),Y
5439: 85 67    STA $67
543B: 05 66    ORA $66
543D: F0 34    BEQ $5473
543F: 20 47 6C JSR $6C47
5442: A5 69    LDA $69
5444: C9 AF    CMP #$AF
5446: D0 04    BNE $544C
5448: A5 68    LDA $68
544A: C9 00    CMP #$00
544C: 90 DA    BCC $5428
544E: A5 66    LDA $66
5450: D0 02    BNE $5454
5452: C6 67    DEC $67
5454: C6 66    DEC $66
5456: A5 66    LDA $66
5458: 85 82    STA $82
545A: A5 67    LDA $67
545C: 85 83    STA $83
545E: 38       SEC
545F: A5 66    LDA $66
5461: E5 53    SBC $53
5463: 8D 79 BA STA $BA79
5466: A5 67    LDA $67
5468: E5 54    SBC $54
546A: 8D 7A BA STA $BA7A
546D: EE 7C BA INC $BA7C
5470: 4C F8 53 JMP $53F8
5473: 60       RTS
5474: 00 14 05 INT $0514
5477: 38       SEC
5478: AD FB 08 LDA $08FB
547B: ED 79 BA SBC $BA79
547E: 8D FB 08 STA $08FB
5481: AD FC 08 LDA $08FC
5484: ED 7A BA SBC $BA7A
5487: 8D FC 08 STA $08FC
548A: AD FC 08 LDA $08FC
548D: C9 40    CMP #$40
548F: D0 05    BNE $5496
5491: AD FB 08 LDA $08FB
5494: C9 00    CMP #$00
5496: F0 01    BEQ $5499
5498: 60       RTS
5499: 18       CLC
549A: 60       RTS
549B: 18       CLC
549C: A5 48    LDA $48
549E: 69 14    ADC #$14
54A0: 85 48    STA $48
54A2: 90 02    BCC $54A6
54A4: E6 49    INC $49
54A6: E6 6D    INC $6D
54A8: E6 6F    INC $6F
54AA: A6 6F    LDX $6F
54AC: 8A       TXA
54AD: A6 6D    LDX $6D
54AF: 9D 48 BA STA $BA48,X
54B2: A6 6E    LDX $6E
54B4: 20 BF 68 JSR $68BF
54B7: A2 0A    LDX #$0A
54B9: A9 00    LDA #$00
54BB: 20 2F 6C JSR $6C2F
54BE: A0 FF    LDY #$FF
54C0: C8       INY
54C1: B5 82    LDA $82,X
54C3: 91 4E    STA ($4E),Y
54C5: E8       INX
54C6: E0 05    CPX #$05
54C8: D0 F6    BNE $54C0
54CA: C8       INY
54CB: A9 20    LDA #$20
54CD: 91 4E    STA ($4E),Y
54CF: C8       INY
54D0: 8C B4 03 STY $03B4
54D3: 84 50    STY $50
54D5: 84 70    STY $70
54D7: A9 FF    LDA #$FF
54D9: 8D 5C BA STA $BA5C
54DC: 60       RTS
54DD: 8A       TXA
54DE: 48       PHA
54DF: A9 00    LDA #$00
54E1: A2 09    LDX #$09
54E3: 9D 88 03 STA $0388,X
54E6: CA       DEX
54E7: D0 FA    BNE $54E3
54E9: 68       PLA
54EA: AA       TAX
54EB: 00 2A C7 INT $C72A
54EE: 20 2B 69 JSR $692B
54F1: A9 00    LDA #$00
54F3: 8D B3 03 STA $03B3
54F6: 20 76 68 JSR $6876
54F9: A5 53    LDA $53
54FB: 85 66    STA $66
54FD: A5 54    LDA $54
54FF: 85 67    STA $67
5501: E6 66    INC $66
5503: D0 02    BNE $5507
5505: E6 67    INC $67
5507: 20 47 6C JSR $6C47
550A: A5 68    LDA $68
550C: 85 40    STA $40
550E: A5 69    LDA $69
5510: 85 41    STA $41
5512: 20 31 68 JSR $6831
5515: A5 47    LDA $47
5517: C5 69    CMP $69
5519: D0 04    BNE $551F
551B: A5 46    LDA $46
551D: C5 68    CMP $68
551F: D0 06    BNE $5527
5521: 20 9B 54 JSR $549B
5524: 4C 2E 55 JMP $552E
5527: 20 BF 68 JSR $68BF
552A: A9 00    LDA #$00
552C: 85 50    STA $50
552E: 20 5F 67 JSR $675F
5531: 20 62 6D JSR $6D62
5534: A9 FF    LDA #$FF
5536: 8D AF 03 STA $03AF
5539: A9 FF    LDA #$FF
553B: 8D B0 03 STA $03B0
553E: 00 19 C7 INT $C719
5541: 24 52    BIT $52
5543: 10 10    BPL $5555
5545: AD B4 03 LDA $03B4
5548: 85 72    STA $72
554A: AD B5 03 LDA $03B5
554D: 85 73    STA $73
554F: 00 01 07 INT $0701
5552: 4C 58 55 JMP $5558
5555: 00 06 C0 INT $C006
5558: AA       TAX
5559: F0 D3    BEQ $552E
555B: 85 55    STA $55
555D: 24 52    BIT $52
555F: 10 1D    BPL $557E
5561: A5 55    LDA $55
5563: 30 13    BMI $5578
5565: C9 1B    CMP #$1B
5567: F0 15    BEQ $557E
5569: A0 FF    LDY #$FF
556B: C8       INY
556C: C0 0F    CPY #$0F
556E: F0 08    BEQ $5578
5570: D9 8F 55 CMP $558F,Y
5573: D0 F6    BNE $556B
5575: 4C 7E 55 JMP $557E
5578: 20 FB 63 JSR $63FB
557B: 4C 2E 55 JMP $552E
557E: AA       TAX
557F: A0 0F    LDY #$0F
5581: A9 8F    LDA #$8F
5583: 85 80    STA $80
5585: A9 55    LDA #$55
5587: 85 81    STA $81
5589: 20 39 E0 JSR $E039
558C: 4C 2E 55 JMP $552E
558F: 17       ??
5590: 16 14    ASL $14,X
5592: 15 13    ORA $13,X
5594: 0E 0D 30 ASL $300D
5597: 1A       ??
5598: 1C       ??
5599: 1D 1E 1F ORA $1F1E,X
559C: 19 0F 82 ORA $820F,Y
559F: 56 E5    LSR $E5,X
55A1: 56 23    LSR $23,X
55A3: 57       ??
55A4: 8D 57 E3 STA $E357
55A7: 57       ??
55A8: E7       ??
55A9: 57       ??
55AA: EB       ??
55AB: 57       ??
55AC: A0 5C    LDY #$5C
55AE: C3       ??
55AF: 5C       ??
55B0: BC 55 D2 LDY $D255,X
55B3: 55 7A    EOR $7A,X
55B5: 56 7E    LSR $7E,X
55B7: 56 06    LSR $06,X
55B9: 5D 44 5D EOR $5D44,X
55BC: 24 52    BIT $52
55BE: 30 03    BMI $55C3
55C0: 4C 12 E0 JMP $E012
55C3: A5 52    LDA $52
55C5: 49 40    EOR #$40
55C7: 85 52    STA $52
55C9: AD B3 03 LDA $03B3
55CC: 49 08    EOR #$08
55CE: 8D B3 03 STA $03B3
55D1: 60       RTS
55D2: 24 52    BIT $52
55D4: 30 03    BMI $55D9
55D6: 4C 12 E0 JMP $E012
55D9: A9 FF    LDA #$FF
55DB: 8D 5C BA STA $BA5C
55DE: 8D 57 BA STA $BA57
55E1: A5 70    LDA $70
55E3: D0 2A    BNE $560F
55E5: A6 6E    LDX $6E
55E7: 20 EC 61 JSR $61EC
55EA: 08       PHP
55EB: A5 80    LDA $80
55ED: 85 5D    STA $5D
55EF: A5 81    LDA $81
55F1: 85 5E    STA $5E
55F3: 28       PLP
55F4: F0 13    BEQ $5609
55F6: 20 B3 62 JSR $62B3
55F9: 84 57    STY $57
55FB: 20 0B 5E JSR $5E0B
55FE: 20 FA 68 JSR $68FA
5601: 20 86 5C JSR $5C86
5604: F0 03    BEQ $5609
5606: 4C A2 58 JMP $58A2
5609: 20 46 56 JSR $5646
560C: 4C 8E 56 JMP $568E
560F: C5 50    CMP $50
5611: D0 06    BNE $5619
5613: 20 98 5F JSR $5F98
5616: 4C 2E 56 JMP $562E
5619: A4 50    LDY $50
561B: 88       DEY
561C: B1 4E    LDA ($4E),Y
561E: C9 1E    CMP #$1E
5620: D0 0C    BNE $562E
5622: C8       INY
5623: C8       INY
5624: C8       INY
5625: B1 4E    LDA ($4E),Y
5627: 30 05    BMI $562E
5629: C6 50    DEC $50
562B: 20 BF 67 JSR $67BF
562E: A2 FF    LDX #$FF
5630: A4 50    LDY $50
5632: B1 4E    LDA ($4E),Y
5634: 30 08    BMI $563E
5636: C9 1E    CMP #$1E
5638: D0 06    BNE $5640
563A: A2 FD    LDX #$FD
563C: D0 02    BNE $5640
563E: A2 FE    LDX #$FE
5640: 86 57    STX $57
5642: 20 B1 64 JSR $64B1
5645: 60       RTS
5646: A5 5E    LDA $5E
5648: C9 70    CMP #$70
564A: D0 04    BNE $5650
564C: A5 5D    LDA $5D
564E: C9 01    CMP #$01
5650: D0 01    BNE $5653
5652: 60       RTS
5653: C6 6D    DEC $6D
5655: C6 6F    DEC $6F
5657: A6 6D    LDX $6D
5659: 20 EC 61 JSR $61EC
565C: A5 80    LDA $80
565E: 85 46    STA $46
5660: A5 81    LDA $81
5662: 85 47    STA $47
5664: 38       SEC
5665: A5 48    LDA $48
5667: E9 14    SBC #$14
5669: 85 48    STA $48
566B: A5 49    LDA $49
566D: E9 00    SBC #$00
566F: 85 49    STA $49
5671: 20 AE 63 JSR $63AE
5674: A9 00    LDA #$00
5676: 8D 5C BA STA $BA5C
5679: 60       RTS
567A: 20 12 E0 JSR $E012
567D: 60       RTS
567E: 20 12 E0 JSR $E012
5681: 60       RTS
5682: A5 50    LDA $50
5684: D0 29    BNE $56AF
5686: AD 5C BA LDA $BA5C
5689: F0 03    BEQ $568E
568B: 4C EB 57 JMP $57EB
568E: 20 CF 5F JSR $5FCF
5691: B0 01    BCS $5694
5693: 60       RTS
5694: 38       SEC
5695: A6 6E    LDX $6E
5697: BD 49 BA LDA $BA49,X
569A: FD 48 BA SBC $BA48,X
569D: AA       TAX
569E: 38       SEC
569F: BD C2 6E LDA $6EC2,X
56A2: E5 70    SBC $70
56A4: E9 14    SBC #$14
56A6: 38       SEC
56A7: 49 FF    EOR #$FF
56A9: 69 00    ADC #$00
56AB: 8D B4 03 STA $03B4
56AE: 60       RTS
56AF: AD B4 03 LDA $03B4
56B2: D0 21    BNE $56D5
56B4: AE B5 03 LDX $03B5
56B7: CA       DEX
56B8: 10 05    BPL $56BF
56BA: 20 86 60 JSR $6086
56BD: A2 00    LDX #$00
56BF: 8E B5 03 STX $03B5
56C2: A9 14    LDA #$14
56C4: 8D B4 03 STA $03B4
56C7: A4 50    LDY $50
56C9: 88       DEY
56CA: B1 4E    LDA ($4E),Y
56CC: C9 1E    CMP #$1E
56CE: D0 05    BNE $56D5
56D0: C6 50    DEC $50
56D2: CE B4 03 DEC $03B4
56D5: 20 B7 5F JSR $5FB7
56D8: D0 05    BNE $56DF
56DA: C6 50    DEC $50
56DC: 20 BF 67 JSR $67BF
56DF: C6 50    DEC $50
56E1: 20 BF 67 JSR $67BF
56E4: 60       RTS
56E5: A4 50    LDY $50
56E7: C4 70    CPY $70
56E9: 90 14    BCC $56FF
56EB: AD 5C BA LDA $BA5C
56EE: F0 03    BEQ $56F3
56F0: 4C EB 57 JMP $57EB
56F3: 20 D9 63 JSR $63D9
56F6: B0 01    BCS $56F9
56F8: 60       RTS
56F9: A9 00    LDA #$00
56FB: 8D B4 03 STA $03B4
56FE: 60       RTS
56FF: B1 4E    LDA ($4E),Y
5701: 10 05    BPL $5708
5703: E6 50    INC $50
5705: 20 97 67 JSR $6797
5708: E6 50    INC $50
570A: 20 97 67 JSR $6797
570D: AD B4 03 LDA $03B4
5710: C9 13    CMP #$13
5712: F0 01    BEQ $5715
5714: 60       RTS
5715: A4 50    LDY $50
5717: B1 4E    LDA ($4E),Y
5719: C9 1E    CMP #$1E
571B: F0 01    BEQ $571E
571D: 60       RTS
571E: E6 50    INC $50
5720: 4C 97 67 JMP $6797
5723: A5 50    LDA $50
5725: C9 14    CMP #$14
5727: 90 38    BCC $5761
5729: AE B5 03 LDX $03B5
572C: CA       DEX
572D: 10 05    BPL $5734
572F: 20 86 60 JSR $6086
5732: A2 00    LDX #$00
5734: 8E B5 03 STX $03B5
5737: 38       SEC
5738: A5 50    LDA $50
573A: E9 14    SBC #$14
573C: 85 50    STA $50
573E: AD B4 03 LDA $03B4
5741: D0 01    BNE $5744
5743: 60       RTS
5744: C9 13    CMP #$13
5746: D0 0D    BNE $5755
5748: A4 50    LDY $50
574A: B1 4E    LDA ($4E),Y
574C: C9 1E    CMP #$1E
574E: D0 05    BNE $5755
5750: C6 50    DEC $50
5752: CE B4 03 DEC $03B4
5755: 20 C9 5F JSR $5FC9
5758: D0 01    BNE $575B
575A: 60       RTS
575B: C6 50    DEC $50
575D: CE B4 03 DEC $03B4
5760: 60       RTS
5761: AD 5C BA LDA $BA5C
5764: F0 03    BEQ $5769
5766: 4C EB 57 JMP $57EB
5769: 20 CF 5F JSR $5FCF
576C: B0 01    BCS $576F
576E: 60       RTS
576F: 18       CLC
5770: A5 70    LDA $70
5772: 69 14    ADC #$14
5774: 38       SEC
5775: E5 71    SBC $71
5777: AA       TAX
5778: ED B4 03 SBC $03B4
577B: B0 04    BCS $5781
577D: 8E B4 03 STX $03B4
5780: 60       RTS
5781: 85 57    STA $57
5783: 38       SEC
5784: A5 70    LDA $70
5786: E5 57    SBC $57
5788: 85 50    STA $50
578A: 4C 3E 57 JMP $573E
578D: 38       SEC
578E: A9 14    LDA #$14
5790: ED B4 03 SBC $03B4
5793: 85 57    STA $57
5795: A5 70    LDA $70
5797: E5 50    SBC $50
5799: C5 57    CMP $57
579B: B0 17    BCS $57B4
579D: AD 5C BA LDA $BA5C
57A0: F0 03    BEQ $57A5
57A2: 4C EB 57 JMP $57EB
57A5: 20 D9 63 JSR $63D9
57A8: B0 01    BCS $57AB
57AA: 60       RTS
57AB: AD B4 03 LDA $03B4
57AE: AE B5 03 LDX $03B5
57B1: 4C C7 57 JMP $57C7
57B4: AE B5 03 LDX $03B5
57B7: E8       INX
57B8: E4 51    CPX $51
57BA: 90 06    BCC $57C2
57BC: 20 FE 62 JSR $62FE
57BF: AE B5 03 LDX $03B5
57C2: 18       CLC
57C3: A5 50    LDA $50
57C5: 69 14    ADC #$14
57C7: C5 70    CMP $70
57C9: 90 10    BCC $57DB
57CB: F0 0E    BEQ $57DB
57CD: E5 70    SBC $70
57CF: 85 57    STA $57
57D1: AD B4 03 LDA $03B4
57D4: E5 57    SBC $57
57D6: 8D B4 03 STA $03B4
57D9: A5 70    LDA $70
57DB: 85 50    STA $50
57DD: 8E B5 03 STX $03B5
57E0: 4C 3E 57 JMP $573E
57E3: 20 12 E0 JSR $E012
57E6: 60       RTS
57E7: 20 12 E0 JSR $E012
57EA: 60       RTS
57EB: A5 70    LDA $70
57ED: F0 03    BEQ $57F2
57EF: 4C 40 59 JMP $5940
57F2: A6 6E    LDX $6E
57F4: 20 EC 61 JSR $61EC
57F7: F0 03    BEQ $57FC
57F9: 4C 87 58 JMP $5887
57FC: A5 80    LDA $80
57FE: 85 5D    STA $5D
5800: A5 81    LDA $81
5802: 85 5E    STA $5E
5804: A5 55    LDA $55
5806: C9 17    CMP #$17
5808: D0 03    BNE $580D
580A: 4C 09 56 JMP $5609
580D: C9 14    CMP #$14
580F: D0 3F    BNE $5850
5811: A5 5E    LDA $5E
5813: C9 70    CMP #$70
5815: D0 04    BNE $581B
5817: A5 5D    LDA $5D
5819: C9 01    CMP #$01
581B: D0 01    BNE $581E
581D: 60       RTS
581E: A5 5E    LDA $5E
5820: C5 45    CMP $45
5822: D0 04    BNE $5828
5824: A5 5D    LDA $5D
5826: C5 44    CMP $44
5828: D0 20    BNE $584A
582A: C6 6D    DEC $6D
582C: C6 6F    DEC $6F
582E: C6 6E    DEC $6E
5830: A9 8E    LDA #$8E
5832: 85 48    STA $48
5834: A9 B8    LDA #$B8
5836: 85 49    STA $49
5838: 20 DC 60 JSR $60DC
583B: 20 BF 68 JSR $68BF
583E: A5 70    LDA $70
5840: 85 50    STA $50
5842: A9 00    LDA #$00
5844: 8D 5C BA STA $BA5C
5847: 4C 6F 57 JMP $576F
584A: 20 46 56 JSR $5646
584D: 4C 69 57 JMP $5769
5850: A5 81    LDA $81
5852: C9 70    CMP #$70
5854: D0 04    BNE $585A
5856: A5 80    LDA $80
5858: C9 01    CMP #$01
585A: D0 0B    BNE $5867
585C: A9 0A    LDA #$0A
585E: 85 86    STA $86
5860: A9 00    LDA #$00
5862: 85 87    STA $87
5864: 4C 0C 5C JMP $5C0C
5867: A5 80    LDA $80
5869: 85 82    STA $82
586B: A5 81    LDA $81
586D: 85 83    STA $83
586F: 20 98 61 JSR $6198
5872: 18       CLC
5873: A0 02    LDY #$02
5875: B1 80    LDA ($80),Y
5877: 6D 5A BA ADC $BA5A
587A: 85 86    STA $86
587C: C8       INY
587D: B1 80    LDA ($80),Y
587F: 6D 5B BA ADC $BA5B
5882: 85 87    STA $87
5884: 4C 0C 5C JMP $5C0C
5887: A5 80    LDA $80
5889: 85 5D    STA $5D
588B: A5 81    LDA $81
588D: 85 5E    STA $5E
588F: 20 B3 62 JSR $62B3
5892: 84 57    STY $57
5894: 20 0B 5E JSR $5E0B
5897: 20 FA 68 JSR $68FA
589A: 20 86 5C JSR $5C86
589D: D0 03    BNE $58A2
589F: 4C 04 58 JMP $5804
58A2: A6 6E    LDX $6E
58A4: E8       INX
58A5: BD 48 BA LDA $BA48,X
58A8: 38       SEC
58A9: CA       DEX
58AA: FD 48 BA SBC $BA48,X
58AD: A8       TAY
58AE: 85 57    STA $57
58B0: B9 C2 6E LDA $6EC2,Y
58B3: 85 6A    STA $6A
58B5: A6 6E    LDX $6E
58B7: 20 05 6C JSR $6C05
58BA: 20 89 66 JSR $6689
58BD: 18       CLC
58BE: A5 80    LDA $80
58C0: 65 6A    ADC $6A
58C2: 85 80    STA $80
58C4: 90 02    BCC $58C8
58C6: E6 81    INC $81
58C8: 20 7F 66 JSR $667F
58CB: A5 48    LDA $48
58CD: 85 82    STA $82
58CF: A5 49    LDA $49
58D1: 85 83    STA $83
58D3: A5 81    LDA $81
58D5: C5 83    CMP $83
58D7: D0 04    BNE $58DD
58D9: A5 80    LDA $80
58DB: C5 82    CMP $82
58DD: F0 03    BEQ $58E2
58DF: 20 C1 6C JSR $6CC1
58E2: A6 6E    LDX $6E
58E4: E8       INX
58E5: 38       SEC
58E6: BD 48 BA LDA $BA48,X
58E9: E5 57    SBC $57
58EB: 9D 47 BA STA $BA47,X
58EE: E4 6D    CPX $6D
58F0: 90 F2    BCC $58E4
58F2: A9 00    LDA #$00
58F4: 9D 48 BA STA $BA48,X
58F7: C6 6D    DEC $6D
58F9: A6 6D    LDX $6D
58FB: BD 48 BA LDA $BA48,X
58FE: 85 6F    STA $6F
5900: A6 6D    LDX $6D
5902: 20 EC 61 JSR $61EC
5905: A5 80    LDA $80
5907: 85 46    STA $46
5909: A5 81    LDA $81
590B: 85 47    STA $47
590D: 38       SEC
590E: A5 48    LDA $48
5910: E5 6A    SBC $6A
5912: 85 48    STA $48
5914: A5 49    LDA $49
5916: E9 00    SBC #$00
5918: 85 49    STA $49
591A: 20 AE 63 JSR $63AE
591D: 20 55 63 JSR $6355
5920: 20 BF 68 JSR $68BF
5923: A9 00    LDA #$00
5925: 8D 5C BA STA $BA5C
5928: A5 55    LDA $55
592A: C9 17    CMP #$17
592C: D0 03    BNE $5931
592E: 4C 8E 56 JMP $568E
5931: C9 14    CMP #$14
5933: D0 03    BNE $5938
5935: 4C 69 57 JMP $5769
5938: C9 15    CMP #$15
593A: D0 03    BNE $593F
593C: 4C AB 57 JMP $57AB
593F: 60       RTS
5940: A5 4E    LDA $4E
5942: 85 5B    STA $5B
5944: A5 4F    LDA $4F
5946: 85 5C    STA $5C
5948: A5 5B    LDA $5B
594A: D0 02    BNE $594E
594C: C6 5C    DEC $5C
594E: C6 5B    DEC $5B
5950: 20 48 5D JSR $5D48
5953: B0 44    BCS $5999
5955: 20 5D 5D JSR $5D5D
5958: 90 3F    BCC $5999
595A: C9 20    CMP #$20
595C: F0 30    BEQ $598E
595E: A4 70    LDY $70
5960: C0 5E    CPY #$5E
5962: 90 2A    BCC $598E
5964: 88       DEY
5965: C0 5D    CPY #$5D
5967: F0 06    BEQ $596F
5969: A9 00    LDA #$00
596B: 91 4E    STA ($4E),Y
596D: F0 F5    BEQ $5964
596F: A5 50    LDA $50
5971: 48       PHA
5972: A0 5E    LDY #$5E
5974: 84 50    STY $50
5976: 20 B7 5F JSR $5FB7
5979: D0 0A    BNE $5985
597B: C4 50    CPY $50
597D: D0 06    BNE $5985
597F: A9 00    LDA #$00
5981: A0 5C    LDY #$5C
5983: 91 4E    STA ($4E),Y
5985: 68       PLA
5986: 85 50    STA $50
5988: A9 00    LDA #$00
598A: A0 5D    LDY #$5D
598C: 91 4E    STA ($4E),Y
598E: A5 40    LDA $40
5990: 85 86    STA $86
5992: A5 41    LDA $41
5994: 85 87    STA $87
5996: 4C C3 59 JMP $59C3
5999: AD B5 03 LDA $03B5
599C: 48       PHA
599D: AD B3 03 LDA $03B3
59A0: 48       PHA
59A1: AD 91 03 LDA $0391
59A4: 48       PHA
59A5: A9 00    LDA #$00
59A7: 8D 32 0A STA $0A32
59AA: A2 D9    LDX #$D9
59AC: A0 6E    LDY #$6E
59AE: A9 00    LDA #$00
59B0: 00 12 CA INT $CA12
59B3: 20 2A E0 JSR $E02A
59B6: 68       PLA
59B7: 8D 91 03 STA $0391
59BA: 68       PLA
59BB: 8D B3 03 STA $03B3
59BE: 68       PLA
59BF: 8D B5 03 STA $03B5
59C2: 60       RTS
59C3: AD 5C BA LDA $BA5C
59C6: D0 03    BNE $59CB
59C8: 4C 89 5B JMP $5B89
59CB: AD 91 03 LDA $0391
59CE: 09 01    ORA #$01
59D0: 8D 91 03 STA $0391
59D3: AD 47 04 LDA $0447
59D6: C9 02    CMP #$02
59D8: D0 13    BNE $59ED
59DA: A9 05    LDA #$05
59DC: 85 51    STA $51
59DE: A5 40    LDA $40
59E0: 48       PHA
59E1: A5 41    LDA $41
59E3: 48       PHA
59E4: 20 4A 63 JSR $634A
59E7: 68       PLA
59E8: 85 41    STA $41
59EA: 68       PLA
59EB: 85 40    STA $40
59ED: A9 00    LDA #$00
59EF: 8D 47 04 STA $0447
59F2: A9 20    LDA #$20
59F4: 0D 48 04 ORA $0448
59F7: 8D 48 04 STA $0448
59FA: A9 00    LDA #$00
59FC: 8D BA B9 STA $B9BA
59FF: 20 A1 5D JSR $5DA1
5A02: 20 D9 5D JSR $5DD9
5A05: 90 35    BCC $5A3C
5A07: A5 5D    LDA $5D
5A09: 85 80    STA $80
5A0B: A5 5E    LDA $5E
5A0D: 85 81    STA $81
5A0F: 20 B3 62 JSR $62B3
5A12: 84 57    STY $57
5A14: 98       TYA
5A15: 38       SEC
5A16: E5 59    SBC $59
5A18: B0 1C    BCS $5A36
5A1A: 49 FF    EOR #$FF
5A1C: 69 01    ADC #$01
5A1E: 6D 58 BA ADC $BA58
5A21: 85 80    STA $80
5A23: AD 59 BA LDA $BA59
5A26: 69 00    ADC #$00
5A28: 85 81    STA $81
5A2A: A5 81    LDA $81
5A2C: C9 B0    CMP #$B0
5A2E: D0 04    BNE $5A34
5A30: A5 80    LDA $80
5A32: C9 00    CMP #$00
5A34: B0 21    BCS $5A57
5A36: 20 0B 5E JSR $5E0B
5A39: 4C 58 5A JMP $5A58
5A3C: 18       CLC
5A3D: AD 58 BA LDA $BA58
5A40: 65 59    ADC $59
5A42: 85 80    STA $80
5A44: AD 59 BA LDA $BA59
5A47: 69 00    ADC #$00
5A49: 85 81    STA $81
5A4B: A5 81    LDA $81
5A4D: C9 B0    CMP #$B0
5A4F: D0 04    BNE $5A55
5A51: A5 80    LDA $80
5A53: C9 00    CMP #$00
5A55: 90 01    BCC $5A58
5A57: 60       RTS
5A58: AD BA B9 LDA $B9BA
5A5B: F0 06    BEQ $5A63
5A5D: 20 3B 5E JSR $5E3B
5A60: 20 CF 62 JSR $62CF
5A63: 20 FA 68 JSR $68FA
5A66: A6 6E    LDX $6E
5A68: F0 2F    BEQ $5A99
5A6A: A5 5E    LDA $5E
5A6C: C9 70    CMP #$70
5A6E: D0 04    BNE $5A74
5A70: A5 5D    LDA $5D
5A72: C9 01    CMP #$01
5A74: D0 03    BNE $5A79
5A76: 4C 48 5C JMP $5C48
5A79: CA       DEX
5A7A: 20 15 6C JSR $6C15
5A7D: A5 5D    LDA $5D
5A7F: 85 82    STA $82
5A81: A5 5E    LDA $5E
5A83: 85 83    STA $83
5A85: 20 98 61 JSR $6198
5A88: 20 C6 62 JSR $62C6
5A8B: E4 40    CPX $40
5A8D: F0 03    BEQ $5A92
5A8F: 4C 48 5C JMP $5C48
5A92: C5 41    CMP $41
5A94: F0 03    BEQ $5A99
5A96: 4C 48 5C JMP $5C48
5A99: A6 6E    LDX $6E
5A9B: E8       INX
5A9C: E4 6D    CPX $6D
5A9E: D0 43    BNE $5AE3
5AA0: E0 01    CPX #$01
5AA2: F0 13    BEQ $5AB7
5AA4: 20 86 5C JSR $5C86
5AA7: D0 03    BNE $5AAC
5AA9: 4C 09 5B JMP $5B09
5AAC: 20 8E 5C JSR $5C8E
5AAF: F0 03    BEQ $5AB4
5AB1: 4C 48 5C JMP $5C48
5AB4: 4C 09 5B JMP $5B09
5AB7: A5 5E    LDA $5E
5AB9: C5 45    CMP $45
5ABB: D0 04    BNE $5AC1
5ABD: A5 5D    LDA $5D
5ABF: C5 44    CMP $44
5AC1: B0 03    BCS $5AC6
5AC3: 4C 48 5C JMP $5C48
5AC6: D0 10    BNE $5AD8
5AC8: 20 86 5C JSR $5C86
5ACB: D0 03    BNE $5AD0
5ACD: 4C 09 5B JMP $5B09
5AD0: 20 8E 5C JSR $5C8E
5AD3: F0 03    BEQ $5AD8
5AD5: 4C 48 5C JMP $5C48
5AD8: A5 5D    LDA $5D
5ADA: 85 44    STA $44
5ADC: A5 5E    LDA $5E
5ADE: 85 45    STA $45
5AE0: 4C 09 5B JMP $5B09
5AE3: E0 01    CPX #$01
5AE5: D0 03    BNE $5AEA
5AE7: 4C 48 5C JMP $5C48
5AEA: 20 15 6C JSR $6C15
5AED: A5 5D    LDA $5D
5AEF: 85 82    STA $82
5AF1: A5 5E    LDA $5E
5AF3: 85 83    STA $83
5AF5: 20 E0 61 JSR $61E0
5AF8: 20 C6 62 JSR $62C6
5AFB: E4 40    CPX $40
5AFD: F0 03    BEQ $5B02
5AFF: 4C 48 5C JMP $5C48
5B02: C5 41    CMP $41
5B04: F0 03    BEQ $5B09
5B06: 4C 48 5C JMP $5C48
5B09: 20 86 5C JSR $5C86
5B0C: D0 3A    BNE $5B48
5B0E: A5 55    LDA $55
5B10: C9 17    CMP #$17
5B12: F0 07    BEQ $5B1B
5B14: C9 14    CMP #$14
5B16: F0 03    BEQ $5B1B
5B18: 4C 45 5B JMP $5B45
5B1B: A5 5E    LDA $5E
5B1D: C9 70    CMP #$70
5B1F: D0 04    BNE $5B25
5B21: A5 5D    LDA $5D
5B23: C9 01    CMP #$01
5B25: F0 1E    BEQ $5B45
5B27: A5 5E    LDA $5E
5B29: C5 45    CMP $45
5B2B: D0 04    BNE $5B31
5B2D: A5 5D    LDA $5D
5B2F: C5 44    CMP $44
5B31: D0 0F    BNE $5B42
5B33: A6 6E    LDX $6E
5B35: 20 05 6C JSR $6C05
5B38: A9 14    LDA #$14
5B3A: 85 6A    STA $6A
5B3C: 20 89 66 JSR $6689
5B3F: 4C 04 58 JMP $5804
5B42: 4C A2 58 JMP $58A2
5B45: 4C 48 5C JMP $5C48
5B48: A6 6D    LDX $6D
5B4A: 20 EC 61 JSR $61EC
5B4D: A5 80    LDA $80
5B4F: 85 46    STA $46
5B51: A5 81    LDA $81
5B53: 85 47    STA $47
5B55: AD BA B9 LDA $B9BA
5B58: D0 1F    BNE $5B79
5B5A: A5 5E    LDA $5E
5B5C: C9 70    CMP #$70
5B5E: D0 04    BNE $5B64
5B60: A5 5D    LDA $5D
5B62: C9 01    CMP #$01
5B64: D0 03    BNE $5B69
5B66: 4C 48 5C JMP $5C48
5B69: A5 55    LDA $55
5B6B: C9 17    CMP #$17
5B6D: F0 07    BEQ $5B76
5B6F: C9 14    CMP #$14
5B71: F0 03    BEQ $5B76
5B73: 4C 48 5C JMP $5C48
5B76: 4C A2 58 JMP $58A2
5B79: A5 55    LDA $55
5B7B: C9 17    CMP #$17
5B7D: D0 03    BNE $5B82
5B7F: 4C 8E 56 JMP $568E
5B82: C9 14    CMP #$14
5B84: D0 03    BNE $5B89
5B86: 4C 69 57 JMP $5769
5B89: 24 52    BIT $52
5B8B: 30 06    BMI $5B93
5B8D: 20 B5 63 JSR $63B5
5B90: B0 01    BCS $5B93
5B92: 60       RTS
5B93: E6 6E    INC $6E
5B95: AC B5 03 LDY $03B5
5B98: 88       DEY
5B99: C8       INY
5B9A: C4 51    CPY $51
5B9C: 90 06    BCC $5BA4
5B9E: 20 FE 62 JSR $62FE
5BA1: A4 51    LDY $51
5BA3: 88       DEY
5BA4: 8C B5 03 STY $03B5
5BA7: 18       CLC
5BA8: B9 C2 6E LDA $6EC2,Y
5BAB: 65 4A    ADC $4A
5BAD: 85 82    STA $82
5BAF: A9 00    LDA #$00
5BB1: 65 4B    ADC $4B
5BB3: 85 83    STA $83
5BB5: A6 6E    LDX $6E
5BB7: 20 05 6C JSR $6C05
5BBA: AC B5 03 LDY $03B5
5BBD: A5 81    LDA $81
5BBF: C5 83    CMP $83
5BC1: D0 04    BNE $5BC7
5BC3: A5 80    LDA $80
5BC5: C5 82    CMP $82
5BC7: D0 D0    BNE $5B99
5BC9: A6 6E    LDX $6E
5BCB: 20 EC 61 JSR $61EC
5BCE: D0 21    BNE $5BF1
5BD0: 24 52    BIT $52
5BD2: 30 03    BMI $5BD7
5BD4: 4C 8E 56 JMP $568E
5BD7: 18       CLC
5BD8: A5 48    LDA $48
5BDA: 69 14    ADC #$14
5BDC: 85 48    STA $48
5BDE: 90 02    BCC $5BE2
5BE0: E6 49    INC $49
5BE2: E6 6D    INC $6D
5BE4: E6 6F    INC $6F
5BE6: A6 6F    LDX $6F
5BE8: 8A       TXA
5BE9: A6 6D    LDX $6D
5BEB: 9D 48 BA STA $BA48,X
5BEE: 20 AE 63 JSR $63AE
5BF1: A6 6E    LDX $6E
5BF3: 20 BF 68 JSR $68BF
5BF6: A6 6E    LDX $6E
5BF8: 20 EC 61 JSR $61EC
5BFB: D0 35    BNE $5C32
5BFD: 18       CLC
5BFE: A5 86    LDA $86
5C00: 6D 5A BA ADC $BA5A
5C03: 85 86    STA $86
5C05: A5 87    LDA $87
5C07: 6D 5B BA ADC $BA5B
5C0A: 85 87    STA $87
5C0C: A6 86    LDX $86
5C0E: A5 87    LDA $87
5C10: 20 2F 6C JSR $6C2F
5C13: A0 FF    LDY #$FF
5C15: C8       INY
5C16: B5 82    LDA $82,X
5C18: 91 4E    STA ($4E),Y
5C1A: E8       INX
5C1B: E0 05    CPX #$05
5C1D: D0 F6    BNE $5C15
5C1F: C8       INY
5C20: A9 20    LDA #$20
5C22: 91 4E    STA ($4E),Y
5C24: C8       INY
5C25: 8C B4 03 STY $03B4
5C28: 84 50    STY $50
5C2A: 84 70    STY $70
5C2C: A9 FF    LDA #$FF
5C2E: 8D 5C BA STA $BA5C
5C31: 60       RTS
5C32: A9 00    LDA #$00
5C34: 8D 5C BA STA $BA5C
5C37: A5 55    LDA $55
5C39: C9 15    CMP #$15
5C3B: D0 03    BNE $5C40
5C3D: 4C AB 57 JMP $57AB
5C40: A9 00    LDA #$00
5C42: 85 50    STA $50
5C44: 8D B4 03 STA $03B4
5C47: 60       RTS
5C48: 20 2B 69 JSR $692B
5C4B: 20 76 68 JSR $6876
5C4E: A5 5D    LDA $5D
5C50: 85 40    STA $40
5C52: A5 5E    LDA $5E
5C54: 85 41    STA $41
5C56: A5 86    LDA $86
5C58: 48       PHA
5C59: A5 87    LDA $87
5C5B: 48       PHA
5C5C: 20 31 68 JSR $6831
5C5F: 68       PLA
5C60: 85 87    STA $87
5C62: 68       PLA
5C63: 85 86    STA $86
5C65: AD BA B9 LDA $B9BA
5C68: F0 0A    BEQ $5C74
5C6A: A9 00    LDA #$00
5C6C: 85 50    STA $50
5C6E: 20 BF 68 JSR $68BF
5C71: 4C 79 5B JMP $5B79
5C74: 38       SEC
5C75: A5 86    LDA $86
5C77: ED 5A BA SBC $BA5A
5C7A: 85 86    STA $86
5C7C: A5 87    LDA $87
5C7E: ED 5B BA SBC $BA5B
5C81: 85 87    STA $87
5C83: 4C 95 5B JMP $5B95
5C86: A0 00    LDY #$00
5C88: B1 5D    LDA ($5D),Y
5C8A: C8       INY
5C8B: 11 5D    ORA ($5D),Y
5C8D: 60       RTS
5C8E: A0 00    LDY #$00
5C90: B1 5D    LDA ($5D),Y
5C92: 85 80    STA $80
5C94: C8       INY
5C95: B1 5D    LDA ($5D),Y
5C97: 85 81    STA $81
5C99: B1 80    LDA ($80),Y
5C9B: 88       DEY
5C9C: 11 80    ORA ($80),Y
5C9E: 60       RTS
5C9F: 60       RTS
5CA0: 24 52    BIT $52
5CA2: 30 03    BMI $5CA7
5CA4: 4C 12 E0 JMP $E012
5CA7: AE 47 04 LDX $0447
5CAA: D0 0F    BNE $5CBB
5CAC: AE B5 03 LDX $03B5
5CAF: E0 04    CPX #$04
5CB1: B0 01    BCS $5CB4
5CB3: 60       RTS
5CB4: 20 FE 62 JSR $62FE
5CB7: CE B5 03 DEC $03B5
5CBA: 60       RTS
5CBB: E0 01    CPX #$01
5CBD: D0 03    BNE $5CC2
5CBF: 4C FB 63 JMP $63FB
5CC2: 60       RTS
5CC3: 24 52    BIT $52
5CC5: 30 03    BMI $5CCA
5CC7: 4C 12 E0 JMP $E012
5CCA: AE 47 04 LDX $0447
5CCD: D0 13    BNE $5CE2
5CCF: 20 98 51 JSR $5198
5CD2: A9 01    LDA #$01
5CD4: 0D 91 03 ORA $0391
5CD7: 8D 91 03 STA $0391
5CDA: A9 05    LDA #$05
5CDC: 85 51    STA $51
5CDE: 20 4A 63 JSR $634A
5CE1: 60       RTS
5CE2: E0 02    CPX #$02
5CE4: F0 01    BEQ $5CE7
5CE6: 60       RTS
5CE7: AE B5 03 LDX $03B5
5CEA: E0 04    CPX #$04
5CEC: 90 06    BCC $5CF4
5CEE: 20 FE 62 JSR $62FE
5CF1: CE B5 03 DEC $03B5
5CF4: 38       SEC
5CF5: A5 4C    LDA $4C
5CF7: E9 14    SBC #$14
5CF9: 85 4C    STA $4C
5CFB: A5 4D    LDA $4D
5CFD: E9 00    SBC #$00
5CFF: 85 4D    STA $4D
5D01: A9 04    LDA #$04
5D03: 85 51    STA $51
5D05: 60       RTS
5D06: AD 49 04 LDA $0449
5D09: C9 02    CMP #$02
5D0B: D0 0B    BNE $5D18
5D0D: A5 72    LDA $72
5D0F: 8D B4 03 STA $03B4
5D12: A5 73    LDA $73
5D14: 8D B5 03 STA $03B5
5D17: 60       RTS
5D18: AD B4 03 LDA $03B4
5D1B: 48       PHA
5D1C: AD B5 03 LDA $03B5
5D1F: 48       PHA
5D20: AD B3 03 LDA $03B3
5D23: 48       PHA
5D24: AD 91 03 LDA $0391
5D27: 48       PHA
5D28: A2 18    LDX #$18
5D2A: A0 6F    LDY #$6F
5D2C: 86 A6    STX $A6
5D2E: 84 A7    STY $A7
5D30: 00 09 CB INT $CB09
5D33: 68       PLA
5D34: 8D 91 03 STA $0391
5D37: 68       PLA
5D38: 8D B3 03 STA $03B3
5D3B: 68       PLA
5D3C: 8D B5 03 STA $03B5
5D3F: 68       PLA
5D40: 8D B4 03 STA $03B4
5D43: 60       RTS
5D44: 20 12 E0 JSR $E012
5D47: 60       RTS
5D48: E6 5B    INC $5B
5D4A: D0 02    BNE $5D4E
5D4C: E6 5C    INC $5C
5D4E: A0 00    LDY #$00
5D50: B1 5B    LDA ($5B),Y
5D52: C9 3A    CMP #$3A
5D54: B0 06    BCS $5D5C
5D56: 38       SEC
5D57: E9 30    SBC #$30
5D59: 38       SEC
5D5A: E9 D0    SBC #$D0
5D5C: 60       RTS
5D5D: A2 00    LDX #$00
5D5F: 86 40    STX $40
5D61: 86 41    STX $41
5D63: B0 3B    BCS $5DA0
5D65: E9 2F    SBC #$2F
5D67: 85 57    STA $57
5D69: A5 41    LDA $41
5D6B: 85 42    STA $42
5D6D: A5 41    LDA $41
5D6F: C9 03    CMP #$03
5D71: D0 04    BNE $5D77
5D73: A5 40    LDA $40
5D75: C9 E8    CMP #$E8
5D77: B0 26    BCS $5D9F
5D79: A5 40    LDA $40
5D7B: 0A       ASL
5D7C: 26 42    ROL $42
5D7E: 0A       ASL
5D7F: 26 42    ROL $42
5D81: 65 40    ADC $40
5D83: 85 40    STA $40
5D85: A5 42    LDA $42
5D87: 65 41    ADC $41
5D89: 85 41    STA $41
5D8B: 06 40    ASL $40
5D8D: 26 41    ROL $41
5D8F: A5 40    LDA $40
5D91: 65 57    ADC $57
5D93: 85 40    STA $40
5D95: 90 02    BCC $5D99
5D97: E6 41    INC $41
5D99: 20 48 5D JSR $5D48
5D9C: 4C 63 5D JMP $5D63
5D9F: 18       CLC
5DA0: 60       RTS
5DA1: A9 00    LDA #$00
5DA3: 85 6C    STA $6C
5DA5: 38       SEC
5DA6: A5 5B    LDA $5B
5DA8: E5 4E    SBC $4E
5DAA: 85 5B    STA $5B
5DAC: A5 5C    LDA $5C
5DAE: E5 4F    SBC $4F
5DB0: 85 5C    STA $5C
5DB2: 20 63 5E JSR $5E63
5DB5: 90 0F    BCC $5DC6
5DB7: 20 79 5E JSR $5E79
5DBA: 20 20 5F JSR $5F20
5DBD: 20 71 5F JSR $5F71
5DC0: 20 9A 5E JSR $5E9A
5DC3: 4C B2 5D JMP $5DB2
5DC6: A5 6C    LDA $6C
5DC8: 18       CLC
5DC9: 69 05    ADC #$05
5DCB: 85 59    STA $59
5DCD: 20 D0 5E JSR $5ED0
5DD0: A9 00    LDA #$00
5DD2: 9D BA B9 STA $B9BA,X
5DD5: 9D BC B9 STA $B9BC,X
5DD8: 60       RTS
5DD9: A9 01    LDA #$01
5DDB: A2 70    LDX #$70
5DDD: A0 00    LDY #$00
5DDF: 85 5D    STA $5D
5DE1: 86 5E    STX $5E
5DE3: B1 5D    LDA ($5D),Y
5DE5: C8       INY
5DE6: 11 5D    ORA ($5D),Y
5DE8: F0 1F    BEQ $5E09
5DEA: C8       INY
5DEB: C8       INY
5DEC: A5 41    LDA $41
5DEE: D1 5D    CMP ($5D),Y
5DF0: 90 18    BCC $5E0A
5DF2: F0 03    BEQ $5DF7
5DF4: 88       DEY
5DF5: D0 09    BNE $5E00
5DF7: A5 40    LDA $40
5DF9: 88       DEY
5DFA: D1 5D    CMP ($5D),Y
5DFC: 90 0C    BCC $5E0A
5DFE: F0 0A    BEQ $5E0A
5E00: 88       DEY
5E01: B1 5D    LDA ($5D),Y
5E03: AA       TAX
5E04: 88       DEY
5E05: B1 5D    LDA ($5D),Y
5E07: B0 D4    BCS $5DDD
5E09: 18       CLC
5E0A: 60       RTS
5E0B: 18       CLC
5E0C: A5 5D    LDA $5D
5E0E: 65 57    ADC $57
5E10: 85 80    STA $80
5E12: A5 5E    LDA $5E
5E14: 69 00    ADC #$00
5E16: 85 81    STA $81
5E18: AD 58 BA LDA $BA58
5E1B: 85 82    STA $82
5E1D: AD 59 BA LDA $BA59
5E20: 85 83    STA $83
5E22: A5 57    LDA $57
5E24: 85 6A    STA $6A
5E26: 20 C1 6C JSR $6CC1
5E29: 38       SEC
5E2A: AD 58 BA LDA $BA58
5E2D: E5 57    SBC $57
5E2F: 8D 58 BA STA $BA58
5E32: AD 59 BA LDA $BA59
5E35: E9 00    SBC #$00
5E37: 8D 59 BA STA $BA59
5E3A: 60       RTS
5E3B: A5 5D    LDA $5D
5E3D: 85 80    STA $80
5E3F: A5 5E    LDA $5E
5E41: 85 81    STA $81
5E43: AD 58 BA LDA $BA58
5E46: 85 82    STA $82
5E48: AD 59 BA LDA $BA59
5E4B: 85 83    STA $83
5E4D: A5 59    LDA $59
5E4F: 85 6A    STA $6A
5E51: 20 05 6D JSR $6D05
5E54: 18       CLC
5E55: AD 58 BA LDA $BA58
5E58: 65 59    ADC $59
5E5A: 8D 58 BA STA $BA58
5E5D: 90 03    BCC $5E62
5E5F: EE 59 BA INC $BA59
5E62: 60       RTS
5E63: A4 5B    LDY $5B
5E65: B1 4E    LDA ($4E),Y
5E67: F0 0E    BEQ $5E77
5E69: C9 20    CMP #$20
5E6B: F0 04    BEQ $5E71
5E6D: C9 1E    CMP #$1E
5E6F: D0 04    BNE $5E75
5E71: E6 5B    INC $5B
5E73: D0 EE    BNE $5E63
5E75: 38       SEC
5E76: 60       RTS
5E77: 18       CLC
5E78: 60       RTS
5E79: A4 5B    LDY $5B
5E7B: 88       DEY
5E7C: C8       INY
5E7D: B1 4E    LDA ($4E),Y
5E7F: 20 87 5E JSR $5E87
5E82: B0 F8    BCS $5E7C
5E84: 84 58    STY $58
5E86: 60       RTS
5E87: 30 0D    BMI $5E96
5E89: A2 00    LDX #$00
5E8B: DD DF 4F CMP $4FDF,X
5E8E: F0 08    BEQ $5E98
5E90: E8       INX
5E91: E0 10    CPX #$10
5E93: 90 F6    BCC $5E8B
5E95: 60       RTS
5E96: A2 10    LDX #$10
5E98: 18       CLC
5E99: 60       RTS
5E9A: A4 58    LDY $58
5E9C: B1 4E    LDA ($4E),Y
5E9E: 20 87 5E JSR $5E87
5EA1: 8A       TXA
5EA2: 0A       ASL
5EA3: A8       TAY
5EA4: B9 E3 6E LDA $6EE3,Y
5EA7: 85 80    STA $80
5EA9: B9 E4 6E LDA $6EE4,Y
5EAC: 85 81    STA $81
5EAE: 20 B6 5E JSR $5EB6
5EB1: A5 58    LDA $58
5EB3: 85 5B    STA $5B
5EB5: 60       RTS
5EB6: 6C 80 00 JMP ($0080)
5EB9: A6 6C    LDX $6C
5EBB: BD B9 B9 LDA $B9B9,X
5EBE: 10 01    BPL $5EC1
5EC0: 60       RTS
5EC1: A9 20    LDA #$20
5EC3: 9D BA B9 STA $B9BA,X
5EC6: E6 6C    INC $6C
5EC8: E6 58    INC $58
5ECA: 60       RTS
5ECB: BD EF 4F LDA $4FEF,X
5ECE: D0 04    BNE $5ED4
5ED0: A4 58    LDY $58
5ED2: B1 4E    LDA ($4E),Y
5ED4: A6 6C    LDX $6C
5ED6: 9D BA B9 STA $B9BA,X
5ED9: E6 6C    INC $6C
5EDB: E6 58    INC $58
5EDD: 60       RTS
5EDE: 20 D0 5E JSR $5ED0
5EE1: A4 58    LDY $58
5EE3: A6 6C    LDX $6C
5EE5: B1 4E    LDA ($4E),Y
5EE7: D0 01    BNE $5EEA
5EE9: 60       RTS
5EEA: 30 11    BMI $5EFD
5EEC: C9 1E    CMP #$1E
5EEE: D0 05    BNE $5EF5
5EF0: E6 58    INC $58
5EF2: 4C E1 5E JMP $5EE1
5EF5: C9 22    CMP #$22
5EF7: D0 E5    BNE $5EDE
5EF9: 20 D0 5E JSR $5ED0
5EFC: 60       RTS
5EFD: 20 03 5F JSR $5F03
5F00: 4C E1 5E JMP $5EE1
5F03: A9 1F    LDA #$1F
5F05: A6 6C    LDX $6C
5F07: 9D BA B9 STA $B9BA,X
5F0A: E8       INX
5F0B: A4 58    LDY $58
5F0D: B1 4E    LDA ($4E),Y
5F0F: 9D BA B9 STA $B9BA,X
5F12: E8       INX
5F13: C8       INY
5F14: B1 4E    LDA ($4E),Y
5F16: 9D BA B9 STA $B9BA,X
5F19: E8       INX
5F1A: 86 6C    STX $6C
5F1C: C8       INY
5F1D: 84 58    STY $58
5F1F: 60       RTS
5F20: A4 5B    LDY $5B
5F22: C4 58    CPY $58
5F24: F0 49    BEQ $5F6F
5F26: A9 00    LDA #$00
5F28: 85 59    STA $59
5F2A: A9 F6    LDA #$F6
5F2C: 85 80    STA $80
5F2E: A9 4F    LDA #$4F
5F30: 85 81    STA $81
5F32: A4 5B    LDY $5B
5F34: 84 5A    STY $5A
5F36: A4 5A    LDY $5A
5F38: C4 58    CPY $58
5F3A: B0 1D    BCS $5F59
5F3C: E6 80    INC $80
5F3E: D0 02    BNE $5F42
5F40: E6 81    INC $81
5F42: B1 4E    LDA ($4E),Y
5F44: E6 5A    INC $5A
5F46: 38       SEC
5F47: A0 00    LDY #$00
5F49: F1 80    SBC ($80),Y
5F4B: F0 E9    BEQ $5F36
5F4D: C9 80    CMP #$80
5F4F: D0 08    BNE $5F59
5F51: A6 5A    LDX $5A
5F53: E4 58    CPX $58
5F55: D0 02    BNE $5F59
5F57: 18       CLC
5F58: 60       RTS
5F59: A0 00    LDY #$00
5F5B: B1 80    LDA ($80),Y
5F5D: 30 09    BMI $5F68
5F5F: E6 80    INC $80
5F61: D0 02    BNE $5F65
5F63: E6 81    INC $81
5F65: 4C 59 5F JMP $5F59
5F68: E6 59    INC $59
5F6A: C8       INY
5F6B: B1 80    LDA ($80),Y
5F6D: D0 C3    BNE $5F32
5F6F: 38       SEC
5F70: 60       RTS
5F71: B0 0C    BCS $5F7F
5F73: A6 6C    LDX $6C
5F75: A5 59    LDA $59
5F77: 09 80    ORA #$80
5F79: 9D BA B9 STA $B9BA,X
5F7C: E6 6C    INC $6C
5F7E: 60       RTS
5F7F: A4 5B    LDY $5B
5F81: C4 58    CPY $58
5F83: 90 01    BCC $5F86
5F85: 60       RTS
5F86: A6 6C    LDX $6C
5F88: B1 4E    LDA ($4E),Y
5F8A: C9 1E    CMP #$1E
5F8C: F0 05    BEQ $5F93
5F8E: 9D BA B9 STA $B9BA,X
5F91: E6 6C    INC $6C
5F93: E6 5B    INC $5B
5F95: D0 E8    BNE $5F7F
5F97: 60       RTS
5F98: 20 B7 5F JSR $5FB7
5F9B: D0 14    BNE $5FB1
5F9D: C6 50    DEC $50
5F9F: 20 BF 67 JSR $67BF
5FA2: C6 50    DEC $50
5FA4: 20 BF 67 JSR $67BF
5FA7: A4 50    LDY $50
5FA9: 88       DEY
5FAA: B1 4E    LDA ($4E),Y
5FAC: C9 1E    CMP #$1E
5FAE: F0 01    BEQ $5FB1
5FB0: 60       RTS
5FB1: C6 50    DEC $50
5FB3: 20 BF 67 JSR $67BF
5FB6: 60       RTS
5FB7: A0 00    LDY #$00
5FB9: A2 FF    LDX #$FF
5FBB: B1 4E    LDA ($4E),Y
5FBD: 10 03    BPL $5FC2
5FBF: A2 00    LDX #$00
5FC1: C8       INY
5FC2: C8       INY
5FC3: C4 50    CPY $50
5FC5: 90 F2    BCC $5FB9
5FC7: 8A       TXA
5FC8: 60       RTS
5FC9: 20 B7 5F JSR $5FB7
5FCC: C4 50    CPY $50
5FCE: 60       RTS
5FCF: A5 6E    LDA $6E
5FD1: F0 03    BEQ $5FD6
5FD3: 4C 6D 60 JMP $606D
5FD6: A5 4B    LDA $4B
5FD8: C9 B8    CMP #$B8
5FDA: D0 04    BNE $5FE0
5FDC: A5 4A    LDA $4A
5FDE: C9 8E    CMP #$8E
5FE0: 90 05    BCC $5FE7
5FE2: F0 03    BEQ $5FE7
5FE4: 4C 6D 60 JMP $606D
5FE7: A5 45    LDA $45
5FE9: C9 70    CMP #$70
5FEB: D0 04    BNE $5FF1
5FED: A5 44    LDA $44
5FEF: C9 01    CMP #$01
5FF1: 90 05    BCC $5FF8
5FF3: F0 03    BEQ $5FF8
5FF5: 4C 6D 60 JMP $606D
5FF8: 24 52    BIT $52
5FFA: 30 07    BMI $6003
5FFC: AD 7B BA LDA $BA7B
5FFF: C9 00    CMP #$00
6001: D0 02    BNE $6005
6003: 18       CLC
6004: 60       RTS
6005: A5 44    LDA $44
6007: 85 68    STA $68
6009: A5 45    LDA $45
600B: 85 69    STA $69
600D: 20 7D 6C JSR $6C7D
6010: A5 66    LDA $66
6012: 85 82    STA $82
6014: A5 67    LDA $67
6016: 85 83    STA $83
6018: A5 46    LDA $46
601A: 85 68    STA $68
601C: A5 47    LDA $47
601E: 85 69    STA $69
6020: 20 7D 6C JSR $6C7D
6023: CE 7B BA DEC $BA7B
6026: AD 7B BA LDA $BA7B
6029: 0A       ASL
602A: AA       TAX
602B: BD 7D BA LDA $BA7D,X
602E: 85 80    STA $80
6030: BD 7E BA LDA $BA7E,X
6033: 85 81    STA $81
6035: 38       SEC
6036: A5 80    LDA $80
6038: E5 53    SBC $53
603A: 8D 79 BA STA $BA79
603D: A5 81    LDA $81
603F: E5 54    SBC $54
6041: 8D 7A BA STA $BA7A
6044: A9 00    LDA #$00
6046: 85 80    STA $80
6048: A9 40    LDA #$40
604A: 85 81    STA $81
604C: 20 DC 67 JSR $67DC
604F: 20 47 6C JSR $6C47
6052: A5 68    LDA $68
6054: 85 46    STA $46
6056: A5 69    LDA $69
6058: 85 47    STA $47
605A: A5 82    LDA $82
605C: 85 66    STA $66
605E: A5 83    LDA $83
6060: 85 67    STA $67
6062: 20 47 6C JSR $6C47
6065: A5 68    LDA $68
6067: 85 44    STA $44
6069: A5 69    LDA $69
606B: 85 45    STA $45
606D: C6 6E    DEC $6E
606F: AE B5 03 LDX $03B5
6072: CA       DEX
6073: 10 05    BPL $607A
6075: 20 86 60 JSR $6086
6078: A2 00    LDX #$00
607A: 8E B5 03 STX $03B5
607D: 20 BF 68 JSR $68BF
6080: A5 70    LDA $70
6082: 85 50    STA $50
6084: 38       SEC
6085: 60       RTS
6086: A5 4B    LDA $4B
6088: C9 B8    CMP #$B8
608A: D0 04    BNE $6090
608C: A5 4A    LDA $4A
608E: C9 F2    CMP #$F2
6090: 90 02    BCC $6094
6092: D0 48    BNE $60DC
6094: A6 6D    LDX $6D
6096: CA       DEX
6097: 20 05 6C JSR $6C05
609A: A5 81    LDA $81
609C: C5 4D    CMP $4D
609E: D0 04    BNE $60A4
60A0: A5 80    LDA $80
60A2: C5 4C    CMP $4C
60A4: 90 36    BCC $60DC
60A6: A6 6D    LDX $6D
60A8: 38       SEC
60A9: BD 48 BA LDA $BA48,X
60AC: FD 47 BA SBC $BA47,X
60AF: 85 6A    STA $6A
60B1: BD 47 BA LDA $BA47,X
60B4: 85 6F    STA $6F
60B6: C6 6D    DEC $6D
60B8: A6 6D    LDX $6D
60BA: 20 EC 61 JSR $61EC
60BD: A5 80    LDA $80
60BF: 85 46    STA $46
60C1: A5 81    LDA $81
60C3: 85 47    STA $47
60C5: A6 6A    LDX $6A
60C7: BD C2 6E LDA $6EC2,X
60CA: 85 6A    STA $6A
60CC: 38       SEC
60CD: A5 48    LDA $48
60CF: E5 6A    SBC $6A
60D1: 85 48    STA $48
60D3: A5 49    LDA $49
60D5: E9 00    SBC #$00
60D7: 85 49    STA $49
60D9: 20 AE 63 JSR $63AE
60DC: 38       SEC
60DD: A5 4A    LDA $4A
60DF: E9 14    SBC #$14
60E1: 85 4A    STA $4A
60E3: A5 4B    LDA $4B
60E5: E9 00    SBC #$00
60E7: 85 4B    STA $4B
60E9: 38       SEC
60EA: A5 4C    LDA $4C
60EC: E9 14    SBC #$14
60EE: 85 4C    STA $4C
60F0: A5 4D    LDA $4D
60F2: E9 00    SBC #$00
60F4: 85 4D    STA $4D
60F6: A5 4B    LDA $4B
60F8: C9 B8    CMP #$B8
60FA: D0 04    BNE $6100
60FC: A5 4A    LDA $4A
60FE: C9 8E    CMP #$8E
6100: 90 01    BCC $6103
6102: 60       RTS
6103: A5 44    LDA $44
6105: 85 82    STA $82
6107: A5 45    LDA $45
6109: 85 83    STA $83
610B: 20 98 61 JSR $6198
610E: A5 80    LDA $80
6110: 85 40    STA $40
6112: A5 81    LDA $81
6114: 85 41    STA $41
6116: A5 80    LDA $80
6118: 85 44    STA $44
611A: A5 81    LDA $81
611C: 85 45    STA $45
611E: A9 BA    LDA #$BA
6120: 85 42    STA $42
6122: A9 B9    LDA #$B9
6124: 85 43    STA $43
6126: 20 2F 6A JSR $6A2F
6129: 20 B2 6B JSR $6BB2
612C: 18       CLC
612D: A4 6D    LDY $6D
612F: B9 48 BA LDA $BA48,Y
6132: 65 6A    ADC $6A
6134: 99 49 BA STA $BA49,Y
6137: 88       DEY
6138: 10 F5    BPL $612F
613A: A9 00    LDA #$00
613C: 8D 48 BA STA $BA48
613F: E6 6D    INC $6D
6141: 18       CLC
6142: A5 6F    LDA $6F
6144: 65 6A    ADC $6A
6146: 85 6F    STA $6F
6148: E6 6E    INC $6E
614A: A9 8E    LDA #$8E
614C: 85 80    STA $80
614E: A9 B8    LDA #$B8
6150: 85 81    STA $81
6152: A5 48    LDA $48
6154: 85 82    STA $82
6156: A5 49    LDA $49
6158: 85 83    STA $83
615A: A6 6A    LDX $6A
615C: BD C2 6E LDA $6EC2,X
615F: 85 6A    STA $6A
6161: A5 81    LDA $81
6163: C5 83    CMP $83
6165: D0 04    BNE $616B
6167: A5 80    LDA $80
6169: C5 82    CMP $82
616B: F0 03    BEQ $6170
616D: 20 05 6D JSR $6D05
6170: 20 F1 62 JSR $62F1
6173: 18       CLC
6174: A5 48    LDA $48
6176: 65 6A    ADC $6A
6178: 85 48    STA $48
617A: 90 02    BCC $617E
617C: E6 49    INC $49
617E: 18       CLC
617F: A5 4A    LDA $4A
6181: 65 6A    ADC $6A
6183: 85 4A    STA $4A
6185: 90 02    BCC $6189
6187: E6 4B    INC $4B
6189: 18       CLC
618A: A5 4C    LDA $4C
618C: 65 6A    ADC $6A
618E: 85 4C    STA $4C
6190: 90 02    BCC $6194
6192: E6 4D    INC $4D
6194: 20 AE 63 JSR $63AE
6197: 60       RTS
6198: 24 52    BIT $52
619A: 10 19    BPL $61B5
619C: A2 01    LDX #$01
619E: A9 70    LDA #$70
61A0: 86 80    STX $80
61A2: 85 81    STA $81
61A4: A0 00    LDY #$00
61A6: B1 80    LDA ($80),Y
61A8: AA       TAX
61A9: C8       INY
61AA: B1 80    LDA ($80),Y
61AC: C5 83    CMP $83
61AE: D0 F0    BNE $61A0
61B0: E4 82    CPX $82
61B2: D0 EC    BNE $61A0
61B4: 60       RTS
61B5: A9 01    LDA #$01
61B7: 85 68    STA $68
61B9: A9 70    LDA #$70
61BB: 85 69    STA $69
61BD: A5 68    LDA $68
61BF: 85 80    STA $80
61C1: A5 69    LDA $69
61C3: 85 81    STA $81
61C5: A0 00    LDY #$00
61C7: B1 80    LDA ($80),Y
61C9: 85 66    STA $66
61CB: C8       INY
61CC: B1 80    LDA ($80),Y
61CE: 85 67    STA $67
61D0: 20 47 6C JSR $6C47
61D3: A5 69    LDA $69
61D5: C5 83    CMP $83
61D7: D0 04    BNE $61DD
61D9: A5 68    LDA $68
61DB: C5 82    CMP $82
61DD: D0 DE    BNE $61BD
61DF: 60       RTS
61E0: A0 00    LDY #$00
61E2: B1 82    LDA ($82),Y
61E4: 85 80    STA $80
61E6: C8       INY
61E7: B1 82    LDA ($82),Y
61E9: 85 81    STA $81
61EB: 60       RTS
61EC: A5 44    LDA $44
61EE: 85 80    STA $80
61F0: A5 45    LDA $45
61F2: 85 81    STA $81
61F4: 24 52    BIT $52
61F6: 10 21    BPL $6219
61F8: 8A       TXA
61F9: D0 02    BNE $61FD
61FB: F0 48    BEQ $6245
61FD: 86 82    STX $82
61FF: 4C 06 62 JMP $6206
6202: 86 80    STX $80
6204: 85 81    STA $81
6206: A0 00    LDY #$00
6208: B1 80    LDA ($80),Y
620A: AA       TAX
620B: C8       INY
620C: B1 80    LDA ($80),Y
620E: C6 82    DEC $82
6210: D0 F0    BNE $6202
6212: 85 81    STA $81
6214: 86 80    STX $80
6216: 4C 45 62 JMP $6245
6219: 8A       TXA
621A: D0 02    BNE $621E
621C: F0 27    BEQ $6245
621E: 86 82    STX $82
6220: 4C 2B 62 JMP $622B
6223: A5 68    LDA $68
6225: 85 80    STA $80
6227: A5 69    LDA $69
6229: 85 81    STA $81
622B: A0 00    LDY #$00
622D: B1 80    LDA ($80),Y
622F: 85 66    STA $66
6231: C8       INY
6232: B1 80    LDA ($80),Y
6234: 85 67    STA $67
6236: 20 47 6C JSR $6C47
6239: C6 82    DEC $82
623B: D0 E6    BNE $6223
623D: A5 68    LDA $68
623F: 85 80    STA $80
6241: A5 69    LDA $69
6243: 85 81    STA $81
6245: A0 00    LDY #$00
6247: B1 80    LDA ($80),Y
6249: C8       INY
624A: 11 80    ORA ($80),Y
624C: 60       RTS
624D: A9 01    LDA #$01
624F: 85 80    STA $80
6251: A9 70    LDA #$70
6253: 85 81    STA $81
6255: A0 00    LDY #$00
6257: B1 80    LDA ($80),Y
6259: C8       INY
625A: 11 80    ORA ($80),Y
625C: F0 12    BEQ $6270
625E: D0 06    BNE $6266
6260: B1 80    LDA ($80),Y
6262: 85 81    STA $81
6264: 86 80    STX $80
6266: A0 00    LDY #$00
6268: B1 80    LDA ($80),Y
626A: AA       TAX
626B: C8       INY
626C: 11 80    ORA ($80),Y
626E: D0 F0    BNE $6260
6270: 18       CLC
6271: A5 80    LDA $80
6273: 69 02    ADC #$02
6275: 8D 58 BA STA $BA58
6278: A5 81    LDA $81
627A: 69 00    ADC #$00
627C: 8D 59 BA STA $BA59
627F: 60       RTS
6280: A9 01    LDA #$01
6282: 85 80    STA $80
6284: A9 70    LDA #$70
6286: 85 81    STA $81
6288: 20 B3 62 JSR $62B3
628B: A9 00    LDA #$00
628D: 85 82    STA $82
628F: A9 70    LDA #$70
6291: 85 83    STA $83
6293: 98       TYA
6294: D0 01    BNE $6297
6296: 60       RTS
6297: C8       INY
6298: 84 57    STY $57
629A: A0 00    LDY #$00
629C: B1 80    LDA ($80),Y
629E: 85 82    STA $82
62A0: C8       INY
62A1: B1 80    LDA ($80),Y
62A3: 85 83    STA $83
62A5: 38       SEC
62A6: A5 82    LDA $82
62A8: E5 57    SBC $57
62AA: 85 82    STA $82
62AC: A5 83    LDA $83
62AE: E9 00    SBC #$00
62B0: 85 83    STA $83
62B2: 60       RTS
62B3: A0 01    LDY #$01
62B5: B1 80    LDA ($80),Y
62B7: 88       DEY
62B8: 11 80    ORA ($80),Y
62BA: D0 01    BNE $62BD
62BC: 60       RTS
62BD: A0 03    LDY #$03
62BF: C8       INY
62C0: B1 80    LDA ($80),Y
62C2: D0 FB    BNE $62BF
62C4: C8       INY
62C5: 60       RTS
62C6: A0 02    LDY #$02
62C8: B1 80    LDA ($80),Y
62CA: AA       TAX
62CB: C8       INY
62CC: B1 80    LDA ($80),Y
62CE: 60       RTS
62CF: A0 00    LDY #$00
62D1: A9 01    LDA #$01
62D3: 91 5D    STA ($5D),Y
62D5: C8       INY
62D6: 91 5D    STA ($5D),Y
62D8: C8       INY
62D9: A5 40    LDA $40
62DB: 91 5D    STA ($5D),Y
62DD: C8       INY
62DE: A5 41    LDA $41
62E0: 91 5D    STA ($5D),Y
62E2: C8       INY
62E3: A2 00    LDX #$00
62E5: BD BA B9 LDA $B9BA,X
62E8: 91 5D    STA ($5D),Y
62EA: D0 01    BNE $62ED
62EC: 60       RTS
62ED: C8       INY
62EE: E8       INX
62EF: D0 F4    BNE $62E5
62F1: A4 6A    LDY $6A
62F3: 88       DEY
62F4: B9 BA B9 LDA $B9BA,Y
62F7: 99 8E B8 STA $B88E,Y
62FA: 88       DEY
62FB: 10 F7    BPL $62F4
62FD: 60       RTS
62FE: A5 4D    LDA $4D
6300: C9 B9    CMP #$B9
6302: D0 04    BNE $6308
6304: A5 4C    LDA $4C
6306: C9 56    CMP #$56
6308: 90 35    BCC $633F
630A: 38       SEC
630B: AD 49 BA LDA $BA49
630E: ED 48 BA SBC $BA48
6311: 8D 49 BA STA $BA49
6314: AA       TAX
6315: 85 6A    STA $6A
6317: A0 00    LDY #$00
6319: C8       INY
631A: B9 48 BA LDA $BA48,Y
631D: 38       SEC
631E: E5 6A    SBC $6A
6320: 99 47 BA STA $BA47,Y
6323: C4 6D    CPY $6D
6325: D0 F2    BNE $6319
6327: A9 00    LDA #$00
6329: 99 48 BA STA $BA48,Y
632C: 38       SEC
632D: A5 6F    LDA $6F
632F: E5 6A    SBC $6A
6331: 85 6F    STA $6F
6333: C6 6D    DEC $6D
6335: C6 6E    DEC $6E
6337: BD C2 6E LDA $6EC2,X
633A: 85 6A    STA $6A
633C: 20 4C 69 JSR $694C
633F: 18       CLC
6340: A5 4A    LDA $4A
6342: 69 14    ADC #$14
6344: 85 4A    STA $4A
6346: 90 02    BCC $634A
6348: E6 4B    INC $4B
634A: 18       CLC
634B: A5 4C    LDA $4C
634D: 69 14    ADC #$14
634F: 85 4C    STA $4C
6351: 90 02    BCC $6355
6353: E6 4D    INC $4D
6355: A5 49    LDA $49
6357: C5 4D    CMP $4D
6359: D0 04    BNE $635F
635B: A5 48    LDA $48
635D: C5 4C    CMP $4C
635F: 90 01    BCC $6362
6361: 60       RTS
6362: A5 46    LDA $46
6364: 85 40    STA $40
6366: A5 47    LDA $47
6368: 85 41    STA $41
636A: A5 48    LDA $48
636C: 85 42    STA $42
636E: A5 49    LDA $49
6370: 85 43    STA $43
6372: A0 00    LDY #$00
6374: B1 40    LDA ($40),Y
6376: C8       INY
6377: 11 40    ORA ($40),Y
6379: D0 0F    BNE $638A
637B: 38       SEC
637C: A5 4C    LDA $4C
637E: E5 48    SBC $48
6380: A8       TAY
6381: 88       DEY
6382: A9 00    LDA #$00
6384: 91 42    STA ($42),Y
6386: 88       DEY
6387: 10 FB    BPL $6384
6389: 60       RTS
638A: 20 2F 6A JSR $6A2F
638D: 20 11 6B JSR $6B11
6390: E6 6D    INC $6D
6392: A5 6F    LDA $6F
6394: A6 6D    LDX $6D
6396: 9D 48 BA STA $BA48,X
6399: A5 40    LDA $40
639B: 85 46    STA $46
639D: A5 41    LDA $41
639F: 85 47    STA $47
63A1: A5 42    LDA $42
63A3: 85 48    STA $48
63A5: A5 43    LDA $43
63A7: 85 49    STA $49
63A9: 20 AE 63 JSR $63AE
63AC: 38       SEC
63AD: 60       RTS
63AE: A9 00    LDA #$00
63B0: A0 00    LDY #$00
63B2: 91 48    STA ($48),Y
63B4: 60       RTS
63B5: A6 6E    LDX $6E
63B7: E8       INX
63B8: E4 6D    CPX $6D
63BA: D0 1B    BNE $63D7
63BC: A5 49    LDA $49
63BE: C5 4D    CMP $4D
63C0: D0 04    BNE $63C6
63C2: A5 48    LDA $48
63C4: C5 4C    CMP $4C
63C6: 90 0D    BCC $63D5
63C8: A0 00    LDY #$00
63CA: B1 4C    LDA ($4C),Y
63CC: D0 09    BNE $63D7
63CE: B1 46    LDA ($46),Y
63D0: C8       INY
63D1: 11 46    ORA ($46),Y
63D3: D0 02    BNE $63D7
63D5: 18       CLC
63D6: 60       RTS
63D7: 38       SEC
63D8: 60       RTS
63D9: 20 B5 63 JSR $63B5
63DC: B0 01    BCS $63DF
63DE: 60       RTS
63DF: E6 6E    INC $6E
63E1: AE B5 03 LDX $03B5
63E4: E8       INX
63E5: E4 51    CPX $51
63E7: 90 06    BCC $63EF
63E9: 20 FE 62 JSR $62FE
63EC: A6 51    LDX $51
63EE: CA       DEX
63EF: 8E B5 03 STX $03B5
63F2: 20 BF 68 JSR $68BF
63F5: A9 00    LDA #$00
63F7: 85 50    STA $50
63F9: 38       SEC
63FA: 60       RTS
63FB: 20 D5 66 JSR $66D5
63FE: 18       CLC
63FF: 65 70    ADC $70
6401: C9 5E    CMP #$5E
6403: 90 0D    BCC $6412
6405: F0 0B    BEQ $6412
6407: A5 55    LDA $55
6409: 10 03    BPL $640E
640B: 00 01 07 INT $0701
640E: 20 12 E0 JSR $E012
6411: 60       RTS
6412: A9 FF    LDA #$FF
6414: 8D 5C BA STA $BA5C
6417: 20 B1 64 JSR $64B1
641A: AD 57 BA LDA $BA57
641D: C9 05    CMP #$05
641F: D0 05    BNE $6426
6421: 20 BF 67 JSR $67BF
6424: C6 50    DEC $50
6426: 20 94 66 JSR $6694
6429: 20 5F 67 JSR $675F
642C: A9 00    LDA #$00
642E: 8D B1 03 STA $03B1
6431: AE 47 04 LDX $0447
6434: E0 02    CPX #$02
6436: D0 02    BNE $643A
6438: A9 08    LDA #$08
643A: 8D B2 03 STA $03B2
643D: A9 FF    LDA #$FF
643F: 8D AF 03 STA $03AF
6442: A9 FF    LDA #$FF
6444: 8D B0 03 STA $03B0
6447: 00 19 C7 INT $C719
644A: AD 47 04 LDA $0447
644D: C9 02    CMP #$02
644F: F0 01    BEQ $6452
6451: 60       RTS
6452: A5 55    LDA $55
6454: 30 01    BMI $6457
6456: 60       RTS
6457: AD 5F 04 LDA $045F
645A: F0 01    BEQ $645D
645C: 60       RTS
645D: A5 55    LDA $55
645F: 85 92    STA $92
6461: A5 56    LDA $56
6463: 85 93    STA $93
6465: 00 07 07 INT $0707
6468: B0 01    BCS $646B
646A: 60       RTS
646B: A5 92    LDA $92
646D: 85 55    STA $55
646F: 20 D5 66 JSR $66D5
6472: 18       CLC
6473: 65 70    ADC $70
6475: C9 5E    CMP #$5E
6477: 90 06    BCC $647F
6479: F0 04    BEQ $647F
647B: 20 12 E0 JSR $E012
647E: 60       RTS
647F: 20 B1 64 JSR $64B1
6482: A5 70    LDA $70
6484: 48       PHA
6485: A4 50    LDY $50
6487: AD 57 BA LDA $BA57
648A: C9 04    CMP #$04
648C: D0 0B    BNE $6499
648E: A9 1E    LDA #$1E
6490: 91 4E    STA ($4E),Y
6492: E6 50    INC $50
6494: 20 97 67 JSR $6797
6497: A4 50    LDY $50
6499: A5 92    LDA $92
649B: 91 4E    STA ($4E),Y
649D: E6 50    INC $50
649F: 20 97 67 JSR $6797
64A2: A4 50    LDY $50
64A4: A5 93    LDA $93
64A6: 91 4E    STA ($4E),Y
64A8: E6 50    INC $50
64AA: 20 97 67 JSR $6797
64AD: 68       PLA
64AE: 85 70    STA $70
64B0: 60       RTS
64B1: A2 00    LDX #$00
64B3: A0 01    LDY #$01
64B5: 84 59    STY $59
64B7: A0 00    LDY #$00
64B9: 84 58    STY $58
64BB: C4 50    CPY $50
64BD: D0 24    BNE $64E3
64BF: A4 57    LDY $57
64C1: F0 20    BEQ $64E3
64C3: 10 15    BPL $64DA
64C5: E6 58    INC $58
64C7: C8       INY
64C8: D0 FB    BNE $64C5
64CA: AD 57 BA LDA $BA57
64CD: C9 03    CMP #$03
64CF: D0 12    BNE $64E3
64D1: A9 00    LDA #$00
64D3: A4 58    LDY $58
64D5: 91 4E    STA ($4E),Y
64D7: 4C E3 64 JMP $64E3
64DA: A9 00    LDA #$00
64DC: 9D BA B9 STA $B9BA,X
64DF: E8       INX
64E0: 88       DEY
64E1: D0 F7    BNE $64DA
64E3: A4 58    LDY $58
64E5: C4 70    CPY $70
64E7: B0 51    BCS $653A
64E9: B1 4E    LDA ($4E),Y
64EB: 10 2D    BPL $651A
64ED: A4 59    LDY $59
64EF: 86 5A    STX $5A
64F1: B9 C9 6E LDA $6EC9,Y
64F4: C5 5A    CMP $5A
64F6: F0 07    BEQ $64FF
64F8: B0 0B    BCS $6505
64FA: C8       INY
64FB: 84 59    STY $59
64FD: D0 F2    BNE $64F1
64FF: A9 1E    LDA #$1E
6501: 9D BA B9 STA $B9BA,X
6504: E8       INX
6505: A4 58    LDY $58
6507: B1 4E    LDA ($4E),Y
6509: 9D BA B9 STA $B9BA,X
650C: E8       INX
650D: C8       INY
650E: B1 4E    LDA ($4E),Y
6510: 9D BA B9 STA $B9BA,X
6513: E8       INX
6514: C8       INY
6515: 84 58    STY $58
6517: 4C BB 64 JMP $64BB
651A: C9 1E    CMP #$1E
651C: D0 12    BNE $6530
651E: AD 57 BA LDA $BA57
6521: C9 05    CMP #$05
6523: D0 0F    BNE $6534
6525: 18       CLC
6526: A5 58    LDA $58
6528: 69 03    ADC #$03
652A: C5 70    CMP $70
652C: D0 06    BNE $6534
652E: A9 1E    LDA #$1E
6530: 9D BA B9 STA $B9BA,X
6533: E8       INX
6534: C8       INY
6535: 84 58    STY $58
6537: 4C BB 64 JMP $64BB
653A: 86 70    STX $70
653C: 38       SEC
653D: A0 00    LDY #$00
653F: A5 70    LDA $70
6541: F9 C3 6E SBC $6EC3,Y
6544: C8       INY
6545: B0 F8    BCS $653F
6547: 84 59    STY $59
6549: A8       TAY
654A: A9 00    LDA #$00
654C: 9D BA B9 STA $B9BA,X
654F: E8       INX
6550: C8       INY
6551: D0 F9    BNE $654C
6553: 86 5A    STX $5A
6555: A6 6E    LDX $6E
6557: E8       INX
6558: BD 48 BA LDA $BA48,X
655B: 0A       ASL
655C: AA       TAX
655D: BD 98 6E LDA $6E98,X
6560: 85 80    STA $80
6562: BD 99 6E LDA $6E99,X
6565: 85 81    STA $81
6567: A9 14    LDA #$14
6569: 85 6A    STA $6A
656B: A5 5A    LDA $5A
656D: C5 71    CMP $71
656F: 85 71    STA $71
6571: B0 03    BCS $6576
6573: 4C F0 65 JMP $65F0
6576: D0 03    BNE $657B
6578: 4C 70 66 JMP $6670
657B: A6 6E    LDX $6E
657D: 18       CLC
657E: E8       INX
657F: BD 48 BA LDA $BA48,X
6582: 69 01    ADC #$01
6584: 9D 48 BA STA $BA48,X
6587: E4 6D    CPX $6D
6589: 90 F3    BCC $657E
658B: A6 6D    LDX $6D
658D: BD 48 BA LDA $BA48,X
6590: 85 6F    STA $6F
6592: C9 0F    CMP #$0F
6594: 90 35    BCC $65CB
6596: C6 6D    DEC $6D
6598: A6 6D    LDX $6D
659A: BD 48 BA LDA $BA48,X
659D: 85 6F    STA $6F
659F: A6 6D    LDX $6D
65A1: A5 80    LDA $80
65A3: 48       PHA
65A4: A5 81    LDA $81
65A6: 48       PHA
65A7: 20 EC 61 JSR $61EC
65AA: A5 80    LDA $80
65AC: 85 46    STA $46
65AE: A5 81    LDA $81
65B0: 85 47    STA $47
65B2: 68       PLA
65B3: 85 81    STA $81
65B5: 68       PLA
65B6: 85 80    STA $80
65B8: A6 6D    LDX $6D
65BA: BD 48 BA LDA $BA48,X
65BD: 0A       ASL
65BE: AA       TAX
65BF: CA       DEX
65C0: CA       DEX
65C1: BD 98 6E LDA $6E98,X
65C4: 85 48    STA $48
65C6: BD 99 6E LDA $6E99,X
65C9: 85 49    STA $49
65CB: A5 48    LDA $48
65CD: 85 82    STA $82
65CF: A5 49    LDA $49
65D1: 85 83    STA $83
65D3: A5 81    LDA $81
65D5: C5 83    CMP $83
65D7: D0 04    BNE $65DD
65D9: A5 80    LDA $80
65DB: C5 82    CMP $82
65DD: F0 03    BEQ $65E2
65DF: 20 05 6D JSR $6D05
65E2: 18       CLC
65E3: A5 48    LDA $48
65E5: 69 14    ADC #$14
65E7: 85 48    STA $48
65E9: 90 02    BCC $65ED
65EB: E6 49    INC $49
65ED: 4C 70 66 JMP $6670
65F0: A6 6D    LDX $6D
65F2: 38       SEC
65F3: BD 48 BA LDA $BA48,X
65F6: E9 01    SBC #$01
65F8: 9D 48 BA STA $BA48,X
65FB: CA       DEX
65FC: E4 6E    CPX $6E
65FE: D0 F3    BNE $65F3
6600: C6 6F    DEC $6F
6602: A5 48    LDA $48
6604: 85 82    STA $82
6606: A5 49    LDA $49
6608: 85 83    STA $83
660A: A5 81    LDA $81
660C: C5 83    CMP $83
660E: D0 04    BNE $6614
6610: A5 80    LDA $80
6612: C5 82    CMP $82
6614: F0 03    BEQ $6619
6616: 20 C1 6C JSR $6CC1
6619: 38       SEC
661A: A5 48    LDA $48
661C: E9 14    SBC #$14
661E: 85 48    STA $48
6620: A5 49    LDA $49
6622: E9 00    SBC #$00
6624: 85 49    STA $49
6626: 20 7F 66 JSR $667F
6629: A5 49    LDA $49
662B: C5 4D    CMP $4D
662D: D0 04    BNE $6633
662F: A5 48    LDA $48
6631: C5 4C    CMP $4C
6633: B0 3B    BCS $6670
6635: A5 46    LDA $46
6637: 85 40    STA $40
6639: A5 47    LDA $47
663B: 85 41    STA $41
663D: A5 48    LDA $48
663F: 85 42    STA $42
6641: A5 49    LDA $49
6643: 85 43    STA $43
6645: A0 00    LDY #$00
6647: B1 40    LDA ($40),Y
6649: C8       INY
664A: 11 40    ORA ($40),Y
664C: D0 03    BNE $6651
664E: 4C 70 66 JMP $6670
6651: 20 2F 6A JSR $6A2F
6654: 20 11 6B JSR $6B11
6657: E6 6D    INC $6D
6659: A5 6F    LDA $6F
665B: A6 6D    LDX $6D
665D: 9D 48 BA STA $BA48,X
6660: A5 40    LDA $40
6662: 85 46    STA $46
6664: A5 41    LDA $41
6666: 85 47    STA $47
6668: A5 42    LDA $42
666A: 85 48    STA $48
666C: A5 43    LDA $43
666E: 85 49    STA $49
6670: A4 71    LDY $71
6672: 88       DEY
6673: B9 BA B9 LDA $B9BA,Y
6676: 91 4E    STA ($4E),Y
6678: 88       DEY
6679: 10 F8    BPL $6673
667B: 20 AE 63 JSR $63AE
667E: 60       RTS
667F: A9 00    LDA #$00
6681: A0 13    LDY #$13
6683: 91 48    STA ($48),Y
6685: 88       DEY
6686: 10 FB    BPL $6683
6688: 60       RTS
6689: A9 00    LDA #$00
668B: A4 6A    LDY $6A
668D: 88       DEY
668E: 91 80    STA ($80),Y
6690: 88       DEY
6691: 10 FB    BPL $668E
6693: 60       RTS
6694: A5 70    LDA $70
6696: 48       PHA
6697: A4 50    LDY $50
6699: A5 55    LDA $55
669B: 10 2D    BPL $66CA
669D: AD 57 BA LDA $BA57
66A0: C9 04    CMP #$04
66A2: F0 0B    BEQ $66AF
66A4: C9 02    CMP #$02
66A6: D0 12    BNE $66BA
66A8: AD B4 03 LDA $03B4
66AB: C9 13    CMP #$13
66AD: D0 0B    BNE $66BA
66AF: A9 1E    LDA #$1E
66B1: 91 4E    STA ($4E),Y
66B3: E6 50    INC $50
66B5: 20 97 67 JSR $6797
66B8: A4 50    LDY $50
66BA: A5 55    LDA $55
66BC: 91 4E    STA ($4E),Y
66BE: 00 01 07 INT $0701
66C1: 85 56    STA $56
66C3: E6 50    INC $50
66C5: 20 97 67 JSR $6797
66C8: A4 50    LDY $50
66CA: 91 4E    STA ($4E),Y
66CC: E6 50    INC $50
66CE: 20 97 67 JSR $6797
66D1: 68       PLA
66D2: 85 70    STA $70
66D4: 60       RTS
66D5: A9 00    LDA #$00
66D7: 8D 57 BA STA $BA57
66DA: 24 52    BIT $52
66DC: 50 25    BVC $6703
66DE: A4 55    LDY $55
66E0: 30 11    BMI $66F3
66E2: A4 50    LDY $50
66E4: 88       DEY
66E5: B1 4E    LDA ($4E),Y
66E7: C9 1E    CMP #$1E
66E9: D0 6A    BNE $6755
66EB: 84 50    STY $50
66ED: 20 BF 67 JSR $67BF
66F0: 4C 51 67 JMP $6751
66F3: A9 02    LDA #$02
66F5: AC B4 03 LDY $03B4
66F8: C0 13    CPY #$13
66FA: D0 4E    BNE $674A
66FC: A9 04    LDA #$04
66FE: 8D 57 BA STA $BA57
6701: D0 47    BNE $674A
6703: A4 50    LDY $50
6705: B1 4E    LDA ($4E),Y
6707: AA       TAX
6708: F0 D4    BEQ $66DE
670A: 29 80    AND #$80
670C: 85 57    STA $57
670E: A5 55    LDA $55
6710: 29 80    AND #$80
6712: C5 57    CMP $57
6714: F0 3B    BEQ $6751
6716: 90 1C    BCC $6734
6718: A9 01    LDA #$01
671A: AC B4 03 LDY $03B4
671D: C0 13    CPY #$13
671F: D0 29    BNE $674A
6721: E0 1E    CPX #$1E
6723: D0 08    BNE $672D
6725: E6 50    INC $50
6727: 20 97 67 JSR $6797
672A: 4C 51 67 JMP $6751
672D: A9 04    LDA #$04
672F: 8D 57 BA STA $BA57
6732: D0 16    BNE $674A
6734: A2 03    LDX #$03
6736: AC B4 03 LDY $03B4
6739: D0 0B    BNE $6746
673B: A4 50    LDY $50
673D: 88       DEY
673E: B1 4E    LDA ($4E),Y
6740: C9 1E    CMP #$1E
6742: D0 02    BNE $6746
6744: A2 05    LDX #$05
6746: 8A       TXA
6747: 8D 57 BA STA $BA57
674A: AA       TAX
674B: BD 59 67 LDA $6759,X
674E: 85 57    STA $57
6750: 60       RTS
6751: A9 00    LDA #$00
6753: F0 F5    BEQ $674A
6755: A9 01    LDA #$01
6757: D0 F1    BNE $674A
6759: 00 01 02 INT $0201
675C: FF       ??
675D: 03       ??
675E: FE 38 A5 INC $A538,X
6761: 4C E5 48 JMP $48E5
6764: 85 82    STA $82
6766: A5 4D    LDA $4D
6768: E5 49    SBC $49
676A: 85 83    STA $83
676C: 90 0F    BCC $677D
676E: A5 82    LDA $82
6770: 05 83    ORA $83
6772: F0 09    BEQ $677D
6774: A4 82    LDY $82
6776: A9 00    LDA #$00
6778: 91 48    STA ($48),Y
677A: 88       DEY
677B: D0 F9    BNE $6776
677D: A0 63    LDY #$63
677F: AD 47 04 LDA $0447
6782: C9 02    CMP #$02
6784: D0 02    BNE $6788
6786: A0 4F    LDY #$4F
6788: B1 4A    LDA ($4A),Y
678A: C9 1E    CMP #$1E
678C: D0 02    BNE $6790
678E: A9 20    LDA #$20
6790: 99 C0 02 STA $02C0,Y
6793: 88       DEY
6794: 10 F2    BPL $6788
6796: 60       RTS
6797: AE B4 03 LDX $03B4
679A: E8       INX
679B: E0 14    CPX #$14
679D: F0 04    BEQ $67A3
679F: 8E B4 03 STX $03B4
67A2: 60       RTS
67A3: A9 00    LDA #$00
67A5: 8D B4 03 STA $03B4
67A8: AE B5 03 LDX $03B5
67AB: E8       INX
67AC: E4 51    CPX $51
67AE: 90 0B    BCC $67BB
67B0: A5 6E    LDA $6E
67B2: 20 FE 62 JSR $62FE
67B5: 20 BF 68 JSR $68BF
67B8: A6 51    LDX $51
67BA: CA       DEX
67BB: 8E B5 03 STX $03B5
67BE: 60       RTS
67BF: CE B4 03 DEC $03B4
67C2: 30 01    BMI $67C5
67C4: 60       RTS
67C5: A9 13    LDA #$13
67C7: 8D B4 03 STA $03B4
67CA: CE B5 03 DEC $03B5
67CD: 30 01    BMI $67D0
67CF: 60       RTS
67D0: 20 86 60 JSR $6086
67D3: 20 BF 68 JSR $68BF
67D6: A9 00    LDA #$00
67D8: 8D B5 03 STA $03B5
67DB: 60       RTS
67DC: AD 75 BA LDA $BA75
67DF: 8D C8 08 STA $08C8
67E2: A9 00    LDA #$00
67E4: 8D D1 08 STA $08D1
67E7: AD 79 BA LDA $BA79
67EA: 8D CD 08 STA $08CD
67ED: AD 7A BA LDA $BA7A
67F0: 8D CE 08 STA $08CE
67F3: A9 00    LDA #$00
67F5: 8D CF 08 STA $08CF
67F8: 8D D0 08 STA $08D0
67FB: 00 19 05 INT $0519
67FE: B0 2E    BCS $682E
6800: A9 00    LDA #$00
6802: 85 E0    STA $E0
6804: A9 70    LDA #$70
6806: 85 E1    STA $E1
6808: A5 80    LDA $80
680A: 8D C6 08 STA $08C6
680D: A5 81    LDA $81
680F: 8D C7 08 STA $08C7
6812: A5 81    LDA $81
6814: C9 40    CMP #$40
6816: D0 04    BNE $681C
6818: A5 80    LDA $80
681A: C9 00    CMP #$00
681C: 90 0A    BCC $6828
681E: A9 00    LDA #$00
6820: 8D C6 08 STA $08C6
6823: A9 40    LDA #$40
6825: 8D C7 08 STA $08C7
6828: 00 16 05 INT $0516
682B: B0 01    BCS $682E
682D: 60       RTS
682E: 4C B8 4D JMP $4DB8
6831: A5 40    LDA $40
6833: 85 44    STA $44
6835: A5 41    LDA $41
6837: 85 45    STA $45
6839: A9 8E    LDA #$8E
683B: 85 42    STA $42
683D: A9 B8    LDA #$B8
683F: 85 43    STA $43
6841: A0 00    LDY #$00
6843: B1 40    LDA ($40),Y
6845: C8       INY
6846: 11 40    ORA ($40),Y
6848: F0 1B    BEQ $6865
684A: 20 2F 6A JSR $6A2F
684D: 20 11 6B JSR $6B11
6850: E6 6D    INC $6D
6852: A5 6F    LDA $6F
6854: A6 6D    LDX $6D
6856: 9D 48 BA STA $BA48,X
6859: A5 43    LDA $43
685B: C5 4D    CMP $4D
685D: D0 04    BNE $6863
685F: A5 42    LDA $42
6861: C5 4C    CMP $4C
6863: 90 DC    BCC $6841
6865: A5 40    LDA $40
6867: 85 46    STA $46
6869: A5 41    LDA $41
686B: 85 47    STA $47
686D: A5 42    LDA $42
686F: 85 48    STA $48
6871: A5 43    LDA $43
6873: 85 49    STA $49
6875: 60       RTS
6876: A9 8E    LDA #$8E
6878: 85 4A    STA $4A
687A: A9 B8    LDA #$B8
687C: 85 4B    STA $4B
687E: A9 F2    LDA #$F2
6880: 85 4C    STA $4C
6882: A9 B8    LDA #$B8
6884: 85 4D    STA $4D
6886: A9 8E    LDA #$8E
6888: 85 4E    STA $4E
688A: A9 B8    LDA #$B8
688C: 85 4F    STA $4F
688E: 24 52    BIT $52
6890: 10 08    BPL $689A
6892: A9 01    LDA #$01
6894: 0D 91 03 ORA $0391
6897: 8D 91 03 STA $0391
689A: A9 0C    LDA #$0C
689C: 8D 4A 04 STA $044A
689F: A9 00    LDA #$00
68A1: 8D 47 04 STA $0447
68A4: A9 00    LDA #$00
68A6: 8D B4 03 STA $03B4
68A9: 8D B5 03 STA $03B5
68AC: A2 0E    LDX #$0E
68AE: 9D 48 BA STA $BA48,X
68B1: CA       DEX
68B2: 10 FA    BPL $68AE
68B4: 85 6E    STA $6E
68B6: 85 6F    STA $6F
68B8: 85 6D    STA $6D
68BA: A9 05    LDA #$05
68BC: 85 51    STA $51
68BE: 60       RTS
68BF: A6 6E    LDX $6E
68C1: BD 48 BA LDA $BA48,X
68C4: 0A       ASL
68C5: AA       TAX
68C6: BD 98 6E LDA $6E98,X
68C9: 85 4E    STA $4E
68CB: BD 99 6E LDA $6E99,X
68CE: 85 4F    STA $4F
68D0: A6 6E    LDX $6E
68D2: E4 6D    CPX $6D
68D4: F0 1B    BEQ $68F1
68D6: 38       SEC
68D7: BD 49 BA LDA $BA49,X
68DA: FD 48 BA SBC $BA48,X
68DD: A8       TAY
68DE: B9 C2 6E LDA $6EC2,Y
68E1: 85 71    STA $71
68E3: A0 FF    LDY #$FF
68E5: C8       INY
68E6: C4 71    CPY $71
68E8: F0 04    BEQ $68EE
68EA: B1 4E    LDA ($4E),Y
68EC: D0 F7    BNE $68E5
68EE: 84 70    STY $70
68F0: 60       RTS
68F1: A9 14    LDA #$14
68F3: 85 71    STA $71
68F5: A9 00    LDA #$00
68F7: 85 70    STA $70
68F9: 60       RTS
68FA: A9 01    LDA #$01
68FC: 85 80    STA $80
68FE: A9 70    LDA #$70
6900: 85 81    STA $81
6902: A0 00    LDY #$00
6904: B1 80    LDA ($80),Y
6906: C8       INY
6907: 11 80    ORA ($80),Y
6909: D0 01    BNE $690C
690B: 60       RTS
690C: A0 03    LDY #$03
690E: C8       INY
690F: B1 80    LDA ($80),Y
6911: D0 FB    BNE $690E
6913: 18       CLC
6914: C8       INY
6915: 98       TYA
6916: 65 80    ADC $80
6918: AA       TAX
6919: A0 00    LDY #$00
691B: 91 80    STA ($80),Y
691D: A5 81    LDA $81
691F: 69 00    ADC #$00
6921: C8       INY
6922: 91 80    STA ($80),Y
6924: 86 80    STX $80
6926: 85 81    STA $81
6928: 4C 02 69 JMP $6902
692B: A9 00    LDA #$00
692D: A0 2B    LDY #$2B
692F: 99 8E B9 STA $B98E,Y
6932: 88       DEY
6933: 10 FA    BPL $692F
6935: A0 FF    LDY #$FF
6937: 99 8E B8 STA $B88E,Y
693A: 88       DEY
693B: D0 FA    BNE $6937
693D: 99 8E B8 STA $B88E,Y
6940: 60       RTS
6941: A0 63    LDY #$63
6943: A9 00    LDA #$00
6945: 99 BA B9 STA $B9BA,Y
6948: 88       DEY
6949: 10 FA    BPL $6945
694B: 60       RTS
694C: 18       CLC
694D: A9 8E    LDA #$8E
694F: 65 6A    ADC $6A
6951: 85 80    STA $80
6953: A9 B8    LDA #$B8
6955: 69 00    ADC #$00
6957: 85 81    STA $81
6959: A5 48    LDA $48
695B: 85 82    STA $82
695D: A5 49    LDA $49
695F: 85 83    STA $83
6961: 20 C1 6C JSR $6CC1
6964: 38       SEC
6965: A5 4A    LDA $4A
6967: E5 6A    SBC $6A
6969: 85 4A    STA $4A
696B: A5 4B    LDA $4B
696D: E9 00    SBC #$00
696F: 85 4B    STA $4B
6971: 38       SEC
6972: A5 4C    LDA $4C
6974: E5 6A    SBC $6A
6976: 85 4C    STA $4C
6978: A5 4D    LDA $4D
697A: E9 00    SBC #$00
697C: 85 4D    STA $4D
697E: 38       SEC
697F: A5 4E    LDA $4E
6981: E5 6A    SBC $6A
6983: 85 4E    STA $4E
6985: A5 4F    LDA $4F
6987: E9 00    SBC #$00
6989: 85 4F    STA $4F
698B: 38       SEC
698C: A5 48    LDA $48
698E: E5 6A    SBC $6A
6990: 85 48    STA $48
6992: A5 49    LDA $49
6994: E9 00    SBC #$00
6996: 85 49    STA $49
6998: 20 AE 63 JSR $63AE
699B: A5 44    LDA $44
699D: 85 80    STA $80
699F: A5 45    LDA $45
69A1: 85 81    STA $81
69A3: 24 52    BIT $52
69A5: 10 0C    BPL $69B3
69A7: A0 00    LDY #$00
69A9: B1 80    LDA ($80),Y
69AB: 85 44    STA $44
69AD: C8       INY
69AE: B1 80    LDA ($80),Y
69B0: 85 45    STA $45
69B2: 60       RTS
69B3: A0 00    LDY #$00
69B5: B1 80    LDA ($80),Y
69B7: 85 66    STA $66
69B9: C8       INY
69BA: B1 80    LDA ($80),Y
69BC: 85 67    STA $67
69BE: AD 7B BA LDA $BA7B
69C1: CD 7C BA CMP $BA7C
69C4: B0 5D    BCS $6A23
69C6: 69 01    ADC #$01
69C8: 0A       ASL
69C9: AA       TAX
69CA: BD 7D BA LDA $BA7D,X
69CD: 85 80    STA $80
69CF: BD 7E BA LDA $BA7E,X
69D2: 85 81    STA $81
69D4: A5 67    LDA $67
69D6: C5 81    CMP $81
69D8: D0 04    BNE $69DE
69DA: A5 66    LDA $66
69DC: C5 80    CMP $80
69DE: 90 43    BCC $6A23
69E0: A5 66    LDA $66
69E2: 85 82    STA $82
69E4: A5 67    LDA $67
69E6: 85 83    STA $83
69E8: A5 46    LDA $46
69EA: 85 68    STA $68
69EC: A5 47    LDA $47
69EE: 85 69    STA $69
69F0: 20 7D 6C JSR $6C7D
69F3: 38       SEC
69F4: A5 80    LDA $80
69F6: E5 53    SBC $53
69F8: 8D 79 BA STA $BA79
69FB: A5 81    LDA $81
69FD: E5 54    SBC $54
69FF: 8D 7A BA STA $BA7A
6A02: A9 00    LDA #$00
6A04: 85 80    STA $80
6A06: A9 40    LDA #$40
6A08: 85 81    STA $81
6A0A: 20 DC 67 JSR $67DC
6A0D: EE 7B BA INC $BA7B
6A10: 20 47 6C JSR $6C47
6A13: A5 68    LDA $68
6A15: 85 46    STA $46
6A17: A5 69    LDA $69
6A19: 85 47    STA $47
6A1B: A5 82    LDA $82
6A1D: 85 66    STA $66
6A1F: A5 83    LDA $83
6A21: 85 67    STA $67
6A23: 20 47 6C JSR $6C47
6A26: A5 68    LDA $68
6A28: 85 44    STA $44
6A2A: A5 69    LDA $69
6A2C: 85 45    STA $45
6A2E: 60       RTS
6A2F: A0 00    LDY #$00
6A31: B1 40    LDA ($40),Y
6A33: C8       INY
6A34: 11 40    ORA ($40),Y
6A36: D0 01    BNE $6A39
6A38: 60       RTS
6A39: A9 01    LDA #$01
6A3B: 85 59    STA $59
6A3D: C8       INY
6A3E: B1 40    LDA ($40),Y
6A40: AA       TAX
6A41: C8       INY
6A42: B1 40    LDA ($40),Y
6A44: 84 6B    STY $6B
6A46: 20 2F 6C JSR $6C2F
6A49: A0 FF    LDY #$FF
6A4B: C8       INY
6A4C: B5 82    LDA $82,X
6A4E: 91 42    STA ($42),Y
6A50: E8       INX
6A51: E0 05    CPX #$05
6A53: D0 F6    BNE $6A4B
6A55: 84 6C    STY $6C
6A57: A9 20    LDA #$20
6A59: A4 6B    LDY $6B
6A5B: 84 6B    STY $6B
6A5D: A4 6C    LDY $6C
6A5F: C8       INY
6A60: 84 6C    STY $6C
6A62: 91 42    STA ($42),Y
6A64: A4 6B    LDY $6B
6A66: C8       INY
6A67: B1 40    LDA ($40),Y
6A69: D0 01    BNE $6A6C
6A6B: 60       RTS
6A6C: 30 3A    BMI $6AA8
6A6E: C9 20    CMP #$20
6A70: B0 E9    BCS $6A5B
6A72: C8       INY
6A73: B1 40    LDA ($40),Y
6A75: 85 92    STA $92
6A77: C8       INY
6A78: B1 40    LDA ($40),Y
6A7A: 85 93    STA $93
6A7C: 84 6B    STY $6B
6A7E: E6 6C    INC $6C
6A80: A4 59    LDY $59
6A82: B9 C9 6E LDA $6EC9,Y
6A85: C5 6C    CMP $6C
6A87: F0 07    BEQ $6A90
6A89: B0 0D    BCS $6A98
6A8B: C8       INY
6A8C: 84 59    STY $59
6A8E: D0 F2    BNE $6A82
6A90: A9 1E    LDA #$1E
6A92: A4 6C    LDY $6C
6A94: 91 42    STA ($42),Y
6A96: E6 6C    INC $6C
6A98: A4 6C    LDY $6C
6A9A: A5 92    LDA $92
6A9C: 91 42    STA ($42),Y
6A9E: C8       INY
6A9F: A5 93    LDA $93
6AA1: 91 42    STA ($42),Y
6AA3: 84 6C    STY $6C
6AA5: 4C 64 6A JMP $6A64
6AA8: 38       SEC
6AA9: E9 7F    SBC #$7F
6AAB: AA       TAX
6AAC: 48       PHA
6AAD: 84 6B    STY $6B
6AAF: A0 00    LDY #$00
6AB1: A9 F6    LDA #$F6
6AB3: 85 80    STA $80
6AB5: A9 4F    LDA #$4F
6AB7: 85 81    STA $81
6AB9: CA       DEX
6ABA: F0 0C    BEQ $6AC8
6ABC: E6 80    INC $80
6ABE: D0 02    BNE $6AC2
6AC0: E6 81    INC $81
6AC2: B1 80    LDA ($80),Y
6AC4: 10 F6    BPL $6ABC
6AC6: 30 F1    BMI $6AB9
6AC8: 68       PLA
6AC9: 48       PHA
6ACA: C9 50    CMP #$50
6ACC: F0 04    BEQ $6AD2
6ACE: C9 4A    CMP #$4A
6AD0: B0 0D    BCS $6ADF
6AD2: A4 6C    LDY $6C
6AD4: A9 20    LDA #$20
6AD6: D1 42    CMP ($42),Y
6AD8: F0 05    BEQ $6ADF
6ADA: C8       INY
6ADB: 91 42    STA ($42),Y
6ADD: 84 6C    STY $6C
6ADF: A0 00    LDY #$00
6AE1: E6 80    INC $80
6AE3: D0 02    BNE $6AE7
6AE5: E6 81    INC $81
6AE7: B1 80    LDA ($80),Y
6AE9: 30 0A    BMI $6AF5
6AEB: A4 6C    LDY $6C
6AED: C8       INY
6AEE: 91 42    STA ($42),Y
6AF0: 84 6C    STY $6C
6AF2: 4C DF 6A JMP $6ADF
6AF5: 29 7F    AND #$7F
6AF7: A4 6C    LDY $6C
6AF9: C8       INY
6AFA: 91 42    STA ($42),Y
6AFC: 84 6C    STY $6C
6AFE: 68       PLA
6AFF: C9 4F    CMP #$4F
6B01: F0 08    BEQ $6B0B
6B03: C9 50    CMP #$50
6B05: F0 04    BEQ $6B0B
6B07: C9 4A    CMP #$4A
6B09: B0 03    BCS $6B0E
6B0B: 4C 57 6A JMP $6A57
6B0E: 4C 64 6A JMP $6A64
6B11: C8       INY
6B12: 98       TYA
6B13: 18       CLC
6B14: 65 40    ADC $40
6B16: 85 40    STA $40
6B18: 90 02    BCC $6B1C
6B1A: E6 41    INC $41
6B1C: E6 6C    INC $6C
6B1E: A5 6C    LDA $6C
6B20: C9 5F    CMP #$5F
6B22: 90 05    BCC $6B29
6B24: 20 7C 6B JSR $6B7C
6B27: 85 6C    STA $6C
6B29: 18       CLC
6B2A: 65 42    ADC $42
6B2C: 85 42    STA $42
6B2E: 90 02    BCC $6B32
6B30: E6 43    INC $43
6B32: A5 6F    LDA $6F
6B34: 0A       ASL
6B35: A8       TAY
6B36: B9 98 6E LDA $6E98,Y
6B39: 85 80    STA $80
6B3B: B9 99 6E LDA $6E99,Y
6B3E: 85 81    STA $81
6B40: C8       INY
6B41: C8       INY
6B42: 38       SEC
6B43: A5 80    LDA $80
6B45: E5 42    SBC $42
6B47: 85 80    STA $80
6B49: A5 81    LDA $81
6B4B: E5 43    SBC $43
6B4D: 85 81    STA $81
6B4F: 90 E5    BCC $6B36
6B51: 88       DEY
6B52: 88       DEY
6B53: 98       TYA
6B54: 4A       LSR
6B55: 85 6F    STA $6F
6B57: A5 80    LDA $80
6B59: 05 81    ORA $81
6B5B: D0 06    BNE $6B63
6B5D: E6 6F    INC $6F
6B5F: A2 14    LDX #$14
6B61: D0 03    BNE $6B66
6B63: A5 80    LDA $80
6B65: AA       TAX
6B66: A9 00    LDA #$00
6B68: A0 FF    LDY #$FF
6B6A: C8       INY
6B6B: 91 42    STA ($42),Y
6B6D: CA       DEX
6B6E: D0 FA    BNE $6B6A
6B70: C8       INY
6B71: 98       TYA
6B72: 18       CLC
6B73: 65 42    ADC $42
6B75: 85 42    STA $42
6B77: 90 02    BCC $6B7B
6B79: E6 43    INC $43
6B7B: 60       RTS
6B7C: A5 4E    LDA $4E
6B7E: 48       PHA
6B7F: A5 4F    LDA $4F
6B81: 48       PHA
6B82: A5 50    LDA $50
6B84: 48       PHA
6B85: A5 42    LDA $42
6B87: 85 4E    STA $4E
6B89: A5 43    LDA $43
6B8B: 85 4F    STA $4F
6B8D: A9 5E    LDA #$5E
6B8F: 85 50    STA $50
6B91: 20 B7 5F JSR $5FB7
6B94: D0 10    BNE $6BA6
6B96: C4 50    CPY $50
6B98: F0 0C    BEQ $6BA6
6B9A: 68       PLA
6B9B: 85 50    STA $50
6B9D: 68       PLA
6B9E: 85 4F    STA $4F
6BA0: 68       PLA
6BA1: 85 4E    STA $4E
6BA3: A9 5D    LDA #$5D
6BA5: 60       RTS
6BA6: 68       PLA
6BA7: 85 50    STA $50
6BA9: 68       PLA
6BAA: 85 4F    STA $4F
6BAC: 68       PLA
6BAD: 85 4E    STA $4E
6BAF: A9 5E    LDA #$5E
6BB1: 60       RTS
6BB2: E6 6C    INC $6C
6BB4: A5 6C    LDA $6C
6BB6: C9 5F    CMP #$5F
6BB8: 90 05    BCC $6BBF
6BBA: 20 7C 6B JSR $6B7C
6BBD: 85 6C    STA $6C
6BBF: 18       CLC
6BC0: 65 42    ADC $42
6BC2: 85 42    STA $42
6BC4: 90 02    BCC $6BC8
6BC6: E6 43    INC $43
6BC8: A0 00    LDY #$00
6BCA: B9 B6 6E LDA $6EB6,Y
6BCD: 85 80    STA $80
6BCF: B9 B7 6E LDA $6EB7,Y
6BD2: 85 81    STA $81
6BD4: C8       INY
6BD5: C8       INY
6BD6: 38       SEC
6BD7: A5 80    LDA $80
6BD9: E5 42    SBC $42
6BDB: 85 80    STA $80
6BDD: A5 81    LDA $81
6BDF: E5 43    SBC $43
6BE1: 85 81    STA $81
6BE3: 90 E5    BCC $6BCA
6BE5: 88       DEY
6BE6: 88       DEY
6BE7: 98       TYA
6BE8: 4A       LSR
6BE9: 85 6A    STA $6A
6BEB: A5 80    LDA $80
6BED: 05 81    ORA $81
6BEF: D0 06    BNE $6BF7
6BF1: E6 6A    INC $6A
6BF3: A2 14    LDX #$14
6BF5: D0 03    BNE $6BFA
6BF7: A5 80    LDA $80
6BF9: AA       TAX
6BFA: A9 00    LDA #$00
6BFC: A0 FF    LDY #$FF
6BFE: C8       INY
6BFF: 91 42    STA ($42),Y
6C01: CA       DEX
6C02: D0 FA    BNE $6BFE
6C04: 60       RTS
6C05: BD 48 BA LDA $BA48,X
6C08: 0A       ASL
6C09: AA       TAX
6C0A: BD 98 6E LDA $6E98,X
6C0D: 85 80    STA $80
6C0F: BD 99 6E LDA $6E99,X
6C12: 85 81    STA $81
6C14: 60       RTS
6C15: 20 05 6C JSR $6C05
6C18: A5 80    LDA $80
6C1A: 85 5B    STA $5B
6C1C: A5 81    LDA $81
6C1E: 85 5C    STA $5C
6C20: A5 5B    LDA $5B
6C22: D0 02    BNE $6C26
6C24: C6 5C    DEC $5C
6C26: C6 5B    DEC $5B
6C28: 20 48 5D JSR $5D48
6C2B: 20 5D 5D JSR $5D5D
6C2E: 60       RTS
6C2F: 86 80    STX $80
6C31: 85 81    STA $81
6C33: 00 33 C7 INT $C733
6C36: A2 FF    LDX #$FF
6C38: E8       INX
6C39: E0 05    CPX #$05
6C3B: D0 03    BNE $6C40
6C3D: A2 04    LDX #$04
6C3F: 60       RTS
6C40: B5 82    LDA $82,X
6C42: C9 30    CMP #$30
6C44: F0 F2    BEQ $6C38
6C46: 60       RTS
6C47: A5 66    LDA $66
6C49: 48       PHA
6C4A: A5 67    LDA $67
6C4C: 48       PHA
6C4D: 38       SEC
6C4E: A5 66    LDA $66
6C50: E5 53    SBC $53
6C52: 85 66    STA $66
6C54: A5 67    LDA $67
6C56: E5 54    SBC $54
6C58: 85 67    STA $67
6C5A: 38       SEC
6C5B: A5 66    LDA $66
6C5D: ED 79 BA SBC $BA79
6C60: 85 66    STA $66
6C62: A5 67    LDA $67
6C64: ED 7A BA SBC $BA7A
6C67: 85 67    STA $67
6C69: 18       CLC
6C6A: A5 66    LDA $66
6C6C: 69 00    ADC #$00
6C6E: 85 68    STA $68
6C70: A5 67    LDA $67
6C72: 69 70    ADC #$70
6C74: 85 69    STA $69
6C76: 68       PLA
6C77: 85 67    STA $67
6C79: 68       PLA
6C7A: 85 66    STA $66
6C7C: 60       RTS
6C7D: A5 68    LDA $68
6C7F: 48       PHA
6C80: A5 69    LDA $69
6C82: 48       PHA
6C83: 38       SEC
6C84: A5 68    LDA $68
6C86: E9 00    SBC #$00
6C88: 85 68    STA $68
6C8A: A5 69    LDA $69
6C8C: E9 70    SBC #$70
6C8E: 85 69    STA $69
6C90: 18       CLC
6C91: A5 68    LDA $68
6C93: 6D 79 BA ADC $BA79
6C96: 85 68    STA $68
6C98: A5 69    LDA $69
6C9A: 6D 7A BA ADC $BA7A
6C9D: 85 69    STA $69
6C9F: 18       CLC
6CA0: A5 68    LDA $68
6CA2: 65 53    ADC $53
6CA4: 85 66    STA $66
6CA6: A5 69    LDA $69
6CA8: 65 54    ADC $54
6CAA: 85 67    STA $67
6CAC: 68       PLA
6CAD: 85 69    STA $69
6CAF: 68       PLA
6CB0: 85 68    STA $68
6CB2: 60       RTS
6CB3: 38       SEC
6CB4: A5 66    LDA $66
6CB6: E5 53    SBC $53
6CB8: 85 84    STA $84
6CBA: A5 67    LDA $67
6CBC: E5 54    SBC $54
6CBE: 85 85    STA $85
6CC0: 60       RTS
6CC1: A5 6A    LDA $6A
6CC3: D0 01    BNE $6CC6
6CC5: 60       RTS
6CC6: 38       SEC
6CC7: A5 82    LDA $82
6CC9: E5 80    SBC $80
6CCB: A8       TAY
6CCC: 85 84    STA $84
6CCE: A5 83    LDA $83
6CD0: E5 81    SBC $81
6CD2: AA       TAX
6CD3: E8       INX
6CD4: 38       SEC
6CD5: A9 00    LDA #$00
6CD7: E5 84    SBC $84
6CD9: A8       TAY
6CDA: 85 84    STA $84
6CDC: 38       SEC
6CDD: A5 80    LDA $80
6CDF: E5 84    SBC $84
6CE1: 85 80    STA $80
6CE3: A5 81    LDA $81
6CE5: E9 00    SBC #$00
6CE7: 85 81    STA $81
6CE9: 38       SEC
6CEA: A5 80    LDA $80
6CEC: E5 6A    SBC $6A
6CEE: 85 82    STA $82
6CF0: A5 81    LDA $81
6CF2: E9 00    SBC #$00
6CF4: 85 83    STA $83
6CF6: B1 80    LDA ($80),Y
6CF8: 91 82    STA ($82),Y
6CFA: C8       INY
6CFB: D0 F9    BNE $6CF6
6CFD: E6 81    INC $81
6CFF: E6 83    INC $83
6D01: CA       DEX
6D02: D0 F2    BNE $6CF6
6D04: 60       RTS
6D05: A5 6A    LDA $6A
6D07: D0 01    BNE $6D0A
6D09: 60       RTS
6D0A: 38       SEC
6D0B: A5 82    LDA $82
6D0D: E5 80    SBC $80
6D0F: A8       TAY
6D10: 85 84    STA $84
6D12: A5 83    LDA $83
6D14: E5 81    SBC $81
6D16: AA       TAX
6D17: E8       INX
6D18: 38       SEC
6D19: A5 82    LDA $82
6D1B: E5 84    SBC $84
6D1D: 85 82    STA $82
6D1F: A5 83    LDA $83
6D21: E9 00    SBC #$00
6D23: 85 83    STA $83
6D25: 18       CLC
6D26: A5 82    LDA $82
6D28: 65 6A    ADC $6A
6D2A: 85 80    STA $80
6D2C: A5 83    LDA $83
6D2E: 69 00    ADC #$00
6D30: 85 81    STA $81
6D32: 4C 39 6D JMP $6D39
6D35: B1 82    LDA ($82),Y
6D37: 91 80    STA ($80),Y
6D39: 88       DEY
6D3A: D0 F9    BNE $6D35
6D3C: B1 82    LDA ($82),Y
6D3E: 91 80    STA ($80),Y
6D40: C6 81    DEC $81
6D42: C6 83    DEC $83
6D44: 88       DEY
6D45: CA       DEX
6D46: D0 ED    BNE $6D35
6D48: 60       RTS
6D49: A9 00    LDA #$00
6D4B: 85 80    STA $80
6D4D: A9 70    LDA #$70
6D4F: 85 81    STA $81
6D51: A0 00    LDY #$00
6D53: A2 40    LDX #$40
6D55: A9 00    LDA #$00
6D57: 91 80    STA ($80),Y
6D59: C8       INY
6D5A: D0 FB    BNE $6D57
6D5C: E6 81    INC $81
6D5E: CA       DEX
6D5F: D0 F6    BNE $6D57
6D61: 60       RTS
6D62: A6 6E    LDX $6E
6D64: 20 EC 61 JSR $61EC
6D67: A0 00    LDY #$00
6D69: B1 80    LDA ($80),Y
6D6B: 85 66    STA $66
6D6D: C8       INY
6D6E: B1 80    LDA ($80),Y
6D70: 85 67    STA $67
6D72: 20 47 6C JSR $6C47
6D75: A5 80    LDA $80
6D77: 85 83    STA $83
6D79: A5 81    LDA $81
6D7B: 85 84    STA $84
6D7D: 38       SEC
6D7E: A5 83    LDA $83
6D80: E9 01    SBC #$01
6D82: 85 83    STA $83
6D84: A5 84    LDA $84
6D86: E9 70    SBC #$70
6D88: 85 84    STA $84
6D8A: 18       CLC
6D8B: A5 83    LDA $83
6D8D: 6D 79 BA ADC $BA79
6D90: 85 83    STA $83
6D92: A5 84    LDA $84
6D94: 6D 7A BA ADC $BA7A
6D97: 85 84    STA $84
6D99: A5 66    LDA $66
6D9B: 05 67    ORA $67
6D9D: F0 14    BEQ $6DB3
6D9F: A0 00    LDY #$00
6DA1: B1 68    LDA ($68),Y
6DA3: C8       INY
6DA4: 11 68    ORA ($68),Y
6DA6: D0 0B    BNE $6DB3
6DA8: A5 83    LDA $83
6DAA: 85 80    STA $80
6DAC: A5 84    LDA $84
6DAE: 85 81    STA $81
6DB0: 4C DB 6D JMP $6DDB
6DB3: 24 52    BIT $52
6DB5: 30 0D    BMI $6DC4
6DB7: AD 77 BA LDA $BA77
6DBA: 85 80    STA $80
6DBC: AD 78 BA LDA $BA78
6DBF: 85 81    STA $81
6DC1: 4C DB 6D JMP $6DDB
6DC4: AD 58 BA LDA $BA58
6DC7: 85 80    STA $80
6DC9: AD 59 BA LDA $BA59
6DCC: 85 81    STA $81
6DCE: 38       SEC
6DCF: A5 80    LDA $80
6DD1: E9 03    SBC #$03
6DD3: 85 80    STA $80
6DD5: A5 81    LDA $81
6DD7: E9 70    SBC #$70
6DD9: 85 81    STA $81
6DDB: A9 00    LDA #$00
6DDD: 85 82    STA $82
6DDF: 85 85    STA $85
6DE1: 20 F4 6D JSR $6DF4
6DE4: A5 66    LDA $66
6DE6: 05 67    ORA $67
6DE8: F0 01    BEQ $6DEB
6DEA: 60       RTS
6DEB: AD 90 03 LDA $0390
6DEE: 09 80    ORA #$80
6DF0: 8D 90 03 STA $0390
6DF3: 60       RTS
6DF4: AD 90 03 LDA $0390
6DF7: 29 BF    AND #$BF
6DF9: 8D 90 03 STA $0390
6DFC: AD 90 03 LDA $0390
6DFF: 29 7F    AND #$7F
6E01: 8D 90 03 STA $0390
6E04: A5 80    LDA $80
6E06: 05 81    ORA $81
6E08: D0 04    BNE $6E0E
6E0A: A2 09    LDX #$09
6E0C: D0 71    BNE $6E7F
6E0E: A5 83    LDA $83
6E10: 05 84    ORA $84
6E12: F0 08    BEQ $6E1C
6E14: AD 90 03 LDA $0390
6E17: 09 40    ORA #$40
6E19: 8D 90 03 STA $0390
6E1C: A5 84    LDA $84
6E1E: C5 81    CMP $81
6E20: D0 04    BNE $6E26
6E22: A5 83    LDA $83
6E24: C5 80    CMP $80
6E26: 90 04    BCC $6E2C
6E28: A2 09    LDX #$09
6E2A: D0 53    BNE $6E7F
6E2C: AD 90 03 LDA $0390
6E2F: 09 80    ORA #$80
6E31: 8D 90 03 STA $0390
6E34: A5 83    LDA $83
6E36: 85 86    STA $86
6E38: A5 84    LDA $84
6E3A: 85 87    STA $87
6E3C: A5 85    LDA $85
6E3E: 85 88    STA $88
6E40: 06 83    ASL $83
6E42: 26 84    ROL $84
6E44: 26 85    ROL $85
6E46: 06 83    ASL $83
6E48: 26 84    ROL $84
6E4A: 26 85    ROL $85
6E4C: 06 83    ASL $83
6E4E: 26 84    ROL $84
6E50: 26 85    ROL $85
6E52: 18       CLC
6E53: A5 83    LDA $83
6E55: 65 86    ADC $86
6E57: 85 83    STA $83
6E59: A5 84    LDA $84
6E5B: 65 87    ADC $87
6E5D: 85 84    STA $84
6E5F: A5 85    LDA $85
6E61: 65 88    ADC $88
6E63: 85 85    STA $85
6E65: A2 00    LDX #$00
6E67: 38       SEC
6E68: A5 83    LDA $83
6E6A: E5 80    SBC $80
6E6C: 85 83    STA $83
6E6E: A5 84    LDA $84
6E70: E5 81    SBC $81
6E72: 85 84    STA $84
6E74: A5 85    LDA $85
6E76: E5 82    SBC $82
6E78: 85 85    STA $85
6E7A: 90 03    BCC $6E7F
6E7C: E8       INX
6E7D: D0 E8    BNE $6E67
6E7F: AD 8A 03 LDA $038A
6E82: E0 09    CPX #$09
6E84: 90 06    BCC $6E8C
6E86: 09 80    ORA #$80
6E88: A2 09    LDX #$09
6E8A: D0 02    BNE $6E8E
6E8C: 29 7F    AND #$7F
6E8E: 8D 8A 03 STA $038A
6E91: BD CF 6E LDA $6ECF,X
6E94: 8D 89 03 STA $0389
6E97: 60       RTS
6E98: 8E B8 A2 STX $A2B8
6E9B: B8       CLV
6E9C: B6 B8    LDX $B8,Y
6E9E: CA       DEX
6E9F: B8       CLV
6EA0: DE B8 F2 DEC $F2B8,X
6EA3: B8       CLV
6EA4: 06 B9    ASL $B9
6EA6: 1A       ??
6EA7: B9 2E B9 LDA $B92E,Y
6EAA: 42       ??
6EAB: B9 56 B9 LDA $B956,Y
6EAE: 6A       ROR
6EAF: B9 7E B9 LDA $B97E,Y
6EB2: 92       ??
6EB3: B9 A6 B9 LDA $B9A6,Y
6EB6: BA       TSX
6EB7: B9 CE B9 LDA $B9CE,Y
6EBA: E2       ??
6EBB: B9 F6 B9 LDA $B9F6,Y
6EBE: 0A       ASL
6EBF: BA       TSX
6EC0: 1E BA 00 ASL $00BA,X
6EC3: 14       ??
6EC4: 28       PLP
6EC5: 3C       ??
6EC6: 50 64    BVC $6F2C
6EC8: 78       SEI
6EC9: 00 13 27 INT $2713
6ECC: 3B       ??
6ECD: 4F       ??
6ECE: 63       ??
6ECF: 80       ??
6ED0: C0 E0    CPY #$E0
6ED2: F0 F8    BEQ $6ECC
6ED4: FC       ??
6ED5: FE FF FF INC $FFFF,X
6ED8: FF       ??
6ED9: 80       ??
6EDA: 05 6F    ORA $6F
6EDC: 2A       ROL
6EDD: 14       ??
6EDE: 08       PHP
6EDF: 04       ??
6EE0: E2       ??
6EE1: 6E 02 CB ROR $CB02
6EE4: 5E CB 5E LSR $5ECB,X
6EE7: CB       ??
6EE8: 5E CB 5E LSR $5ECB,X
6EEB: CB       ??
6EEC: 5E CB 5E LSR $5ECB,X
6EEF: CB       ??
6EF0: 5E CB 5E LSR $5ECB,X
6EF3: B9 5E CA LDA $CA5E,Y
6EF6: 5E D0 5E LSR $5ED0,X
6EF9: D0 5E    BNE $6F59
6EFB: D0 5E    BNE $6F5B
6EFD: DE 5E D0 DEC $D05E,X
6F00: 5E D0 5E LSR $5ED0,X
6F03: 03       ??
6F04: 5F       ??
6F05: CE DE D0 DEC $D0DE
6F08: D0 BA    BNE $6EC4
6F0A: C5 BB    CMP $BB
6F0C: F2       ??
6F0D: 00 D0 D0 INT $D0D0
6F10: BA       TSX
6F11: C5 D3    CMP $D3
6F13: D0 CE    BNE $6EE3
6F15: F3       ??
6F16: 00 00 3D INT $3D00
6F19: 3D 3D 3D AND $3D3D,X
6F1C: 3D 20 47 AND $4720,X
6F1F: 56 20    LSR $20,X
6F21: 42       ??
6F22: 41 53    EOR ($53,X)
6F24: 49 43    EOR #$43
6F26: 20 3D 3D JSR $3D3D
6F29: 3D 3D 3D AND $3D3D,X
6F2C: 00 B0 B4 INT $B4B0
6F2F: 20 3C 11 JSR $113C
6F32: 3E 20 2C ROL $2C20,X
6F35: 20 3C 1E JSR $1E3C
6F38: 3E 20 2C ROL $2C20,X
6F3B: 20 3C 10 JSR $103C
6F3E: 3E 20 2C ROL $2C20,X
6F41: 00 3C 1F INT $1F3C
6F44: 3E 20 E4 ROL $E420,X
6F47: AF       ??
6F48: C0 C0    CPY #$C0
6F4A: A1 A3    LDA ($A3,X)
6F4C: 00 B0 B4 INT $B4B0
6F4F: 20 3C CC JSR $CC3C
6F52: F8       SED
6F53: B3       ??
6F54: F6 3E    INC $3E,X
6F56: 20 BC FC JSR $FCBC
6F59: CD CB B3 CMP $B3CB
6F5C: F6 B1    INC $B1,X
6F5E: E0 BC    CPX #$BC
6F60: AD 00 BB LDA $BB00
6F63: F2       ??
6F64: E4 AF    CPX $AF
6F66: C0 C0    CPY #$C0
6F68: A1 A3    LDA ($A3,X)
6F6A: 00 C8 E7 INT $E7C8
6F6D: B9 FB BF LDA $BFFB,Y
6F70: C9 D2    CMP #$D2
6F72: D4       ??
6F73: B1 E0    LDA ($E0),Y
6F75: BC AD 3A LDY $3AAD,X
6F78: 00 B0 B4 INT $B4B0
6F7B: 20 3C CA JSR $CA3C
6F7E: E4 C8    CPX $C8
6F80: EB       ??
6F81: 3E 20 BC ROL $BC20,X
6F84: FC       ??
6F85: B1 A3    LDA ($A3),Y
6F87: B4 E6    LDY $E6,X
6F89: B3       ??
6F8A: CC D0 F2 CPY $F2D0
6F8D: 00 D0 D0 INT $D0D0
6F90: A1 A3    LDA ($A3,X)
6F92: 00 B0 B4 INT $B4B0
6F95: 20 3C 46 JSR $463C
6F98: 31 3E    AND ($3E),Y
6F9A: 20 BC FC JSR $FCBC
6F9D: C7       ??
6F9E: D0 BB    BNE $6F5B
6FA0: BB       ??
6FA1: B2       ??
6FA2: E5 C8    SBC $C8
6FA4: EB       ??
6FA5: A3       ??
6FA6: AF       ??
6FA7: 00 CC E6 INT $E6CC
6FAA: BB       ??
6FAB: BB       ??
6FAC: C4 A3    CPY $A3
6FAE: CA       DEX
6FAF: BD A1 A3 LDA $A3A1,X
6FB2: 00 B0 B4 INT $B4B0
6FB5: 20 3C 46 JSR $463C
6FB8: 32       ??
6FB9: 3E 20 BC ROL $BC20,X
6FBC: FC       ??
6FBD: C9 BE    CMP #$BE
6FBF: B3       ??
6FC0: FD D7 D6 SBC $D6D7,X
6FC3: B7       ??
6FC4: FB       ??
6FC5: A1 A3    LDA ($A3,X)
6FC7: 00 00 FF INT $FF00
6FCA: FF       ??
6FCB: FF       ??
6FCC: FF       ??
6FCD: FF       ??
6FCE: FF       ??
6FCF: FF       ??
6FD0: FF       ??
6FD1: FF       ??
6FD2: FF       ??
6FD3: FF       ??
6FD4: FF       ??
6FD5: FF       ??
6FD6: FF       ??
6FD7: FF       ??
6FD8: FF       ??
6FD9: FF       ??
6FDA: FF       ??
6FDB: FF       ??
6FDC: FF       ??
6FDD: FF       ??
6FDE: FF       ??
6FDF: FF       ??
6FE0: FF       ??
6FE1: FF       ??
6FE2: FF       ??
6FE3: FF       ??
6FE4: FF       ??
6FE5: FF       ??
6FE6: FF       ??
6FE7: FF       ??
6FE8: FF       ??
6FE9: FF       ??
6FEA: FF       ??
6FEB: FF       ??
6FEC: FF       ??
6FED: FF       ??
6FEE: FF       ??
6FEF: FF       ??
6FF0: FF       ??
6FF1: FF       ??
6FF2: FF       ??
6FF3: FF       ??
6FF4: FF       ??
6FF5: FF       ??
6FF6: FF       ??
6FF7: FF       ??
6FF8: FF       ??
6FF9: FF       ??
6FFA: FF       ??
6FFB: FF       ??
6FFC: FF       ??
6FFD: FF       ??
6FFE: FF       ??
6FFF: FF       ??
7000: 4C 03 60 JMP $6003
7003: 8A       TXA
7004: 48       PHA
7005: A9 00    LDA #$00
7007: A2 09    LDX #$09
7009: 9D 88 03 STA $0388,X
700C: CA       DEX
700D: D0 FA    BNE $7009
700F: 68       PLA
7010: AA       TAX
7011: A9 00    LDA #$00
7013: 8D 8F B9 STA $B98F
7016: A9 20    LDA #$20
7018: 8D 90 B9 STA $B990
701B: A9 00    LDA #$00
701D: 8D 91 B9 STA $B991
7020: A9 60    LDA #$60
7022: 8D 92 B9 STA $B992
7025: A9 00    LDA #$00
7027: 8D 00 20 STA $2000
702A: A9 20    LDA #$20
702C: 8D 01 20 STA $2001
702F: A9 00    LDA #$00
7031: 8D 93 B9 STA $B993
7034: A9 BD    LDA #$BD
7036: 8D 94 B9 STA $B994
7039: A9 00    LDA #$00
703B: 8D 95 B9 STA $B995
703E: A9 BF    LDA #$BF
7040: 8D 96 B9 STA $B996
7043: A2 E0    LDX #$E0
7045: A0 BC    LDY #$BC
7047: 8E 45 B9 STX $B945
704A: 8C 46 B9 STY $B946
704D: 86 80    STX $80
704F: 84 81    STY $81
7051: BA       TSX
7052: 8A       TXA
7053: A0 00    LDY #$00
7055: 91 80    STA ($80),Y
7057: C8       INY
7058: BD 00 01 LDA $0100,X
705B: 91 80    STA ($80),Y
705D: C8       INY
705E: E8       INX
705F: D0 F7    BNE $7058
7061: A9 00    LDA #$00
7063: A2 51    LDX #$51
7065: 9D D9 B8 STA $B8D9,X
7068: CA       DEX
7069: 10 FA    BPL $7065
706B: 20 EF AE JSR $AEEF
706E: A9 00    LDA #$00
7070: AC FE 03 LDY $03FE
7073: 20 CF 7D JSR $7DCF
7076: A2 BB    LDX #$BB
7078: A0 B8    LDY #$B8
707A: 20 99 A1 JSR $A199
707D: A2 FF    LDX #$FF
707F: 8E 15 B8 STX $B815
7082: A2 F8    LDX #$F8
7084: 9A       TXS
7085: 20 4A 86 JSR $864A
7088: A9 4C    LDA #$4C
708A: 8D 5E B9 STA $B95E
708D: A2 00    LDX #$00
708F: 8E 11 B8 STX $B811
7092: 8E 4D B9 STX $B94D
7095: 86 48    STX $48
7097: 8A       TXA
7098: 48       PHA
7099: 8D 04 B8 STA $B804
709C: A2 49    LDX #$49
709E: 86 42    STX $42
70A0: AC 91 B9 LDY $B991
70A3: AD 92 B9 LDA $B992
70A6: 8C D1 B8 STY $B8D1
70A9: 8D D2 B8 STA $B8D2
70AC: 8C CF B8 STY $B8CF
70AF: 8D D0 B8 STA $B8D0
70B2: AE 8F B9 LDX $B98F
70B5: AC 90 B9 LDY $B990
70B8: 86 54    STX $54
70BA: 84 55    STY $55
70BC: E6 54    INC $54
70BE: D0 02    BNE $70C2
70C0: E6 55    INC $55
70C2: 20 18 89 JSR $8918
70C5: 20 93 72 JSR $7293
70C8: AD 07 04 LDA $0407
70CB: 09 80    ORA #$80
70CD: 8D 07 04 STA $0407
70D0: A9 80    LDA #$80
70D2: 8D 41 0B STA $0B41
70D5: A9 00    LDA #$00
70D7: 8D 40 0B STA $0B40
70DA: 8D 68 B9 STA $B968
70DD: 8D B4 03 STA $03B4
70E0: 8D B5 03 STA $03B5
70E3: 8D B3 03 STA $03B3
70E6: 8D 47 04 STA $0447
70E9: A9 01    LDA #$01
70EB: 8D C4 B8 STA $B8C4
70EE: 4C 6F 75 JMP $756F
70F1: BA       TSX
70F2: 8E 26 B8 STX $B826
70F5: 20 EC 74 JSR $74EC
70F8: 00 08 C0 INT $C008
70FB: A5 5E    LDA $5E
70FD: A4 5F    LDY $5F
70FF: AE 15 B8 LDX $B815
7102: E8       INX
7103: F0 06    BEQ $710B
7105: 8D D3 B8 STA $B8D3
7108: 8C D4 B8 STY $B8D4
710B: A0 00    LDY #$00
710D: B1 5E    LDA ($5E),Y
710F: F0 03    BEQ $7114
7111: 4C 95 61 JMP $6195
7114: A0 02    LDY #$02
7116: B1 5E    LDA ($5E),Y
7118: 18       CLC
7119: D0 19    BNE $7134
711B: 2C 4E B9 BIT $B94E
711E: 70 03    BVS $7123
7120: 4C 29 75 JMP $7529
7123: 20 57 66 JSR $6657
7126: 20 7C 68 JSR $687C
7129: A9 00    LDA #$00
712B: 85 5E    STA $5E
712D: A9 20    LDA #$20
712F: 85 5F    STA $5F
7131: 4C 0B 61 JMP $610B
7134: C8       INY
7135: B1 5E    LDA ($5E),Y
7137: 8D 14 B8 STA $B814
713A: C8       INY
713B: B1 5E    LDA ($5E),Y
713D: 8D 15 B8 STA $B815
7140: 98       TYA
7141: 65 5E    ADC $5E
7143: 85 5E    STA $5E
7145: 90 02    BCC $7149
7147: E6 5F    INC $5F
7149: 2C 11 B8 BIT $B811
714C: 10 3E    BPL $718C
714E: AE 15 B8 LDX $B815
7151: E8       INX
7152: F0 38    BEQ $718C
7154: A2 00    LDX #$00
7156: 8E C2 B8 STX $B8C2
7159: 8E C6 B8 STX $B8C6
715C: 20 2C 72 JSR $722C
715F: 20 4A 6E JSR $6E4A
7162: A9 00    LDA #$00
7164: 8D B4 03 STA $03B4
7167: A9 7E    LDA #$7E
7169: 20 E3 79 JSR $79E3
716C: AE 14 B8 LDX $B814
716F: AD 15 B8 LDA $B815
7172: 20 7E A4 JSR $A47E
7175: 20 DE 79 JSR $79DE
7178: A9 00    LDA #$00
717A: 8D 01 B8 STA $B801
717D: AD C6 B8 LDA $B8C6
7180: 8D C2 B8 STA $B8C2
7183: 20 BE 6F JSR $6FBE
7186: 20 9A AD JSR $AD9A
7189: 00 06 C0 INT $C006
718C: 20 34 66 JSR $6634
718F: 20 A4 61 JSR $61A4
7192: 4C F1 60 JMP $60F1
7195: C9 3A    CMP #$3A
7197: D0 03    BNE $719C
7199: 4C 49 61 JMP $6149
719C: 4C FD 9C JMP $9CFD
719F: D0 03    BNE $71A4
71A1: 4C 29 75 JMP $7529
71A4: D0 01    BNE $71A7
71A6: 60       RTS
71A7: E9 80    SBC #$80
71A9: 90 11    BCC $71BC
71AB: C9 40    CMP #$40
71AD: B0 ED    BCS $719C
71AF: 0A       ASL
71B0: A8       TAY
71B1: B9 C4 61 LDA $61C4,Y
71B4: 48       PHA
71B5: B9 C3 61 LDA $61C3,Y
71B8: 48       PHA
71B9: 4C 34 66 JMP $6634
71BC: 4C BC 77 JMP $77BC
71BF: 68       PLA
71C0: 68       PLA
71C1: 60       RTS
71C2: 60       RTS
71C3: 04       ??
71C4: 75 22    ADC $22,X
71C6: 74       ??
71C7: 96 7C    STX $7C,Y
71C9: 5F       ??
71CA: 76 59    ROR $59,X
71CC: 7A       ??
71CD: A2 86    LDX #$86
71CF: C4 7D    CPY $7D
71D1: 4A       LSR
71D2: 7B       ??
71D3: 0B       ??
71D4: 7B       ??
71D5: 42       ??
71D6: 86 44    STX $44
71D8: 86 F2    STX $F2
71DA: 75 BB    ADC $BB,X
71DC: 77       ??
71DD: BD 75 6E LDA $6E75,X
71E0: 75 E4    ADC $E4,X
71E2: 76 CB    ROR $CB,X
71E4: 74       ??
71E5: 94 75    STY $75,X
71E7: F2       ??
71E8: 75 41    ADC $41,X
71EA: 77       ??
71EB: 01 75    ORA ($75,X)
71ED: 54       ??
71EE: 77       ??
71EF: F9 7D 56 SBC $567D,Y
71F2: AF       ??
71F3: 4A       LSR
71F4: 78       SEI
71F5: 47       ??
71F6: 75 FB    ADC $FB,X
71F8: 72       ??
71F9: AD 72 8F LDA $8F72
71FC: 72       ??
71FD: 63       ??
71FE: 88       DEY
71FF: 7B       ??
7200: 88       DEY
7201: 31 88    AND ($88),Y
7203: 49 86    EOR #$86
7205: 4D 86 51 EOR $5186
7208: 86 24    STX $24
720A: 88       DEY
720B: 27       ??
720C: 88       DEY
720D: 00 85 14 INT $1485
7210: 89       ??
7211: C1 89    CMP ($89,X)
7213: DF       ??
7214: 89       ??
7215: E2       ??
7216: 89       ??
7217: E5 89    SBC $89
7219: 06 8D    ASL $8D
721B: 64       ??
721C: 8F       ??
721D: B1 90    LDA ($90),Y
721F: 97       ??
7220: 91 C0    STA ($C0),Y
7222: 92       ??
7223: 8A       TXA
7224: 94 10    STY $10,X
7226: 94 A5    STY $A5,X
7228: 86 A8    STX $A8
722A: 86 0E    STX $0E
722C: 87       ??
722D: 41 87    EOR ($87,X)
722F: 6D 87 C9 ADC $C987
7232: 87       ??
7233: EB       ??
7234: 87       ??
7235: 8B       ??
7236: 88       DEY
7237: 8C 72 26 STY $2672
723A: 73       ??
723B: B9 73 4D LDA $4D73,Y
723E: AF       ??
723F: D4       ??
7240: 96 D1    STX $D1,Y
7242: 96 02    STX $02,Y
7244: A2 AF    LDX #$AF
7246: A2 37    LDX #$37
7248: A2 DD    LDX #$DD
724A: 7D E7 A5 ADC $A5E7,X
724D: 10 A7    BPL $71F6
724F: 8B       ??
7250: 9F       ??
7251: 64       ??
7252: A6 4D    LDX $4D
7254: A7       ??
7255: 54       ??
7256: A7       ??
7257: 9F       ??
7258: A7       ??
7259: 05 A8    ORA $A8
725B: 29 86    AND #$86
725D: A4 85    LDY $85
725F: AE 7E D6 LDX $D67E
7262: 85 B4    STA $B4
7264: 85 B8    STA $B8
7266: 94 D3    STY $D3,X
7268: 94 FD    STY $FD,X
726A: 94 1F    STY $1F,X
726C: 95 48    STA $48,X
726E: 95 8B    STA $8B,X
7270: 95 12    STA $12,X
7272: 85 26    STA $26
7274: 85 52    STA $52
7276: 85 5D    STA $5D
7278: 85 45    STA $45
727A: 4E C4 46 LSR $46C4
727D: 4F       ??
727E: D2       ??
727F: 4E 45 58 LSR $5845
7282: D4       ??
7283: 44       ??
7284: 41 54    EOR ($54,X)
7286: C1 49    CMP ($49,X)
7288: 4E 50 55 LSR $5550
728B: D4       ??
728C: 44       ??
728D: 45 CC    EOR $CC
728F: 44       ??
7290: 49 CD    EOR #$CD
7292: 52       ??
7293: 45 41    EOR $41
7295: C4 53    CPY $53
7297: 57       ??
7298: 41 D0    EOR ($D0,X)
729A: 54       ??
729B: 52       ??
729C: 41 43    EOR ($43,X)
729E: C5 4E    CMP $4E
72A0: 4F       ??
72A1: 54       ??
72A2: 52       ??
72A3: 41 43    EOR ($43,X)
72A5: C5 50    CMP $50
72A7: 4F       ??
72A8: D0 4C    BNE $72F6
72AA: 45 D4    EOR $D4
72AC: 47       ??
72AD: 4F       ??
72AE: 54       ??
72AF: CF       ??
72B0: 52       ??
72B1: 55 CE    EOR $CE,X
72B3: 49 C6    EOR #$C6
72B5: 52       ??
72B6: 45 53    EOR $53
72B8: 54       ??
72B9: 4F       ??
72BA: 52       ??
72BB: C5 47    CMP $47
72BD: 4F       ??
72BE: 53       ??
72BF: 55 C2    EOR $C2,X
72C1: 52       ??
72C2: 45 54    EOR $54
72C4: 55 52    EOR $52,X
72C6: CE 52 45 DEC $4552
72C9: CD 53 54 CMP $5453
72CC: 4F       ??
72CD: D0 4F    BNE $731E
72CF: CE 44 45 DEC $4544
72D2: C6 50    DEC $50
72D4: 4F       ??
72D5: 4B       ??
72D6: C5 50    CMP $50
72D8: 52       ??
72D9: 49 4E    EOR #$4E
72DB: D4       ??
72DC: 43       ??
72DD: 4F       ??
72DE: 4E D4 4C LSR $4CD4
72E1: 49 53    EOR #$53
72E3: D4       ??
72E4: 43       ??
72E5: 4C 45 41 JMP $4145
72E8: D2       ??
72E9: 4E 45 D7 LSR $D745
72EC: 54       ??
72ED: 45 58    EOR $58
72EF: D4       ??
72F0: 47       ??
72F1: 52       ??
72F2: 41 50    EOR ($50,X)
72F4: C8       INY
72F5: 53       ??
72F6: 59 53 54 EOR $5453,Y
72F9: 45 CD    EOR $CD
72FB: 4E 4F 52 LSR $524F
72FE: 4D 41 CC EOR $CC41
7301: 49 4E    EOR #$4E
7303: 56 45    LSR $45,X
7305: 52       ??
7306: 53       ??
7307: C5 46    CMP $46
7309: 4C 41 53 JMP $5341
730C: C8       INY
730D: 50 4C    BVC $735B
730F: 41 D9    EOR ($D9,X)
7311: 42       ??
7312: 45 45    EOR $45
7314: D0 49    BNE $735F
7316: 4E 4B 45 LSR $454B
7319: 59 A4 4C EOR $4CA4,Y
731C: 4F       ??
731D: 41 C4    EOR ($C4,X)
731F: 53       ??
7320: 41 56    EOR ($56,X)
7322: C5 4B    CMP $4B
7324: 49 4C    EOR #$4C
7326: CC 46 49 CPY $4946
7329: 4C 45 D3 JMP $D345
732C: 4F       ??
732D: 50 45    BVC $7374
732F: CE 43 4C DEC $4C43
7332: 4F       ??
7333: 53       ??
7334: C5 57    CMP $57
7336: 52       ??
7337: 49 54    EOR #$54
7339: C5 46    CMP $46
733B: 49 45    EOR #$45
733D: 4C C4 47 JMP $47C4
7340: 45 D4    EOR $D4
7342: 50 55    BVC $7399
7344: D4       ??
7345: 4C 53 45 JMP $4553
7348: D4       ??
7349: 52       ??
734A: 53       ??
734B: 45 D4    EOR $D4
734D: 41 55    EOR ($55,X)
734F: 54       ??
7350: CF       ??
7351: 4C 4F 43 JMP $434F
7354: 41 54    EOR ($54,X)
7356: C5 44    CMP $44
7358: 52       ??
7359: 41 D7    EOR ($D7,X)
735B: 4C 49 4E JMP $4E49
735E: C5 42    CMP $42
7360: 4F       ??
7361: D8       CLD
7362: 43       ??
7363: 49 52    EOR #$52
7365: 43       ??
7366: 4C C5 45 JMP $45C5
7369: 4C 4C 49 JMP $494C
736C: 50 53    BVC $73C1
736E: C5 43    CMP $43
7370: 4C D3 45 JMP $45D3
7373: 44       ??
7374: 49 D4    EOR #$D4
7376: 57       ??
7377: 48       PHA
7378: 49 4C    EOR #$4C
737A: C5 57    CMP $57
737C: 45 4E    EOR $4E
737E: C4 43    CPY $43
7380: 41 4C    EOR ($4C,X)
7382: CC 52 45 CPY $4552
7385: 4E 41 4D LSR $4D41
7388: C5 43    CMP $43
738A: 4F       ??
738B: 50 D9    BVC $7366
738D: 54       ??
738E: 41 C2    EOR ($C2,X)
7390: 54       ??
7391: CF       ??
7392: 46 CE    LSR $CE
7394: 53       ??
7395: 50 C3    BVC $735A
7397: 54       ??
7398: 48       PHA
7399: 45 CE    EOR $CE
739B: 45 4C    EOR $4C
739D: 53       ??
739E: C5 41    CMP $41
73A0: D4       ??
73A1: 4E 4F D4 LSR $D44F
73A4: 53       ??
73A5: 54       ??
73A6: 45 D0    EOR $D0
73A8: AB       ??
73A9: AD AA AF LDA $AFAA
73AC: DE 41 4E DEC $4E41,X
73AF: C4 4F    CPY $4F
73B1: D2       ??
73B2: BE BD BC LDX $BCBD,Y
73B5: 53       ??
73B6: 47       ??
73B7: CE 49 4E DEC $4E49
73BA: D4       ??
73BB: 41 42    EOR ($42,X)
73BD: D3       ??
73BE: 50 4F    BVC $740F
73C0: D3       ??
73C1: 53       ??
73C2: 51 D2    EOR ($D2),Y
73C4: 52       ??
73C5: 4E C4 4C LSR $4CC4
73C8: 4F       ??
73C9: C7       ??
73CA: 45 58    EOR $58
73CC: D0 43    BNE $7411
73CE: 4F       ??
73CF: D3       ??
73D0: 53       ??
73D1: 49 CE    EOR #$CE
73D3: 54       ??
73D4: 41 CE    EOR ($CE,X)
73D6: 41 54    EOR ($54,X)
73D8: CE 50 45 DEC $4550
73DB: 45 CB    EOR $CB
73DD: 4C 45 CE JMP $CE45
73E0: 53       ??
73E1: 54       ??
73E2: 52       ??
73E3: A4 56    LDY $56
73E5: 41 CC    EOR ($CC,X)
73E7: 41 53    EOR ($53,X)
73E9: C3       ??
73EA: 4D 4B 53 EOR $534B
73ED: A4 4D    LDY $4D
73EF: 4B       ??
73F0: 49 A4    EOR #$A4
73F2: 43       ??
73F3: 56 53    LSR $53,X
73F5: A4 43    LDY $43
73F7: 56 49    LSR $49,X
73F9: A4 4C    LDY $4C
73FB: 4F       ??
73FC: C6 45    DEC $45
73FE: 4F       ??
73FF: C6 43    DEC $43
7401: 48       PHA
7402: 52       ??
7403: A4 4C    LDY $4C
7405: 45 46    EOR $46
7407: 54       ??
7408: A4 52    LDY $52
740A: 49 47    EOR #$47
740C: 48       PHA
740D: 54       ??
740E: A4 4D    LDY $4D
7410: 49 44    EOR #$44
7412: A4 00    LDY $00
7414: 4E 45 58 LSR $5845
7417: 54       ??
7418: 20 57 49 JSR $4957
741B: 54       ??
741C: 48       PHA
741D: 4F       ??
741E: 55 54    EOR $54,X
7420: 20 46 4F JSR $4F46
7423: D2       ??
7424: 53       ??
7425: 59 4E 54 EOR $544E,Y
7428: 41 D8    EOR ($D8,X)
742A: 52       ??
742B: 45 54    EOR $54
742D: 55 52    EOR $52,X
742F: 4E 20 57 LSR $5720
7432: 49 54    EOR #$54
7434: 48       PHA
7435: 4F       ??
7436: 55 54    EOR $54,X
7438: 20 47 4F JSR $4F47
743B: 53       ??
743C: 55 C2    EOR $C2,X
743E: 4F       ??
743F: 55 54    EOR $54,X
7441: 20 4F 46 JSR $464F
7444: 20 44 41 JSR $4144
7447: 54       ??
7448: C1 49    CMP ($49,X)
744A: 4C 4C 45 JMP $454C
744D: 47       ??
744E: 41 4C    EOR ($4C,X)
7450: 20 51 55 JSR $5551
7453: 41 4E    EOR ($4E,X)
7455: 54       ??
7456: 49 54    EOR #$54
7458: D9 4F 56 CMP $564F,Y
745B: 45 52    EOR $52
745D: 46 4C    LSR $4C
745F: 4F       ??
7460: D7       ??
7461: 4F       ??
7462: 55 54    EOR $54,X
7464: 20 4F 46 JSR $464F
7467: 20 4D 45 JSR $454D
746A: 4D 4F 52 EOR $524F
746D: D9 55 4E CMP $4E55,Y
7470: 44       ??
7471: 45 46    EOR $46
7473: 27       ??
7474: 44       ??
7475: 20 53 54 JSR $5453
7478: 41 54    EOR ($54,X)
747A: 45 4D    EOR $4D
747C: 45 4E    EOR $4E
747E: D4       ??
747F: 42       ??
7480: 41 44    EOR ($44,X)
7482: 20 53 55 JSR $5553
7485: 42       ??
7486: 53       ??
7487: 43       ??
7488: 52       ??
7489: 49 50    EOR #$50
748B: D4       ??
748C: 52       ??
748D: 45 44    EOR $44
748F: 49 4D    EOR #$4D
7491: 27       ??
7492: 44       ??
7493: 20 41 52 JSR $5241
7496: 52       ??
7497: 41 D9    EOR ($D9,X)
7499: 44       ??
749A: 49 56    EOR #$56
749C: 49 53    EOR #$53
749E: 49 4F    EOR #$4F
74A0: 4E 20 42 LSR $4220
74A3: 59 20 5A EOR $5A20,Y
74A6: 45 52    EOR $52
74A8: CF       ??
74A9: 49 4C    EOR #$4C
74AB: 4C 45 47 JMP $4745
74AE: 41 4C    EOR ($4C,X)
74B0: 20 44 49 JSR $4944
74B3: 52       ??
74B4: 45 43    EOR $43
74B6: D4       ??
74B7: 54       ??
74B8: 59 50 45 EOR $4550,Y
74BB: 20 4D 49 JSR $494D
74BE: 53       ??
74BF: 4D 41 54 EOR $5441
74C2: 43       ??
74C3: C8       INY
74C4: 53       ??
74C5: 54       ??
74C6: 52       ??
74C7: 49 4E    EOR #$4E
74C9: 47       ??
74CA: 20 54 4F JSR $4F54
74CD: 4F       ??
74CE: 20 4C 4F JSR $4F4C
74D1: 4E C7 46 LSR $46C7
74D4: 4F       ??
74D5: 52       ??
74D6: 4D 55 4C EOR $4C55
74D9: 41 20    EOR ($20,X)
74DB: 54       ??
74DC: 4F       ??
74DD: 4F       ??
74DE: 20 43 4F JSR $4F43
74E1: 4D 50 4C EOR $4C50
74E4: 45 D8    EOR $D8
74E6: 43       ??
74E7: 41 4E    EOR ($4E,X)
74E9: 27       ??
74EA: 54       ??
74EB: 20 43 4F JSR $4F43
74EE: 4E 54 49 LSR $4954
74F1: 4E 55 C5 LSR $C555
74F4: 55 4E    EOR $4E,X
74F6: 44       ??
74F7: 45 46    EOR $46
74F9: 27       ??
74FA: 44       ??
74FB: 20 46 55 JSR $5546
74FE: 4E 43 54 LSR $5443
7501: 49 4F    EOR #$4F
7503: CE 57 45 DEC $4557
7506: 4E 44 20 LSR $2044
7509: 57       ??
750A: 49 54    EOR #$54
750C: 48       PHA
750D: 4F       ??
750E: 55 54    EOR $54,X
7510: 20 57 48 JSR $4857
7513: 49 4C    EOR #$4C
7515: C5 4F    CMP $4F
7517: 55 54    EOR $54,X
7519: 20 4F 46 JSR $464F
751C: 20 53 50 JSR $5053
751F: 41 43    EOR ($43,X)
7521: C5 46    CMP $46
7523: 49 4C    EOR #$4C
7525: 45 20    EOR $20
7527: 43       ??
7528: 52       ??
7529: 45 41    EOR $41
752B: 54       ??
752C: C5 46    CMP $46
752E: 49 4C    EOR #$4C
7530: 45 20    EOR $20
7532: 4F       ??
7533: 50 45    BVC $757A
7535: CE 46 49 DEC $4946
7538: 4C 45 20 JMP $2045
753B: 43       ??
753C: 4C 4F 53 JMP $534F
753F: C5 46    CMP $46
7541: 49 4C    EOR #$4C
7543: 45 20    EOR $20
7545: 52       ??
7546: 45 41    EOR $41
7548: C4 46    CPY $46
754A: 49 4C    EOR #$4C
754C: 45 20    EOR $20
754E: 57       ??
754F: 52       ??
7550: 49 54    EOR #$54
7552: C5 46    CMP $46
7554: 49 4C    EOR #$4C
7556: 45 20    EOR $20
7558: 44       ??
7559: 45 4C    EOR $4C
755B: 45 54    EOR $54
755D: C5 46    CMP $46
755F: 49 4C    EOR #$4C
7561: 45 20    EOR $20
7563: 4E 41 4D LSR $4D41
7566: 45 20    EOR $20
7568: 52       ??
7569: 45 41    EOR $41
756B: C4 46    CPY $46
756D: 49 4C    EOR #$4C
756F: 45 20    EOR $20
7571: 4E 41 4D LSR $4D41
7574: 45 20    EOR $20
7576: 57       ??
7577: 52       ??
7578: 49 54    EOR #$54
757A: C5 46    CMP $46
757C: 49 4C    EOR #$4C
757E: 45 20    EOR $20
7580: 4E 41 4D LSR $4D41
7583: 45 20    EOR $20
7585: 43       ??
7586: 48       PHA
7587: 45 43    EOR $43
7589: CB       ??
758A: 4E 4F 20 LSR $204F
758D: 50 52    BVC $75E1
758F: 4F       ??
7590: 47       ??
7591: 52       ??
7592: 41 CD    EOR ($CD,X)
7594: 41 53    EOR ($53,X)
7596: 4B       ??
7597: 20 43 41 JSR $4143
759A: 43       ??
759B: 48       PHA
759C: C5 46    CMP $46
759E: 49 4C    EOR #$4C
75A0: 45 20    EOR $20
75A2: 4E 4F 54 LSR $544F
75A5: 20 45 58 JSR $5845
75A8: 49 53    EOR #$53
75AA: D4       ??
75AB: 46 49    LSR $49
75AD: 4C 45 20 JMP $2045
75B0: 4C 49 53 JMP $5349
75B3: D4       ??
75B4: 52       ??
75B5: 45 43    EOR $43
75B7: 4F       ??
75B8: 52       ??
75B9: 44       ??
75BA: 20 4E 55 JSR $554E
75BD: 4D 42 45 EOR $4542
75C0: D2       ??
75C1: 46 49    LSR $49
75C3: 4C 45 20 JMP $2045
75C6: 4E 55 4D LSR $4D55
75C9: 42       ??
75CA: 45 D2    EOR $D2
75CC: 46 49    LSR $49
75CE: 4C 45 20 JMP $2045
75D1: 4D 4F 44 EOR $444F
75D4: C5 53    CMP $53
75D6: 41 4D    EOR ($4D,X)
75D8: 45 20    EOR $20
75DA: 4E 41 4D LSR $4D41
75DD: 45 20    EOR $20
75DF: 46 49    LSR $49
75E1: 4C 45 20 JMP $2045
75E4: 45 58    EOR $58
75E6: 49 53    EOR #$53
75E8: D4       ??
75E9: 46 49    LSR $49
75EB: 4C 45 20 JMP $2045
75EE: 4C 45 4E JMP $4E45
75F1: 47       ??
75F2: 54       ??
75F3: 48       PHA
75F4: 20 52 45 JSR $4552
75F7: 41 C4    EOR ($C4,X)
75F9: 49 4C    EOR #$4C
75FB: 4C 45 47 JMP $4745
75FE: 41 4C    EOR ($4C,X)
7600: 20 46 49 JSR $4946
7603: 4C 45 20 JMP $2045
7606: 4E 41 4D LSR $4D41
7609: C5 46    CMP $46
760B: 49 4C    EOR #$4C
760D: 45 20    EOR $20
760F: 54       ??
7610: 4F       ??
7611: 4F       ??
7612: 20 4C 4F JSR $4F4C
7615: 4E C7 46 LSR $46C7
7618: 49 4C    EOR #$4C
761A: 45 20    EOR $20
761C: 52       ??
761D: 45 4F    EOR $4F
761F: 50 45    BVC $7666
7621: CE 20 45 DEC $4520
7624: 52       ??
7625: 52       ??
7626: 4F       ??
7627: 52       ??
7628: 00 20 49 INT $4920
762B: 4E 20 00 LSR $0020
762E: 42       ??
762F: 52       ??
7630: 45 41    EOR $41
7632: 4B       ??
7633: 00 E6 5E INT $5EE6
7636: D0 02    BNE $763A
7638: E6 5F    INC $5F
763A: 8C 47 B9 STY $B947
763D: A0 00    LDY #$00
763F: B1 5E    LDA ($5E),Y
7641: AC 47 B9 LDY $B947
7644: C9 C5    CMP #$C5
7646: B0 0E    BCS $7656
7648: C9 3A    CMP #$3A
764A: B0 0A    BCS $7656
764C: C9 20    CMP #$20
764E: F0 E4    BEQ $7634
7650: 38       SEC
7651: E9 30    SBC #$30
7653: 38       SEC
7654: E9 D0    SBC #$D0
7656: 60       RTS
7657: AD 57 B9 LDA $B957
765A: 8D 55 B9 STA $B955
765D: AD 58 B9 LDA $B958
7660: 8D 56 B9 STA $B956
7663: A9 00    LDA #$00
7665: 8D CF 08 STA $08CF
7668: 8D D0 08 STA $08D0
766B: AD 57 B9 LDA $B957
766E: 8D CD 08 STA $08CD
7671: AD 58 B9 LDA $B958
7674: 8D CE 08 STA $08CE
7677: A9 00    LDA #$00
7679: 8D D1 08 STA $08D1
767C: AD D9 B8 LDA $B8D9
767F: 8D C8 08 STA $08C8
7682: 00 19 05 INT $0519
7685: A9 00    LDA #$00
7687: 85 E0    STA $E0
7689: A9 20    LDA #$20
768B: 85 E1    STA $E1
768D: A9 00    LDA #$00
768F: 8D C6 08 STA $08C6
7692: A9 02    LDA #$02
7694: 8D C7 08 STA $08C7
7697: 00 16 05 INT $0516
769A: 60       RTS
769B: A9 00    LDA #$00
769D: 8D CF 08 STA $08CF
76A0: 8D D0 08 STA $08D0
76A3: AD 59 B9 LDA $B959
76A6: 8D CD 08 STA $08CD
76A9: AD 5A B9 LDA $B95A
76AC: 8D CE 08 STA $08CE
76AF: A9 00    LDA #$00
76B1: 8D D1 08 STA $08D1
76B4: AD D9 B8 LDA $B8D9
76B7: 8D C8 08 STA $08C8
76BA: 00 19 05 INT $0519
76BD: A9 00    LDA #$00
76BF: 85 E0    STA $E0
76C1: A9 22    LDA #$22
76C3: 85 E1    STA $E1
76C5: A9 00    LDA #$00
76C7: 8D C6 08 STA $08C6
76CA: A9 02    LDA #$02
76CC: 8D C7 08 STA $08C7
76CF: 00 16 05 INT $0516
76D2: 60       RTS
76D3: 80       ??
76D4: 4F       ??
76D5: C7       ??
76D6: 52       ??
76D7: 58       CLI
76D8: BA       TSX
76D9: E8       INX
76DA: E8       INX
76DB: E8       INX
76DC: E8       INX
76DD: BD 01 01 LDA $0101,X
76E0: C9 81    CMP #$81
76E2: F0 14    BEQ $76F8
76E4: C9 BB    CMP #$BB
76E6: F0 04    BEQ $76EC
76E8: C9 91    CMP #$91
76EA: D0 2D    BNE $7719
76EC: 8A       TXA
76ED: 18       CLC
76EE: 69 07    ADC #$07
76F0: 90 03    BCC $76F5
76F2: A9 01    LDA #$01
76F4: 60       RTS
76F5: AA       TAX
76F6: D0 E5    BNE $76DD
76F8: A5 5D    LDA $5D
76FA: D0 0A    BNE $7706
76FC: BD 03 01 LDA $0103,X
76FF: 85 5C    STA $5C
7701: BD 02 01 LDA $0102,X
7704: 85 5D    STA $5D
7706: DD 02 01 CMP $0102,X
7709: D0 07    BNE $7712
770B: A5 5C    LDA $5C
770D: DD 03 01 CMP $0103,X
7710: F0 07    BEQ $7719
7712: 8A       TXA
7713: 18       CLC
7714: 69 14    ADC #$14
7716: AA       TAX
7717: D0 C4    BNE $76DD
7719: 60       RTS
771A: 20 6C 67 JSR $676C
771D: 8D CB B8 STA $B8CB
7720: 8C CC B8 STY $B8CC
7723: 38       SEC
7724: A5 63    LDA $63
7726: E5 68    SBC $68
7728: 85 44    STA $44
772A: A8       TAY
772B: A5 64    LDA $64
772D: E5 69    SBC $69
772F: AA       TAX
7730: E8       INX
7731: 98       TYA
7732: F0 23    BEQ $7757
7734: A5 63    LDA $63
7736: 38       SEC
7737: E5 44    SBC $44
7739: 85 63    STA $63
773B: B0 03    BCS $7740
773D: C6 64    DEC $64
773F: 38       SEC
7740: A5 61    LDA $61
7742: E5 44    SBC $44
7744: 85 61    STA $61
7746: B0 08    BCS $7750
7748: C6 62    DEC $62
774A: 90 04    BCC $7750
774C: B1 63    LDA ($63),Y
774E: 91 61    STA ($61),Y
7750: 88       DEY
7751: D0 F9    BNE $774C
7753: B1 63    LDA ($63),Y
7755: 91 61    STA ($61),Y
7757: C6 64    DEC $64
7759: C6 62    DEC $62
775B: CA       DEX
775C: D0 F2    BNE $7750
775E: 60       RTS
775F: 0A       ASL
7760: 69 36    ADC #$36
7762: B0 39    BCS $779D
7764: 85 44    STA $44
7766: BA       TSX
7767: E4 44    CPX $44
7769: 90 32    BCC $779D
776B: 60       RTS
776C: CC D0 B8 CPY $B8D0
776F: 90 2B    BCC $779C
7771: D0 05    BNE $7778
7773: CD CF B8 CMP $B8CF
7776: 90 24    BCC $779C
7778: 48       PHA
7779: A2 09    LDX #$09
777B: 98       TYA
777C: 48       PHA
777D: B5 60    LDA $60,X
777F: CA       DEX
7780: 10 FA    BPL $777C
7782: 20 76 7F JSR $7F76
7785: A2 F7    LDX #$F7
7787: 68       PLA
7788: 95 60    STA $60,X
778A: E8       INX
778B: 30 FA    BMI $7787
778D: 68       PLA
778E: A8       TAY
778F: 68       PLA
7790: CC D0 B8 CPY $B8D0
7793: 90 07    BCC $779C
7795: D0 06    BNE $779D
7797: CD CF B8 CMP $B8CF
779A: B0 01    BCS $779D
779C: 60       RTS
779D: A2 06    LDX #$06
779F: 8E 00 B8 STX $B800
77A2: 20 CC 72 JSR $72CC
77A5: 20 2C 72 JSR $722C
77A8: A9 00    LDA #$00
77AA: 8D F6 03 STA $03F6
77AD: 20 4A 68 JSR $684A
77B0: A9 00    LDA #$00
77B2: 8D C6 B8 STA $B8C6
77B5: 8D 12 B8 STA $B812
77B8: 20 9A 88 JSR $889A
77BB: 2C 10 B8 BIT $B810
77BE: 10 03    BPL $77C3
77C0: 4C 63 86 JMP $8663
77C3: 20 E1 79 JSR $79E1
77C6: A2 00    LDX #$00
77C8: A0 00    LDY #$00
77CA: A9 13    LDA #$13
77CC: 85 80    STA $80
77CE: A9 64    LDA #$64
77D0: 85 81    STA $81
77D2: EC 00 B8 CPX $B800
77D5: F0 10    BEQ $77E7
77D7: E6 80    INC $80
77D9: D0 02    BNE $77DD
77DB: E6 81    INC $81
77DD: B1 80    LDA ($80),Y
77DF: 10 F6    BPL $77D7
77E1: E8       INX
77E2: EC 00 B8 CPX $B800
77E5: D0 F0    BNE $77D7
77E7: E6 80    INC $80
77E9: D0 02    BNE $77ED
77EB: E6 81    INC $81
77ED: B1 80    LDA ($80),Y
77EF: 30 06    BMI $77F7
77F1: 20 E3 79 JSR $79E3
77F4: C8       INY
77F5: D0 F6    BNE $77ED
77F7: 20 E6 79 JSR $79E6
77FA: 20 B6 72 JSR $72B6
77FD: A9 22    LDA #$22
77FF: A0 66    LDY #$66
7801: 20 2D 79 JSR $792D
7804: AC 15 B8 LDY $B815
7807: C8       INY
7808: F0 03    BEQ $780D
780A: 20 71 A4 JSR $A471
780D: A9 00    LDA #$00
780F: 20 FF 72 JSR $72FF
7812: 20 4A 6E JSR $6E4A
7815: A9 00    LDA #$00
7817: 8D B4 03 STA $03B4
781A: 8D 01 B8 STA $B801
781D: AD C3 B8 LDA $B8C3
7820: 8D C2 B8 STA $B8C2
7823: 20 BE 6F JSR $6FBE
7826: 20 9A AD JSR $AD9A
7829: 20 4A 6E JSR $6E4A
782C: 20 9A AD JSR $AD9A
782F: A9 00    LDA #$00
7831: 8D B4 03 STA $03B4
7834: 8D 68 B9 STA $B968
7837: 8D B3 03 STA $03B3
783A: A9 01    LDA #$01
783C: 8D C4 B8 STA $B8C4
783F: A9 FF    LDA #$FF
7841: 8D 15 B8 STA $B815
7844: 00 06 C0 INT $C006
7847: 4C 32 88 JMP $8832
784A: A9 00    LDA #$00
784C: 8D 01 B8 STA $B801
784F: 0A       ASL
7850: AA       TAX
7851: BD EC B8 LDA $B8EC,X
7854: 38       SEC
7855: E9 01    SBC #$01
7857: 30 06    BMI $785F
7859: 8D C8 08 STA $08C8
785C: 00 17 05 INT $0517
785F: EE 01 B8 INC $B801
7862: AD 01 B8 LDA $B801
7865: C9 03    CMP #$03
7867: 90 E6    BCC $784F
7869: A0 3E    LDY #$3E
786B: A9 00    LDA #$00
786D: 99 EC B8 STA $B8EC,Y
7870: 88       DEY
7871: 10 FA    BPL $786D
7873: A0 0B    LDY #$0B
7875: 99 6B B9 STA $B96B,Y
7878: 88       DEY
7879: 10 FA    BPL $7875
787B: 60       RTS
787C: A9 FF    LDA #$FF
787E: 8D 52 B9 STA $B952
7881: 8D 54 B9 STA $B954
7884: A9 01    LDA #$01
7886: 85 80    STA $80
7888: A9 20    LDA #$20
788A: 85 81    STA $81
788C: A0 00    LDY #$00
788E: B1 80    LDA ($80),Y
7890: C8       INY
7891: 11 80    ORA ($80),Y
7893: F0 7D    BEQ $7912
7895: C8       INY
7896: B1 80    LDA ($80),Y
7898: 8D 4F B9 STA $B94F
789B: C8       INY
789C: B1 80    LDA ($80),Y
789E: 8D 50 B9 STA $B950
78A1: C8       INY
78A2: C8       INY
78A3: B1 80    LDA ($80),Y
78A5: D0 FB    BNE $78A2
78A7: C8       INY
78A8: 98       TYA
78A9: 65 80    ADC $80
78AB: AA       TAX
78AC: A0 00    LDY #$00
78AE: 91 80    STA ($80),Y
78B0: A5 81    LDA $81
78B2: 69 00    ADC #$00
78B4: C8       INY
78B5: 2C 4E B9 BIT $B94E
78B8: 10 32    BPL $78EC
78BA: C9 22    CMP #$22
78BC: 90 2E    BCC $78EC
78BE: A9 00    LDA #$00
78C0: 91 80    STA ($80),Y
78C2: 88       DEY
78C3: 91 80    STA ($80),Y
78C5: 38       SEC
78C6: A5 80    LDA $80
78C8: E9 01    SBC #$01
78CA: 85 80    STA $80
78CC: A5 81    LDA $81
78CE: E9 20    SBC #$20
78D0: 85 81    STA $81
78D2: 18       CLC
78D3: AD 57 B9 LDA $B957
78D6: 65 80    ADC $80
78D8: 8D 57 B9 STA $B957
78DB: AD 58 B9 LDA $B958
78DE: 65 81    ADC $81
78E0: 8D 58 B9 STA $B958
78E3: AD 4E B9 LDA $B94E
78E6: 09 40    ORA #$40
78E8: 8D 4E B9 STA $B94E
78EB: 60       RTS
78EC: 91 80    STA ($80),Y
78EE: 86 80    STX $80
78F0: 85 81    STA $81
78F2: 2C 52 B9 BIT $B952
78F5: 10 0C    BPL $7903
78F7: AD 4F B9 LDA $B94F
78FA: 8D 51 B9 STA $B951
78FD: AD 50 B9 LDA $B950
7900: 8D 52 B9 STA $B952
7903: AD 4F B9 LDA $B94F
7906: 8D 53 B9 STA $B953
7909: AD 50 B9 LDA $B950
790C: 8D 54 B9 STA $B954
790F: 4C 8C 68 JMP $688C
7912: AD 4E B9 LDA $B94E
7915: 29 BF    AND #$BF
7917: 8D 4E B9 STA $B94E
791A: 60       RTS
791B: A9 01    LDA #$01
791D: 85 80    STA $80
791F: A9 22    LDA #$22
7921: 85 81    STA $81
7923: A0 00    LDY #$00
7925: B1 80    LDA ($80),Y
7927: C8       INY
7928: 11 80    ORA ($80),Y
792A: F0 4D    BEQ $7979
792C: A0 04    LDY #$04
792E: C8       INY
792F: B1 80    LDA ($80),Y
7931: D0 FB    BNE $792E
7933: C8       INY
7934: 98       TYA
7935: 65 80    ADC $80
7937: AA       TAX
7938: A0 00    LDY #$00
793A: 91 80    STA ($80),Y
793C: A5 81    LDA $81
793E: 69 00    ADC #$00
7940: C8       INY
7941: C9 24    CMP #$24
7943: 90 2B    BCC $7970
7945: A9 00    LDA #$00
7947: 91 80    STA ($80),Y
7949: 88       DEY
794A: 91 80    STA ($80),Y
794C: 38       SEC
794D: A5 80    LDA $80
794F: E9 01    SBC #$01
7951: 85 80    STA $80
7953: A5 81    LDA $81
7955: E9 22    SBC #$22
7957: 85 81    STA $81
7959: 18       CLC
795A: AD 59 B9 LDA $B959
795D: 65 80    ADC $80
795F: 8D 59 B9 STA $B959
7962: AD 5A B9 LDA $B95A
7965: 65 81    ADC $81
7967: 8D 5A B9 STA $B95A
796A: A9 00    LDA #$00
796C: 8D 5B B9 STA $B95B
796F: 60       RTS
7970: 91 80    STA ($80),Y
7972: 86 80    STX $80
7974: 85 81    STA $81
7976: 4C 23 69 JMP $6923
7979: A9 FF    LDA #$FF
797B: 8D 5B B9 STA $B95B
797E: 60       RTS
797F: A0 01    LDY #$01
7981: B1 68    LDA ($68),Y
7983: 85 45    STA $45
7985: AD C9 B8 LDA $B8C9
7988: 85 44    STA $44
798A: A5 69    LDA $69
798C: 85 47    STA $47
798E: A5 68    LDA $68
7990: 88       DEY
7991: F1 68    SBC ($68),Y
7993: 18       CLC
7994: 6D C9 B8 ADC $B8C9
7997: 8D C9 B8 STA $B8C9
799A: 85 46    STA $46
799C: AD CA B8 LDA $B8CA
799F: 69 FF    ADC #$FF
79A1: 8D CA B8 STA $B8CA
79A4: E5 69    SBC $69
79A6: AA       TAX
79A7: 38       SEC
79A8: A5 68    LDA $68
79AA: ED C9 B8 SBC $B8C9
79AD: A8       TAY
79AE: B0 03    BCS $79B3
79B0: E8       INX
79B1: C6 47    DEC $47
79B3: 18       CLC
79B4: 65 44    ADC $44
79B6: 90 03    BCC $79BB
79B8: C6 45    DEC $45
79BA: 18       CLC
79BB: B1 44    LDA ($44),Y
79BD: 91 46    STA ($46),Y
79BF: C8       INY
79C0: D0 F9    BNE $79BB
79C2: E6 45    INC $45
79C4: E6 47    INC $47
79C6: CA       DEX
79C7: D0 F2    BNE $79BB
79C9: 60       RTS
79CA: A0 00    LDY #$00
79CC: A9 01    LDA #$01
79CE: 91 68    STA ($68),Y
79D0: C8       INY
79D1: 91 68    STA ($68),Y
79D3: C8       INY
79D4: A5 40    LDA $40
79D6: 91 68    STA ($68),Y
79D8: C8       INY
79D9: A5 41    LDA $41
79DB: 91 68    STA ($68),Y
79DD: A0 04    LDY #$04
79DF: A2 00    LDX #$00
79E1: BD 29 B8 LDA $B829,X
79E4: 91 68    STA ($68),Y
79E6: F0 04    BEQ $79EC
79E8: E8       INX
79E9: C8       INY
79EA: D0 F5    BNE $79E1
79EC: 60       RTS
79ED: 00 01 07 INT $0701
79F0: 60       RTS
79F1: 2B       ??
79F2: 2D 2A 2F AND $2F2A
79F5: 5E 3E 3D LSR $3D3E,X
79F8: 3C       ??
79F9: 20 00 3A JSR $3A00
79FC: 3B       ??
79FD: 2C 22 28 BIT $2822
7A00: 29 C9    AND #$C9
7A02: CA       DEX
7A03: CB       ??
7A04: CC CD D0 CPY $D0CD
7A07: D1 D2    CMP ($D2),Y
7A09: 60       RTS
7A0A: A5 54    LDA $54
7A0C: A6 55    LDX $55
7A0E: 85 68    STA $68
7A10: 86 69    STX $69
7A12: A5 41    LDA $41
7A14: CD 52 B9 CMP $B952
7A17: D0 05    BNE $7A1E
7A19: A5 40    LDA $40
7A1B: CD 51 B9 CMP $B951
7A1E: 90 7B    BCC $7A9B
7A20: A5 41    LDA $41
7A22: CD 54 B9 CMP $B954
7A25: D0 05    BNE $7A2C
7A27: A5 40    LDA $40
7A29: CD 53 B9 CMP $B953
7A2C: F0 02    BEQ $7A30
7A2E: B0 6B    BCS $7A9B
7A30: A0 01    LDY #$01
7A32: B1 68    LDA ($68),Y
7A34: F0 1F    BEQ $7A55
7A36: C8       INY
7A37: C8       INY
7A38: A5 41    LDA $41
7A3A: D1 68    CMP ($68),Y
7A3C: 90 18    BCC $7A56
7A3E: F0 03    BEQ $7A43
7A40: 88       DEY
7A41: D0 09    BNE $7A4C
7A43: A5 40    LDA $40
7A45: 88       DEY
7A46: D1 68    CMP ($68),Y
7A48: 90 0C    BCC $7A56
7A4A: F0 0A    BEQ $7A56
7A4C: 88       DEY
7A4D: B1 68    LDA ($68),Y
7A4F: AA       TAX
7A50: 88       DEY
7A51: B1 68    LDA ($68),Y
7A53: B0 B9    BCS $7A0E
7A55: 18       CLC
7A56: 60       RTS
7A57: A9 00    LDA #$00
7A59: 8D 59 B9 STA $B959
7A5C: 8D 5A B9 STA $B95A
7A5F: 20 9B 66 JSR $669B
7A62: 20 1B 69 JSR $691B
7A65: A9 01    LDA #$01
7A67: A2 22    LDX #$22
7A69: 85 68    STA $68
7A6B: 86 69    STX $69
7A6D: A0 01    LDY #$01
7A6F: B1 68    LDA ($68),Y
7A71: D0 07    BNE $7A7A
7A73: 2C 5B B9 BIT $B95B
7A76: 10 E7    BPL $7A5F
7A78: 30 1F    BMI $7A99
7A7A: C8       INY
7A7B: C8       INY
7A7C: A5 41    LDA $41
7A7E: D1 68    CMP ($68),Y
7A80: 90 17    BCC $7A99
7A82: F0 03    BEQ $7A87
7A84: 88       DEY
7A85: D0 09    BNE $7A90
7A87: A5 40    LDA $40
7A89: 88       DEY
7A8A: D1 68    CMP ($68),Y
7A8C: 90 0B    BCC $7A99
7A8E: F0 0A    BEQ $7A9A
7A90: 88       DEY
7A91: B1 68    LDA ($68),Y
7A93: AA       TAX
7A94: 88       DEY
7A95: B1 68    LDA ($68),Y
7A97: B0 D0    BCS $7A69
7A99: 18       CLC
7A9A: 60       RTS
7A9B: 2C 4E B9 BIT $B94E
7A9E: 10 B5    BPL $7A55
7AA0: A5 41    LDA $41
7AA2: CD 52 B9 CMP $B952
7AA5: D0 05    BNE $7AAC
7AA7: A5 40    LDA $40
7AA9: CD 51 B9 CMP $B951
7AAC: B0 1F    BCS $7ACD
7AAE: A9 00    LDA #$00
7AB0: 8D 57 B9 STA $B957
7AB3: 8D 58 B9 STA $B958
7AB6: 20 57 66 JSR $6657
7AB9: 20 7C 68 JSR $687C
7ABC: A5 41    LDA $41
7ABE: CD 52 B9 CMP $B952
7AC1: D0 05    BNE $7AC8
7AC3: A5 40    LDA $40
7AC5: CD 51 B9 CMP $B951
7AC8: 90 8B    BCC $7A55
7ACA: 4C 0A 6A JMP $6A0A
7ACD: 2C 4E B9 BIT $B94E
7AD0: 50 83    BVC $7A55
7AD2: 20 57 66 JSR $6657
7AD5: 20 7C 68 JSR $687C
7AD8: 4C 0A 6A JMP $6A0A
7ADB: E6 5E    INC $5E
7ADD: D0 02    BNE $7AE1
7ADF: E6 5F    INC $5F
7AE1: A0 00    LDY #$00
7AE3: B1 5E    LDA ($5E),Y
7AE5: C9 3A    CMP #$3A
7AE7: B0 0A    BCS $7AF3
7AE9: C9 20    CMP #$20
7AEB: F0 06    BEQ $7AF3
7AED: 38       SEC
7AEE: E9 30    SBC #$30
7AF0: 38       SEC
7AF1: E9 D0    SBC #$D0
7AF3: 60       RTS
7AF4: 20 2C 72 JSR $722C
7AF7: 20 37 6D JSR $6D37
7AFA: AD B5 03 LDA $03B5
7AFD: 8D C0 B8 STA $B8C0
7B00: 20 9A AD JSR $AD9A
7B03: AD 47 04 LDA $0447
7B06: C9 02    CMP #$02
7B08: D0 03    BNE $7B0D
7B0A: 20 EA 6C JSR $6CEA
7B0D: A9 0C    LDA #$0C
7B0F: 8D 4A 04 STA $044A
7B12: 00 01 07 INT $0701
7B15: C9 00    CMP #$00
7B17: D0 06    BNE $7B1F
7B19: 20 B8 6F JSR $6FB8
7B1C: 4C 00 6B JMP $6B00
7B1F: C9 1F    CMP #$1F
7B21: F0 DD    BEQ $7B00
7B23: C9 14    CMP #$14
7B25: F0 D9    BEQ $7B00
7B27: C9 15    CMP #$15
7B29: F0 D5    BEQ $7B00
7B2B: C9 13    CMP #$13
7B2D: F0 D1    BEQ $7B00
7B2F: C9 0E    CMP #$0E
7B31: F0 CD    BEQ $7B00
7B33: C9 0F    CMP #$0F
7B35: F0 C9    BEQ $7B00
7B37: C9 1E    CMP #$1E
7B39: F0 C5    BEQ $7B00
7B3B: C9 19    CMP #$19
7B3D: F0 38    BEQ $7B77
7B3F: C9 1A    CMP #$1A
7B41: F0 50    BEQ $7B93
7B43: C9 30    CMP #$30
7B45: F0 40    BEQ $7B87
7B47: C9 1D    CMP #$1D
7B49: D0 03    BNE $7B4E
7B4B: 4C D2 6B JMP $6BD2
7B4E: C9 17    CMP #$17
7B50: D0 03    BNE $7B55
7B52: 4C 8E 6C JMP $6C8E
7B55: C9 1C    CMP #$1C
7B57: F0 66    BEQ $7BBF
7B59: C9 16    CMP #$16
7B5B: D0 03    BNE $7B60
7B5D: 4C 2B 6C JMP $6C2B
7B60: C9 0D    CMP #$0D
7B62: D0 03    BNE $7B67
7B64: 4C 0B 6C JMP $6C0B
7B67: C9 1B    CMP #$1B
7B69: D0 03    BNE $7B6E
7B6B: 4C 0B 6C JMP $6C0B
7B6E: 8D C5 B8 STA $B8C5
7B71: 20 7F 6E JSR $6E7F
7B74: 4C 00 6B JMP $6B00
7B77: AD 49 04 LDA $0449
7B7A: C9 02    CMP #$02
7B7C: D0 06    BNE $7B84
7B7E: 20 10 6D JSR $6D10
7B81: 4C 00 6B JMP $6B00
7B84: 4C 00 6B JMP $6B00
7B87: AE 47 04 LDX $0447
7B8A: F0 21    BEQ $7BAD
7B8C: E0 01    CPX #$01
7B8E: F0 DE    BEQ $7B6E
7B90: 4C 00 6B JMP $6B00
7B93: AE 47 04 LDX $0447
7B96: D0 11    BNE $7BA9
7B98: 20 F2 AC JSR $ACF2
7B9B: A9 01    LDA #$01
7B9D: 0D 91 03 ORA $0391
7BA0: 8D 91 03 STA $0391
7BA3: 20 B8 6F JSR $6FB8
7BA6: 4C 00 6B JMP $6B00
7BA9: E0 02    CPX #$02
7BAB: D0 0F    BNE $7BBC
7BAD: AE B5 03 LDX $03B5
7BB0: E0 04    CPX #$04
7BB2: 90 08    BCC $7BBC
7BB4: A2 05    LDX #$05
7BB6: 20 00 71 JSR $7100
7BB9: CE B5 03 DEC $03B5
7BBC: 4C 00 6B JMP $6B00
7BBF: AD C4 B8 LDA $B8C4
7BC2: 49 01    EOR #$01
7BC4: 8D C4 B8 STA $B8C4
7BC7: AD B3 03 LDA $03B3
7BCA: 49 08    EOR #$08
7BCC: 8D B3 03 STA $03B3
7BCF: 4C 00 6B JMP $6B00
7BD2: AD C3 B8 LDA $B8C3
7BD5: CD C1 B8 CMP $B8C1
7BD8: D0 06    BNE $7BE0
7BDA: 20 12 E0 JSR $E012
7BDD: 4C 00 6B JMP $6B00
7BE0: CD C2 B8 CMP $B8C2
7BE3: D0 03    BNE $7BE8
7BE5: 20 B5 6D JSR $6DB5
7BE8: 20 F7 6D JSR $6DF7
7BEB: D0 0D    BNE $7BFA
7BED: AE C2 B8 LDX $B8C2
7BF0: E8       INX
7BF1: E8       INX
7BF2: BD 58 B8 LDA $B858,X
7BF5: 30 03    BMI $7BFA
7BF7: 20 E8 6D JSR $6DE8
7BFA: AE C2 B8 LDX $B8C2
7BFD: BD 58 B8 LDA $B858,X
7C00: 10 03    BPL $7C05
7C02: 20 87 71 JSR $7187
7C05: 20 87 71 JSR $7187
7C08: 4C D4 6C JMP $6CD4
7C0B: 20 7B 6D JSR $6D7B
7C0E: 60       RTS
7C0F: AD 15 B8 LDA $B815
7C12: C9 FF    CMP #$FF
7C14: D0 03    BNE $7C19
7C16: 4C 00 6B JMP $6B00
7C19: 68       PLA
7C1A: 68       PLA
7C1B: AD D3 B8 LDA $B8D3
7C1E: AC D4 B8 LDY $B8D4
7C21: 85 5E    STA $5E
7C23: 84 5F    STY $5F
7C25: 38       SEC
7C26: A9 00    LDA #$00
7C28: 4C 06 75 JMP $7506
7C2B: AE C2 B8 LDX $B8C2
7C2E: EC C3 B8 CPX $B8C3
7C31: B0 55    BCS $7C88
7C33: BD 58 B8 LDA $B858,X
7C36: 10 06    BPL $7C3E
7C38: EE C2 B8 INC $B8C2
7C3B: 20 59 6C JSR $6C59
7C3E: EE C2 B8 INC $B8C2
7C41: 20 59 6C JSR $6C59
7C44: AD B4 03 LDA $03B4
7C47: C9 13    CMP #$13
7C49: D0 0B    BNE $7C56
7C4B: AE C2 B8 LDX $B8C2
7C4E: BD 58 B8 LDA $B858,X
7C51: 10 03    BPL $7C56
7C53: 20 59 6C JSR $6C59
7C56: 4C CE 6C JMP $6CCE
7C59: AE B4 03 LDX $03B4
7C5C: E8       INX
7C5D: E0 14    CPX #$14
7C5F: F0 04    BEQ $7C65
7C61: 8E B4 03 STX $03B4
7C64: 60       RTS
7C65: A9 00    LDA #$00
7C67: 8D B4 03 STA $03B4
7C6A: AE B5 03 LDX $03B5
7C6D: E8       INX
7C6E: AD 47 04 LDA $0447
7C71: C9 02    CMP #$02
7C73: D0 08    BNE $7C7D
7C75: E0 04    CPX #$04
7C77: B0 08    BCS $7C81
7C79: 8E B5 03 STX $03B5
7C7C: 60       RTS
7C7D: E0 05    CPX #$05
7C7F: 90 F8    BCC $7C79
7C81: 20 00 71 JSR $7100
7C84: 20 B8 6F JSR $6FB8
7C87: 60       RTS
7C88: 20 12 E0 JSR $E012
7C8B: 4C 00 6B JMP $6B00
7C8E: AE C2 B8 LDX $B8C2
7C91: EC C1 B8 CPX $B8C1
7C94: F0 F2    BEQ $7C88
7C96: AD B5 03 LDA $03B5
7C99: 0D B4 03 ORA $03B4
7C9C: D0 2D    BNE $7CCB
7C9E: 20 D5 6D JSR $6DD5
7CA1: 8C 01 B8 STY $B801
7CA4: 20 F7 6D JSR $6DF7
7CA7: 38       SEC
7CA8: D0 08    BNE $7CB2
7CAA: AD C2 B8 LDA $B8C2
7CAD: E9 13    SBC #$13
7CAF: 4C B7 6C JMP $6CB7
7CB2: AD C2 B8 LDA $B8C2
7CB5: E9 14    SBC #$14
7CB7: AE 01 B8 LDX $B801
7CBA: D0 03    BNE $7CBF
7CBC: CE C2 B8 DEC $B8C2
7CBF: CE C2 B8 DEC $B8C2
7CC2: 8D 01 B8 STA $B801
7CC5: 20 BE 6F JSR $6FBE
7CC8: 4C CE 6C JMP $6CCE
7CCB: 20 B5 6D JSR $6DB5
7CCE: 20 9A AD JSR $AD9A
7CD1: 4C 00 6B JMP $6B00
7CD4: AD B4 03 LDA $03B4
7CD7: 48       PHA
7CD8: AD B5 03 LDA $03B5
7CDB: 48       PHA
7CDC: 20 B8 6F JSR $6FB8
7CDF: 68       PLA
7CE0: 8D B5 03 STA $03B5
7CE3: 68       PLA
7CE4: 8D B4 03 STA $03B4
7CE7: 4C CE 6C JMP $6CCE
7CEA: AD B5 03 LDA $03B5
7CED: 8D 6E B9 STA $B96E
7CF0: AD B4 03 LDA $03B4
7CF3: 8D 6F B9 STA $B96F
7CF6: AD B3 03 LDA $03B3
7CF9: 8D 70 B9 STA $B970
7CFC: A2 63    LDX #$63
7CFE: BD C0 02 LDA $02C0,X
7D01: 9D 99 B9 STA $B999,X
7D04: CA       DEX
7D05: 10 F7    BPL $7CFE
7D07: AD 91 03 LDA $0391
7D0A: 29 01    AND #$01
7D0C: 8D 77 B9 STA $B977
7D0F: 60       RTS
7D10: AD 6E B9 LDA $B96E
7D13: 8D B5 03 STA $03B5
7D16: AD 6F B9 LDA $B96F
7D19: 8D B4 03 STA $03B4
7D1C: AD 70 B9 LDA $B970
7D1F: 8D B3 03 STA $03B3
7D22: A2 63    LDX #$63
7D24: BD 99 B9 LDA $B999,X
7D27: 9D C0 02 STA $02C0,X
7D2A: CA       DEX
7D2B: 10 F7    BPL $7D24
7D2D: AD 77 B9 LDA $B977
7D30: 0D 91 03 ORA $0391
7D33: 8D 91 03 STA $0391
7D36: 60       RTS
7D37: A9 00    LDA #$00
7D39: 8D C1 B8 STA $B8C1
7D3C: AD B5 03 LDA $03B5
7D3F: 0A       ASL
7D40: AA       TAX
7D41: BD 52 72 LDA $7252,X
7D44: 85 6F    STA $6F
7D46: BD 53 72 LDA $7253,X
7D49: 85 70    STA $70
7D4B: A0 00    LDY #$00
7D4D: B1 6F    LDA ($6F),Y
7D4F: F0 0D    BEQ $7D5E
7D51: 8D C1 B8 STA $B8C1
7D54: 99 58 B8 STA $B858,Y
7D57: C8       INY
7D58: C0 14    CPY #$14
7D5A: 90 F1    BCC $7D4D
7D5C: B0 11    BCS $7D6F
7D5E: A9 20    LDA #$20
7D60: AE C1 B8 LDX $B8C1
7D63: F0 EF    BEQ $7D54
7D65: 8C C1 B8 STY $B8C1
7D68: 8C C2 B8 STY $B8C2
7D6B: 8C C3 B8 STY $B8C3
7D6E: 60       RTS
7D6F: A0 14    LDY #$14
7D71: A9 00    LDA #$00
7D73: 99 57 B8 STA $B857,Y
7D76: 88       DEY
7D77: D0 FA    BNE $7D73
7D79: F0 EA    BEQ $7D65
7D7B: AE C2 B8 LDX $B8C2
7D7E: BD 58 B8 LDA $B858,X
7D81: F0 23    BEQ $7DA6
7D83: 10 06    BPL $7D8B
7D85: EE C2 B8 INC $B8C2
7D88: 20 59 6C JSR $6C59
7D8B: EE C2 B8 INC $B8C2
7D8E: 20 59 6C JSR $6C59
7D91: AD B4 03 LDA $03B4
7D94: C9 13    CMP #$13
7D96: D0 E3    BNE $7D7B
7D98: AE C2 B8 LDX $B8C2
7D9B: BD 58 B8 LDA $B858,X
7D9E: 10 DB    BPL $7D7B
7DA0: 20 59 6C JSR $6C59
7DA3: 4C 7B 6D JMP $6D7B
7DA6: 20 4A 6E JSR $6E4A
7DA9: A9 00    LDA #$00
7DAB: 8D B4 03 STA $03B4
7DAE: AD B5 03 LDA $03B5
7DB1: 8D C0 B8 STA $B8C0
7DB4: 60       RTS
7DB5: 20 D5 6D JSR $6DD5
7DB8: 8C 01 B8 STY $B801
7DBB: 20 F7 6D JSR $6DF7
7DBE: D0 03    BNE $7DC3
7DC0: 20 E8 6D JSR $6DE8
7DC3: AD 01 B8 LDA $B801
7DC6: D0 06    BNE $7DCE
7DC8: CE C2 B8 DEC $B8C2
7DCB: 20 E8 6D JSR $6DE8
7DCE: CE C2 B8 DEC $B8C2
7DD1: 20 E8 6D JSR $6DE8
7DD4: 60       RTS
7DD5: A2 00    LDX #$00
7DD7: A0 FF    LDY #$FF
7DD9: BD 58 B8 LDA $B858,X
7DDC: 10 03    BPL $7DE1
7DDE: A0 00    LDY #$00
7DE0: E8       INX
7DE1: E8       INX
7DE2: EC C2 B8 CPX $B8C2
7DE5: 90 F0    BCC $7DD7
7DE7: 60       RTS
7DE8: CE B4 03 DEC $03B4
7DEB: 30 01    BMI $7DEE
7DED: 60       RTS
7DEE: A9 13    LDA #$13
7DF0: 8D B4 03 STA $03B4
7DF3: CE B5 03 DEC $03B5
7DF6: 60       RTS
7DF7: AD B4 03 LDA $03B4
7DFA: F0 01    BEQ $7DFD
7DFC: 60       RTS
7DFD: AC C2 B8 LDY $B8C2
7E00: B9 58 B8 LDA $B858,Y
7E03: 30 03    BMI $7E08
7E05: A9 FF    LDA #$FF
7E07: 60       RTS
7E08: A9 01    LDA #$01
7E0A: 85 70    STA $70
7E0C: A2 00    LDX #$00
7E0E: 8E 00 B8 STX $B800
7E11: A9 FF    LDA #$FF
7E13: 85 6F    STA $6F
7E15: BD 58 B8 LDA $B858,X
7E18: 10 1B    BPL $7E35
7E1A: AC 00 B8 LDY $B800
7E1D: B9 40 6E LDA $6E40,Y
7E20: C5 70    CMP $70
7E22: F0 08    BEQ $7E2C
7E24: B0 0C    BCS $7E32
7E26: C8       INY
7E27: 8C 00 B8 STY $B800
7E2A: D0 F1    BNE $7E1D
7E2C: E6 70    INC $70
7E2E: A9 00    LDA #$00
7E30: 85 6F    STA $6F
7E32: E6 70    INC $70
7E34: E8       INX
7E35: E6 70    INC $70
7E37: EC C2 B8 CPX $B8C2
7E3A: E8       INX
7E3B: 90 D4    BCC $7E11
7E3D: A5 6F    LDA $6F
7E3F: 60       RTS
7E40: 14       ??
7E41: 28       PLP
7E42: 3C       ??
7E43: 50 64    BVC $7EA9
7E45: 78       SEI
7E46: 8C A0 B4 STY $B4A0
7E49: C8       INY
7E4A: AD B4 03 LDA $03B4
7E4D: F0 1C    BEQ $7E6B
7E4F: AE B5 03 LDX $03B5
7E52: E8       INX
7E53: 8E B5 03 STX $03B5
7E56: E0 04    CPX #$04
7E58: F0 12    BEQ $7E6C
7E5A: B0 17    BCS $7E73
7E5C: AD B5 03 LDA $03B5
7E5F: 0A       ASL
7E60: AA       TAX
7E61: BD 52 72 LDA $7252,X
7E64: 85 6F    STA $6F
7E66: BD 53 72 LDA $7253,X
7E69: 85 70    STA $70
7E6B: 60       RTS
7E6C: AD 47 04 LDA $0447
7E6F: C9 02    CMP #$02
7E71: 90 E9    BCC $7E5C
7E73: 20 00 71 JSR $7100
7E76: 20 BA 71 JSR $71BA
7E79: CE B5 03 DEC $03B5
7E7C: 4C 5C 6E JMP $6E5C
7E7F: 20 2C 6F JSR $6F2C
7E82: 18       CLC
7E83: 6D C3 B8 ADC $B8C3
7E86: C9 5E    CMP #$5E
7E88: 90 1D    BCC $7EA7
7E8A: F0 1B    BEQ $7EA7
7E8C: AD C5 B8 LDA $B8C5
7E8F: 10 03    BPL $7E94
7E91: 00 01 07 INT $0701
7E94: 20 12 E0 JSR $E012
7E97: AD 47 04 LDA $0447
7E9A: F0 01    BEQ $7E9D
7E9C: 60       RTS
7E9D: AD 49 04 LDA $0449
7EA0: F0 01    BEQ $7EA3
7EA2: 60       RTS
7EA3: 20 B8 6F JSR $6FB8
7EA6: 60       RTS
7EA7: AD 00 B8 LDA $B800
7EAA: 48       PHA
7EAB: 20 F7 6D JSR $6DF7
7EAE: D0 03    BNE $7EB3
7EB0: 20 E8 6D JSR $6DE8
7EB3: 68       PLA
7EB4: 8D 00 B8 STA $B800
7EB7: 20 69 6F JSR $6F69
7EBA: 20 7B 6F JSR $6F7B
7EBD: AD C2 B8 LDA $B8C2
7EC0: AE 01 B8 LDX $B801
7EC3: 8D 01 B8 STA $B801
7EC6: 8E C2 B8 STX $B8C2
7EC9: 20 BE 6F JSR $6FBE
7ECC: 20 9A AD JSR $AD9A
7ECF: AD 47 04 LDA $0447
7ED2: C9 02    CMP #$02
7ED4: F0 01    BEQ $7ED7
7ED6: 60       RTS
7ED7: AD C5 B8 LDA $B8C5
7EDA: 30 01    BMI $7EDD
7EDC: 60       RTS
7EDD: AD 5F 04 LDA $045F
7EE0: F0 01    BEQ $7EE3
7EE2: 60       RTS
7EE3: AD C5 B8 LDA $B8C5
7EE6: 85 92    STA $92
7EE8: AD 65 B9 LDA $B965
7EEB: 85 93    STA $93
7EED: 00 07 07 INT $0707
7EF0: B0 01    BCS $7EF3
7EF2: 60       RTS
7EF3: 20 2C 6F JSR $6F2C
7EF6: 18       CLC
7EF7: 6D C3 B8 ADC $B8C3
7EFA: C9 5E    CMP #$5E
7EFC: 90 06    BCC $7F04
7EFE: F0 04    BEQ $7F04
7F00: 20 12 E0 JSR $E012
7F03: 60       RTS
7F04: 20 69 6F JSR $6F69
7F07: AE C2 B8 LDX $B8C2
7F0A: A5 92    LDA $92
7F0C: 9D 58 B8 STA $B858,X
7F0F: E8       INX
7F10: A5 93    LDA $93
7F12: 9D 58 B8 STA $B858,X
7F15: E8       INX
7F16: 8E 01 B8 STX $B801
7F19: AD C2 B8 LDA $B8C2
7F1C: AE 01 B8 LDX $B801
7F1F: 8D 01 B8 STA $B801
7F22: 8E C2 B8 STX $B8C2
7F25: 20 BE 6F JSR $6FBE
7F28: 20 9A AD JSR $AD9A
7F2B: 60       RTS
7F2C: AD C4 B8 LDA $B8C4
7F2F: D0 0D    BNE $7F3E
7F31: AD C5 B8 LDA $B8C5
7F34: 10 04    BPL $7F3A
7F36: A9 02    LDA #$02
7F38: D0 23    BNE $7F5D
7F3A: A9 01    LDA #$01
7F3C: D0 1F    BNE $7F5D
7F3E: AE C2 B8 LDX $B8C2
7F41: BD 58 B8 LDA $B858,X
7F44: F0 EB    BEQ $7F31
7F46: 29 80    AND #$80
7F48: 8D 00 B8 STA $B800
7F4B: AD C5 B8 LDA $B8C5
7F4E: 29 80    AND #$80
7F50: CD 00 B8 CMP $B800
7F53: F0 10    BEQ $7F65
7F55: 90 04    BCC $7F5B
7F57: A9 01    LDA #$01
7F59: D0 02    BNE $7F5D
7F5B: A9 03    LDA #$03
7F5D: 8D 00 B8 STA $B800
7F60: AA       TAX
7F61: BD 66 72 LDA $7266,X
7F64: 60       RTS
7F65: A9 00    LDA #$00
7F67: F0 F4    BEQ $7F5D
7F69: AD 00 B8 LDA $B800
7F6C: 0A       ASL
7F6D: AA       TAX
7F6E: BD 6A 72 LDA $726A,X
7F71: 85 80    STA $80
7F73: BD 6B 72 LDA $726B,X
7F76: 85 81    STA $81
7F78: 6C 80 00 JMP ($0080)
7F7B: AE C2 B8 LDX $B8C2
7F7E: 8E 01 B8 STX $B801
7F81: EE 01 B8 INC $B801
7F84: AD C5 B8 LDA $B8C5
7F87: 9D 58 B8 STA $B858,X
7F8A: 10 0F    BPL $7F9B
7F8C: 00 01 07 INT $0701
7F8F: AE 01 B8 LDX $B801
7F92: 8D 65 B9 STA $B965
7F95: 9D 58 B8 STA $B858,X
7F98: EE 01 B8 INC $B801
7F9B: 60       RTS
7F9C: AD C6 B8 LDA $B8C6
7F9F: 8D C2 B8 STA $B8C2
7FA2: A9 99    LDA #$99
7FA4: 85 60    STA $60
7FA6: A9 B9    LDA #$B9
7FA8: 85 61    STA $61
7FAA: A9 00    LDA #$00
7FAC: 8D 01 B8 STA $B801
7FAF: 8D 00 B8 STA $B800
7FB2: 20 E3 70 JSR $70E3
7FB5: 4C C9 6F JMP $6FC9
7FB8: AD C2 B8 LDA $B8C2
7FBB: 8D 01 B8 STA $B801
7FBE: A9 58    LDA #$58
7FC0: 85 60    STA $60
7FC2: A9 B8    LDA #$B8
7FC4: 85 61    STA $61
7FC6: 20 E3 70 JSR $70E3
7FC9: AC 01 B8 LDY $B801
7FCC: B1 60    LDA ($60),Y
7FCE: 10 24    BPL $7FF4
7FD0: 20 41 71 JSR $7141
7FD3: 90 07    BCC $7FDC
7FD5: CE 01 B8 DEC $B801
7FD8: A9 20    LDA #$20
7FDA: D0 18    BNE $7FF4
7FDC: A0 00    LDY #$00
7FDE: 91 6F    STA ($6F),Y
7FE0: 20 7B 70 JSR $707B
7FE3: 20 30 70 JSR $7030
7FE6: EE 01 B8 INC $B801
7FE9: E6 6F    INC $6F
7FEB: D0 02    BNE $7FEF
7FED: E6 70    INC $70
7FEF: AC 01 B8 LDY $B801
7FF2: B1 60    LDA ($60),Y
7FF4: A0 00    LDY #$00
7FF6: 91 6F    STA ($6F),Y
7FF8: 48       PHA
7FF9: 68       PLA
7FFA: F0 30    BEQ $802C
7FFC: 20 7B 70 JSR $707B
7FFF: 20 30 70 JSR $7030
8002: EE 01 B8 INC $B801
8005: E6 6F    INC $6F
8007: D0 02    BNE $800B
8009: E6 70    INC $70
800B: AD 47 04 LDA $0447
800E: C9 02    CMP #$02
8010: F0 0D    BEQ $801F
8012: A5 70    LDA $70
8014: C9 03    CMP #$03
8016: D0 04    BNE $801C
8018: A5 6F    LDA $6F
801A: C9 24    CMP #$24
801C: 90 AB    BCC $7FC9
801E: 60       RTS
801F: A5 70    LDA $70
8021: C9 03    CMP #$03
8023: D0 04    BNE $8029
8025: A5 6F    LDA $6F
8027: C9 10    CMP #$10
8029: 90 9E    BCC $7FC9
802B: 60       RTS
802C: 20 B0 70 JSR $70B0
802F: 60       RTS
8030: AD 01 B8 LDA $B801
8033: CD C2 B8 CMP $B8C2
8036: 90 01    BCC $8039
8038: 60       RTS
8039: AE B4 03 LDX $03B4
803C: E8       INX
803D: E0 14    CPX #$14
803F: F0 04    BEQ $8045
8041: 8E B4 03 STX $03B4
8044: 60       RTS
8045: A9 00    LDA #$00
8047: 8D B4 03 STA $03B4
804A: AE B5 03 LDX $03B5
804D: E8       INX
804E: AD 47 04 LDA $0447
8051: C9 02    CMP #$02
8053: D0 0F    BNE $8064
8055: E0 04    CPX #$04
8057: 90 1E    BCC $8077
8059: A9 FB    LDA #$FB
805B: 85 6F    STA $6F
805D: A9 02    LDA #$02
805F: 85 70    STA $70
8061: 4C 70 70 JMP $7070
8064: E0 05    CPX #$05
8066: 90 0F    BCC $8077
8068: A9 0F    LDA #$0F
806A: 85 6F    STA $6F
806C: A9 03    LDA #$03
806E: 85 70    STA $70
8070: 20 00 71 JSR $7100
8073: 20 BA 71 JSR $71BA
8076: 60       RTS
8077: 8E B5 03 STX $03B5
807A: 60       RTS
807B: AD 12 B8 LDA $B812
807E: 29 03    AND #$03
8080: F0 24    BEQ $80A6
8082: C9 03    CMP #$03
8084: B0 20    BCS $80A6
8086: C9 02    CMP #$02
8088: 08       PHP
8089: 38       SEC
808A: A5 6F    LDA $6F
808C: E9 C0    SBC #$C0
808E: AA       TAX
808F: 4A       LSR
8090: 4A       LSR
8091: 4A       LSR
8092: A8       TAY
8093: 8A       TXA
8094: 29 07    AND #$07
8096: AA       TAX
8097: BD A7 70 LDA $70A7,X
809A: 19 2B B9 ORA $B92B,Y
809D: 99 2B B9 STA $B92B,Y
80A0: 28       PLP
80A1: D0 03    BNE $80A6
80A3: 99 38 B9 STA $B938,Y
80A6: 60       RTS
80A7: 80       ??
80A8: 40       RTI
80A9: 20 10 08 JSR $0810
80AC: 04       ??
80AD: 02       ??
80AE: 01 60    ORA ($60,X)
80B0: A0 00    LDY #$00
80B2: E6 6F    INC $6F
80B4: D0 02    BNE $80B8
80B6: E6 70    INC $70
80B8: AD 47 04 LDA $0447
80BB: C9 02    CMP #$02
80BD: D0 0D    BNE $80CC
80BF: A5 70    LDA $70
80C1: C9 03    CMP #$03
80C3: D0 04    BNE $80C9
80C5: A5 6F    LDA $6F
80C7: C9 10    CMP #$10
80C9: 4C D6 70 JMP $70D6
80CC: A5 70    LDA $70
80CE: C9 03    CMP #$03
80D0: D0 04    BNE $80D6
80D2: A5 6F    LDA $6F
80D4: C9 24    CMP #$24
80D6: B0 0A    BCS $80E2
80D8: B1 6F    LDA ($6F),Y
80DA: F0 06    BEQ $80E2
80DC: A9 00    LDA #$00
80DE: 91 6F    STA ($6F),Y
80E0: F0 D0    BEQ $80B2
80E2: 60       RTS
80E3: AD B5 03 LDA $03B5
80E6: 0A       ASL
80E7: AA       TAX
80E8: BD 52 72 LDA $7252,X
80EB: 85 6F    STA $6F
80ED: BD 53 72 LDA $7253,X
80F0: 85 70    STA $70
80F2: 18       CLC
80F3: AD B4 03 LDA $03B4
80F6: 18       CLC
80F7: 65 6F    ADC $6F
80F9: 85 6F    STA $6F
80FB: 90 02    BCC $80FF
80FD: E6 70    INC $70
80FF: 60       RTS
8100: A9 50    LDA #$50
8102: E0 05    CPX #$05
8104: F0 02    BEQ $8108
8106: A9 3C    LDA #$3C
8108: 8D 02 B8 STA $B802
810B: A2 00    LDX #$00
810D: BD D4 02 LDA $02D4,X
8110: 9D C0 02 STA $02C0,X
8113: E8       INX
8114: EC 02 B8 CPX $B802
8117: 90 F4    BCC $810D
8119: 20 25 71 JSR $7125
811C: AD 68 B9 LDA $B968
811F: F0 03    BEQ $8124
8121: 20 32 71 JSR $7132
8124: 60       RTS
8125: AD 02 B8 LDA $B802
8128: C9 3C    CMP #$3C
812A: D0 03    BNE $812F
812C: 4C EB AC JMP $ACEB
812F: 4C F2 AC JMP $ACF2
8132: A9 30    LDA #$30
8134: AE 02 B8 LDX $B802
8137: E0 3C    CPX #$3C
8139: F0 02    BEQ $813D
813B: A9 40    LDA #$40
813D: 20 5D AD JSR $AD5D
8140: 60       RTS
8141: AA       TAX
8142: A0 00    LDY #$00
8144: A5 6F    LDA $6F
8146: D9 5C 72 CMP $725C,Y
8149: D0 07    BNE $8152
814B: A5 70    LDA $70
814D: D9 5D 72 CMP $725D,Y
8150: F0 07    BEQ $8159
8152: C8       INY
8153: C8       INY
8154: C0 0A    CPY #$0A
8156: 90 EC    BCC $8144
8158: 18       CLC
8159: 8A       TXA
815A: 60       RTS
815B: AD B5 03 LDA $03B5
815E: 8D C0 B8 STA $B8C0
8161: 0A       ASL
8162: AA       TAX
8163: BD 52 72 LDA $7252,X
8166: 85 6F    STA $6F
8168: BD 53 72 LDA $7253,X
816B: 85 70    STA $70
816D: AD B4 03 LDA $03B4
8170: F0 03    BEQ $8175
8172: 20 4A 6E JSR $6E4A
8175: AD 27 B8 LDA $B827
8178: 29 7F    AND #$7F
817A: A0 00    LDY #$00
817C: 91 6F    STA ($6F),Y
817E: A9 01    LDA #$01
8180: 8D B4 03 STA $03B4
8183: 20 9A AD JSR $AD9A
8186: 60       RTS
8187: AE C2 B8 LDX $B8C2
818A: BD 59 B8 LDA $B859,X
818D: 9D 58 B8 STA $B858,X
8190: E8       INX
8191: EC C3 B8 CPX $B8C3
8194: 90 F4    BCC $818A
8196: CE C3 B8 DEC $B8C3
8199: 60       RTS
819A: 20 A0 71 JSR $71A0
819D: 4C A0 71 JMP $71A0
81A0: AE C3 B8 LDX $B8C3
81A3: EC C2 B8 CPX $B8C2
81A6: F0 0E    BEQ $81B6
81A8: BD 57 B8 LDA $B857,X
81AB: 9D 58 B8 STA $B858,X
81AE: CA       DEX
81AF: EC C2 B8 CPX $B8C2
81B2: F0 02    BEQ $81B6
81B4: B0 F2    BCS $81A8
81B6: EE C3 B8 INC $B8C3
81B9: 60       RTS
81BA: A2 00    LDX #$00
81BC: 18       CLC
81BD: 8A       TXA
81BE: 48       PHA
81BF: 69 05    ADC #$05
81C1: 4A       LSR
81C2: A8       TAY
81C3: 8A       TXA
81C4: 4A       LSR
81C5: AA       TAX
81C6: B0 29    BCS $81F1
81C8: A9 00    LDA #$00
81CA: 9D 2B B9 STA $B92B,X
81CD: 9D 38 B9 STA $B938,X
81D0: A9 0F    LDA #$0F
81D2: 39 2B B9 AND $B92B,Y
81D5: 0A       ASL
81D6: 0A       ASL
81D7: 0A       ASL
81D8: 0A       ASL
81D9: 1D 2B B9 ORA $B92B,X
81DC: 9D 2B B9 STA $B92B,X
81DF: A9 0F    LDA #$0F
81E1: 39 38 B9 AND $B938,Y
81E4: 0A       ASL
81E5: 0A       ASL
81E6: 0A       ASL
81E7: 0A       ASL
81E8: 1D 38 B9 ORA $B938,X
81EB: 9D 38 B9 STA $B938,X
81EE: 4C 0F 72 JMP $720F
81F1: A9 F0    LDA #$F0
81F3: 39 2B B9 AND $B92B,Y
81F6: 4A       LSR
81F7: 4A       LSR
81F8: 4A       LSR
81F9: 4A       LSR
81FA: 1D 2B B9 ORA $B92B,X
81FD: 9D 2B B9 STA $B92B,X
8200: A9 F0    LDA #$F0
8202: 39 38 B9 AND $B938,Y
8205: 4A       LSR
8206: 4A       LSR
8207: 4A       LSR
8208: 4A       LSR
8209: 1D 38 B9 ORA $B938,X
820C: 9D 38 B9 STA $B938,X
820F: 68       PLA
8210: AA       TAX
8211: E8       INX
8212: E0 14    CPX #$14
8214: 90 A7    BCC $81BD
8216: A9 00    LDA #$00
8218: A2 0A    LDX #$0A
821A: 9D 2B B9 STA $B92B,X
821D: 9D 38 B9 STA $B938,X
8220: E8       INX
8221: 9D 2B B9 STA $B92B,X
8224: 9D 38 B9 STA $B938,X
8227: E8       INX
8228: 9D 2B B9 STA $B92B,X
822B: 60       RTS
822C: A0 2E    LDY #$2E
822E: A9 00    LDA #$00
8230: 99 29 B8 STA $B829,Y
8233: 88       DEY
8234: 10 FA    BPL $8230
8236: A0 5E    LDY #$5E
8238: A9 00    LDA #$00
823A: 99 58 B8 STA $B858,Y
823D: 88       DEY
823E: 10 FA    BPL $823A
8240: 8D C2 B8 STA $B8C2
8243: 8D C3 B8 STA $B8C3
8246: 60       RTS
8247: C9 61    CMP #$61
8249: 90 06    BCC $8251
824B: C9 7B    CMP #$7B
824D: B0 02    BCS $8251
824F: 49 20    EOR #$20
8251: 60       RTS
8252: C0 02    CPY #$02
8254: D4       ??
8255: 02       ??
8256: E8       INX
8257: 02       ??
8258: FC       ??
8259: 02       ??
825A: 10 03    BPL $825F
825C: D3       ??
825D: 02       ??
825E: E7       ??
825F: 02       ??
8260: FB       ??
8261: 02       ??
8262: 0F       ??
8263: 03       ??
8264: 23       ??
8265: 03       ??
8266: 00 01 02 INT $0201
8269: FF       ??
826A: 09 6A    ORA #$6A
826C: A0 71    LDY #$71
826E: 9A       TXS
826F: 71 87    ADC ($87),Y
8271: 71 D0    ADC ($D0),Y
8273: 16 A2    ASL $A2,X
8275: 0F       ??
8276: AC D4 B8 LDY $B8D4
8279: D0 03    BNE $827E
827B: 4C 9F 67 JMP $679F
827E: AD D3 B8 LDA $B8D3
8281: 85 5E    STA $5E
8283: 84 5F    STY $5F
8285: A9 FF    LDA #$FF
8287: 8D 15 B8 STA $B815
828A: 4C F1 60 JMP $60F1
828D: 4C 42 77 JMP $7742
8290: 4C 42 77 JMP $7742
8293: AD 8D BA LDA $BA8D
8296: 8D C9 B8 STA $B8C9
8299: 8D C7 B8 STA $B8C7
829C: AD 8E BA LDA $BA8E
829F: 8D CA B8 STA $B8CA
82A2: 8D C8 B8 STA $B8C8
82A5: 60       RTS
82A6: 20 EE 72 JSR $72EE
82A9: A9 00    LDA #$00
82AB: 8D 68 B9 STA $B968
82AE: D0 1B    BNE $82CB
82B0: 20 4A 68 JSR $684A
82B3: 20 CC 72 JSR $72CC
82B6: A2 49    LDX #$49
82B8: 86 42    STX $42
82BA: 68       PLA
82BB: A8       TAY
82BC: 68       PLA
82BD: A2 F8    LDX #$F8
82BF: 9A       TXS
82C0: 48       PHA
82C1: 98       TYA
82C2: 48       PHA
82C3: A9 00    LDA #$00
82C5: 8D D4 B8 STA $B8D4
82C8: 8D 0B B8 STA $B80B
82CB: 60       RTS
82CC: AD D1 B8 LDA $B8D1
82CF: AC D2 B8 LDY $B8D2
82D2: 8D CF B8 STA $B8CF
82D5: 8C D0 B8 STY $B8D0
82D8: AD C9 B8 LDA $B8C9
82DB: AC CA B8 LDY $B8CA
82DE: 8D CD B8 STA $B8CD
82E1: 8C CE B8 STY $B8CE
82E4: 8D CB B8 STA $B8CB
82E7: 8C CC B8 STY $B8CC
82EA: 38       SEC
82EB: 4C CC 74 JMP $74CC
82EE: 18       CLC
82EF: A5 54    LDA $54
82F1: 69 FF    ADC #$FF
82F3: 85 5E    STA $5E
82F5: A5 55    LDA $55
82F7: 69 FF    ADC #$FF
82F9: 85 5F    STA $5F
82FB: 60       RTS
82FC: 4C 42 77 JMP $7742
82FF: AE C6 B8 LDX $B8C6
8302: 48       PHA
8303: 68       PLA
8304: 10 05    BPL $830B
8306: E0 5D    CPX #$5D
8308: 90 06    BCC $8310
830A: 60       RTS
830B: E0 5E    CPX #$5E
830D: 90 01    BCC $8310
830F: 60       RTS
8310: 9D 58 B8 STA $B858,X
8313: EE C6 B8 INC $B8C6
8316: EE C3 B8 INC $B8C3
8319: 60       RTS
831A: AE C6 B8 LDX $B8C6
831D: 9D 99 B9 STA $B999,X
8320: EE C6 B8 INC $B8C6
8323: EE C3 B8 INC $B8C3
8326: 60       RTS
8327: 68       PLA
8328: 68       PLA
8329: A9 04    LDA #$04
832B: 20 5F 67 JSR $675F
832E: AD 55 B9 LDA $B955
8331: 48       PHA
8332: AD 56 B9 LDA $B956
8335: 48       PHA
8336: A5 5E    LDA $5E
8338: 48       PHA
8339: A5 5F    LDA $5F
833B: 48       PHA
833C: AD 14 B8 LDA $B814
833F: 48       PHA
8340: AD 15 B8 LDA $B815
8343: 48       PHA
8344: A9 BB    LDA #$BB
8346: 48       PHA
8347: 20 7A 9B JSR $9B7A
834A: A5 6F    LDA $6F
834C: F0 03    BEQ $8351
834E: 4C B7 73 JMP $73B7
8351: 68       PLA
8352: 68       PLA
8353: 68       PLA
8354: 68       PLA
8355: 68       PLA
8356: 68       PLA
8357: 68       PLA
8358: A9 00    LDA #$00
835A: 85 80    STA $80
835C: 20 76 76 JSR $7676
835F: 48       PHA
8360: 20 63 76 JSR $7663
8363: 68       PLA
8364: D0 37    BNE $839D
8366: A0 02    LDY #$02
8368: B1 5E    LDA ($5E),Y
836A: D0 1A    BNE $8386
836C: 2C 4E B9 BIT $B94E
836F: 18       CLC
8370: 70 03    BVS $8375
8372: 4C 29 75 JMP $7529
8375: 20 57 66 JSR $6657
8378: 20 7C 68 JSR $687C
837B: A9 00    LDA #$00
837D: 85 5E    STA $5E
837F: A9 20    LDA #$20
8381: 85 5F    STA $5F
8383: 4C 66 73 JMP $7366
8386: C8       INY
8387: B1 5E    LDA ($5E),Y
8389: 8D 14 B8 STA $B814
838C: C8       INY
838D: B1 5E    LDA ($5E),Y
838F: 8D 15 B8 STA $B815
8392: 98       TYA
8393: A9 04    LDA #$04
8395: 65 5E    ADC $5E
8397: 85 5E    STA $5E
8399: 90 02    BCC $839D
839B: E6 5F    INC $5F
839D: 20 34 66 JSR $6634
83A0: C9 BB    CMP #$BB
83A2: F0 07    BEQ $83AB
83A4: C9 BC    CMP #$BC
83A6: F0 08    BEQ $83B0
83A8: 4C 5C 73 JMP $735C
83AB: E6 80    INC $80
83AD: 4C 5C 73 JMP $735C
83B0: C6 80    DEC $80
83B2: 10 A8    BPL $835C
83B4: 20 34 66 JSR $6634
83B7: 4C F1 60 JMP $60F1
83BA: BA       TSX
83BB: E8       INX
83BC: E8       INX
83BD: BD 01 01 LDA $0101,X
83C0: C9 BB    CMP #$BB
83C2: F0 23    BEQ $83E7
83C4: C9 81    CMP #$81
83C6: D0 0C    BNE $83D4
83C8: 8A       TXA
83C9: 18       CLC
83CA: 69 14    ADC #$14
83CC: 90 03    BCC $83D1
83CE: 4C FD 9C JMP $9CFD
83D1: AA       TAX
83D2: D0 E9    BNE $83BD
83D4: C9 91    CMP #$91
83D6: F0 03    BEQ $83DB
83D8: 4C FD 9C JMP $9CFD
83DB: 8A       TXA
83DC: 18       CLC
83DD: 69 07    ADC #$07
83DF: 90 03    BCC $83E4
83E1: 4C FD 9C JMP $9CFD
83E4: AA       TAX
83E5: D0 D6    BNE $83BD
83E7: 9A       TXS
83E8: BD 02 01 LDA $0102,X
83EB: 8D 15 B8 STA $B815
83EE: BD 03 01 LDA $0103,X
83F1: 8D 14 B8 STA $B814
83F4: BD 04 01 LDA $0104,X
83F7: 85 5F    STA $5F
83F9: BD 05 01 LDA $0105,X
83FC: 85 5E    STA $5E
83FE: 2C 4E B9 BIT $B94E
8401: 10 1D    BPL $8420
8403: BD 06 01 LDA $0106,X
8406: A8       TAY
8407: BD 07 01 LDA $0107,X
840A: CC 56 B9 CPY $B956
840D: D0 05    BNE $8414
840F: CD 55 B9 CMP $B955
8412: F0 0C    BEQ $8420
8414: 8D 57 B9 STA $B957
8417: 8C 58 B9 STY $B958
841A: 20 57 66 JSR $6657
841D: 20 7C 68 JSR $687C
8420: 4C 47 73 JMP $7347
8423: A9 80    LDA #$80
8425: 8D 0B B8 STA $B80B
8428: 20 BC 77 JSR $77BC
842B: 20 D8 66 JSR $66D8
842E: D0 05    BNE $8435
8430: 8A       TXA
8431: 69 11    ADC #$11
8433: AA       TAX
8434: 9A       TXS
8435: 68       PLA
8436: 68       PLA
8437: A9 0A    LDA #$0A
8439: 20 5F 67 JSR $675F
843C: 20 76 76 JSR $7676
843F: AD 55 B9 LDA $B955
8442: 48       PHA
8443: AD 56 B9 LDA $B956
8446: 48       PHA
8447: 18       CLC
8448: 98       TYA
8449: 65 5E    ADC $5E
844B: 48       PHA
844C: A5 5F    LDA $5F
844E: 69 00    ADC #$00
8450: 48       PHA
8451: AD 14 B8 LDA $B814
8454: 48       PHA
8455: AD 15 B8 LDA $B815
8458: 48       PHA
8459: A9 C1    LDA #$C1
845B: 20 F4 9C JSR $9CF4
845E: 20 2F 7D JSR $7D2F
8461: 20 2C 7D JSR $7D2C
8464: A5 74    LDA $74
8466: 09 7F    ORA #$7F
8468: 25 70    AND $70
846A: 85 70    STA $70
846C: A9 77    LDA #$77
846E: A0 74    LDY #$74
8470: 85 44    STA $44
8472: 84 45    STY $45
8474: 4C 40 9C JMP $9C40
8477: A9 5D    LDA #$5D
8479: A0 9F    LDY #$9F
847B: 20 66 A1 JSR $A166
847E: 20 3A 66 JSR $663A
8481: C9 C8    CMP #$C8
8483: D0 06    BNE $848B
8485: 20 34 66 JSR $6634
8488: 20 2C 7D JSR $7D2C
848B: 20 F4 A1 JSR $A1F4
848E: 20 35 9C JSR $9C35
8491: A5 5C    LDA $5C
8493: 48       PHA
8494: A5 5D    LDA $5D
8496: 48       PHA
8497: A9 81    LDA #$81
8499: 48       PHA
849A: 4C F1 60 JMP $60F1
849D: 2C 4E B9 BIT $B94E
84A0: 10 19    BPL $84BB
84A2: A9 00    LDA #$00
84A4: 8D 59 B9 STA $B959
84A7: 8D 5A B9 STA $B95A
84AA: 20 9B 66 JSR $669B
84AD: 20 1B 69 JSR $691B
84B0: A9 00    LDA #$00
84B2: 8D D5 B8 STA $B8D5
84B5: A9 22    LDA #$22
84B7: 8D D6 B8 STA $B8D6
84BA: 60       RTS
84BB: 38       SEC
84BC: A5 54    LDA $54
84BE: E9 01    SBC #$01
84C0: A4 55    LDY $55
84C2: B0 01    BCS $84C5
84C4: 88       DEY
84C5: 8D D5 B8 STA $B8D5
84C8: 8C D6 B8 STY $B8D6
84CB: 60       RTS
84CC: B0 CF    BCS $849D
84CE: 20 78 77 JSR $7778
84D1: 2C 4E B9 BIT $B94E
84D4: 30 10    BMI $84E6
84D6: 20 0A 6A JSR $6A0A
84D9: 90 C2    BCC $849D
84DB: 38       SEC
84DC: A5 68    LDA $68
84DE: E9 01    SBC #$01
84E0: A4 69    LDY $69
84E2: B0 E1    BCS $84C5
84E4: 90 DE    BCC $84C4
84E6: 20 57 6A JSR $6A57
84E9: 4C D9 74 JMP $74D9
84EC: A5 C3    LDA $C3
84EE: C9 7B    CMP #$7B
84F0: F0 13    BEQ $8505
84F2: 60       RTS
84F3: 20 ED 69 JSR $69ED
84F6: A2 FF    LDX #$FF
84F8: 2C 10 B8 BIT $B810
84FB: 10 03    BPL $8500
84FD: 4C 63 86 JMP $8663
8500: C9 03    CMP #$03
8502: 4C 42 77 JMP $7742
8505: 18       CLC
8506: F0 03    BEQ $850B
8508: 4C 6E 75 JMP $756E
850B: A5 5E    LDA $5E
850D: A4 5F    LDY $5F
850F: AE 15 B8 LDX $B815
8512: E8       INX
8513: F0 12    BEQ $8527
8515: 8D D3 B8 STA $B8D3
8518: 8C D4 B8 STY $B8D4
851B: AD 14 B8 LDA $B814
851E: AC 15 B8 LDY $B815
8521: 8D 16 B8 STA $B816
8524: 8C 17 B8 STY $B817
8527: 68       PLA
8528: 68       PLA
8529: A9 2E    LDA #$2E
852B: A0 66    LDY #$66
852D: 90 03    BCC $8532
852F: 4C 01 68 JMP $6801
8532: EE 15 B8 INC $B815
8535: F0 06    BEQ $853D
8537: 00 06 C0 INT $C006
853A: 20 69 88 JSR $8869
853D: A9 FF    LDA #$FF
853F: 8D 15 B8 STA $B815
8542: 20 4A 68 JSR $684A
8545: 4C 32 88 JMP $8832
8548: D0 24    BNE $856E
854A: A2 0F    LDX #$0F
854C: AC D4 B8 LDY $B8D4
854F: D0 03    BNE $8554
8551: 4C 9F 67 JMP $679F
8554: AE 15 B8 LDX $B815
8557: E8       INX
8558: F0 01    BEQ $855B
855A: 60       RTS
855B: AD D3 B8 LDA $B8D3
855E: 85 5E    STA $5E
8560: 84 5F    STY $5F
8562: AD 16 B8 LDA $B816
8565: AC 17 B8 LDY $B817
8568: 8D 14 B8 STA $B814
856B: 8C 15 B8 STY $B815
856E: 60       RTS
856F: A9 00    LDA #$00
8571: 8D 15 B8 STA $B815
8574: A9 00    LDA #$00
8576: 8D 10 B8 STA $B810
8579: 20 8C 88 JSR $888C
857C: 2C 4E B9 BIT $B94E
857F: 10 0E    BPL $858F
8581: A9 00    LDA #$00
8583: 8D 57 B9 STA $B957
8586: 8D 58 B9 STA $B958
8589: 20 57 66 JSR $6657
858C: 20 7C 68 JSR $687C
858F: 20 A6 72 JSR $72A6
8592: 4C F1 60 JMP $60F1
8595: A9 04    LDA #$04
8597: 20 5F 67 JSR $675F
859A: 68       PLA
859B: 68       PLA
859C: AD 55 B9 LDA $B955
859F: 48       PHA
85A0: AD 56 B9 LDA $B956
85A3: 48       PHA
85A4: A5 5E    LDA $5E
85A6: 48       PHA
85A7: A5 5F    LDA $5F
85A9: 48       PHA
85AA: AD 14 B8 LDA $B814
85AD: 48       PHA
85AE: AD 15 B8 LDA $B815
85B1: 48       PHA
85B2: A9 91    LDA #$91
85B4: 48       PHA
85B5: 20 3A 66 JSR $663A
85B8: 20 BE 75 JSR $75BE
85BB: 4C F1 60 JMP $60F1
85BE: 20 78 77 JSR $7778
85C1: 20 79 76 JSR $7679
85C4: AD 15 B8 LDA $B815
85C7: C5 41    CMP $41
85C9: D0 05    BNE $85D0
85CB: AD 14 B8 LDA $B814
85CE: C5 40    CMP $40
85D0: B0 0B    BCS $85DD
85D2: 98       TYA
85D3: 38       SEC
85D4: 65 5E    ADC $5E
85D6: A6 5F    LDX $5F
85D8: 90 07    BCC $85E1
85DA: E8       INX
85DB: B0 04    BCS $85E1
85DD: A5 54    LDA $54
85DF: A6 55    LDX $55
85E1: 20 0E 6A JSR $6A0E
85E4: 90 3B    BCC $8621
85E6: A5 68    LDA $68
85E8: E9 01    SBC #$01
85EA: 85 5E    STA $5E
85EC: A5 69    LDA $69
85EE: E9 00    SBC #$00
85F0: 85 5F    STA $5F
85F2: 60       RTS
85F3: D0 FD    BNE $85F2
85F5: BA       TSX
85F6: E8       INX
85F7: E8       INX
85F8: BD 01 01 LDA $0101,X
85FB: C9 91    CMP #$91
85FD: F0 1A    BEQ $8619
85FF: C9 81    CMP #$81
8601: D0 09    BNE $860C
8603: 8A       TXA
8604: 18       CLC
8605: 69 14    ADC #$14
8607: B0 15    BCS $861E
8609: AA       TAX
860A: D0 EC    BNE $85F8
860C: C9 BB    CMP #$BB
860E: D0 0E    BNE $861E
8610: 8A       TXA
8611: 18       CLC
8612: 69 07    ADC #$07
8614: B0 08    BCS $861E
8616: AA       TAX
8617: D0 DF    BNE $85F8
8619: 9A       TXS
861A: C9 91    CMP #$91
861C: F0 0B    BEQ $8629
861E: A2 02    LDX #$02
8620: 2C A2 07 BIT $07A2
8623: 4C 9F 67 JMP $679F
8626: 4C FD 9C JMP $9CFD
8629: 68       PLA
862A: 68       PLA
862B: C0 16    CPY #$16
862D: F0 3F    BEQ $866E
862F: 8D 15 B8 STA $B815
8632: 68       PLA
8633: 8D 14 B8 STA $B814
8636: 68       PLA
8637: 85 5F    STA $5F
8639: 68       PLA
863A: 85 5E    STA $5E
863C: 68       PLA
863D: AA       TAX
863E: 68       PLA
863F: 2C 4E B9 BIT $B94E
8642: 10 16    BPL $865A
8644: CD 55 B9 CMP $B955
8647: D0 05    BNE $864E
8649: EC 56 B9 CPX $B956
864C: F0 0C    BEQ $865A
864E: 8D 57 B9 STA $B957
8651: 8E 58 B9 STX $B958
8654: 20 57 66 JSR $6657
8657: 20 7C 68 JSR $687C
865A: 20 60 76 JSR $7660
865D: 4C F1 60 JMP $60F1
8660: 20 76 76 JSR $7676
8663: 98       TYA
8664: 18       CLC
8665: 65 5E    ADC $5E
8667: 85 5E    STA $5E
8669: 90 02    BCC $866D
866B: E6 5F    INC $5F
866D: 60       RTS
866E: 68       PLA
866F: 68       PLA
8670: 68       PLA
8671: 68       PLA
8672: 68       PLA
8673: 4C 5A 76 JMP $765A
8676: A2 3A    LDX #$3A
8678: 2C A2 00 BIT $00A2
867B: 8E 00 B8 STX $B800
867E: A0 00    LDY #$00
8680: 8C 01 B8 STY $B801
8683: AD 01 B8 LDA $B801
8686: AE 00 B8 LDX $B800
8689: 8D 00 B8 STA $B800
868C: 8E 01 B8 STX $B801
868F: B1 5E    LDA ($5E),Y
8691: F0 DA    BEQ $866D
8693: CD 01 B8 CMP $B801
8696: F0 D5    BEQ $866D
8698: C8       INY
8699: C9 22    CMP #$22
869B: D0 F2    BNE $868F
869D: F0 E4    BEQ $8683
869F: A2 8F    LDX #$8F
86A1: 86 81    STX $81
86A3: A2 C5    LDX #$C5
86A5: 86 83    STX $83
86A7: A2 00    LDX #$00
86A9: 86 80    STX $80
86AB: 86 82    STX $82
86AD: 86 84    STX $84
86AF: A0 00    LDY #$00
86B1: A5 81    LDA $81
86B3: A6 80    LDX $80
86B5: 85 80    STA $80
86B7: 86 81    STX $81
86B9: A5 83    LDA $83
86BB: A6 82    LDX $82
86BD: 85 82    STA $82
86BF: 86 83    STX $83
86C1: B1 5E    LDA ($5E),Y
86C3: F0 0F    BEQ $86D4
86C5: C5 80    CMP $80
86C7: F0 0C    BEQ $86D5
86C9: C5 82    CMP $82
86CB: F0 10    BEQ $86DD
86CD: C8       INY
86CE: C9 22    CMP #$22
86D0: D0 EF    BNE $86C1
86D2: F0 DD    BEQ $86B1
86D4: 60       RTS
86D5: A5 FF    LDA $FF
86D7: E6 84    INC $84
86D9: C8       INY
86DA: 4C C1 76 JMP $76C1
86DD: C8       INY
86DE: C6 84    DEC $84
86E0: 30 F2    BMI $86D4
86E2: 4C C1 76 JMP $76C1
86E5: 20 7A 9B JSR $9B7A
86E8: 20 3A 66 JSR $663A
86EB: C9 8D    CMP #$8D
86ED: F0 05    BEQ $86F4
86EF: A9 C4    LDA #$C4
86F1: 20 F4 9C JSR $9CF4
86F4: A5 6F    LDA $6F
86F6: D0 0A    BNE $8702
86F8: 20 9F 76 JSR $769F
86FB: 48       PHA
86FC: 20 63 76 JSR $7663
86FF: 68       PLA
8700: F0 3F    BEQ $8741
8702: 20 3A 66 JSR $663A
8705: B0 03    BCS $870A
8707: 4C BE 75 JMP $75BE
870A: C9 91    CMP #$91
870C: F0 0C    BEQ $871A
870E: C9 8D    CMP #$8D
8710: F0 08    BEQ $871A
8712: C9 95    CMP #$95
8714: F0 04    BEQ $871A
8716: C9 8F    CMP #$8F
8718: D0 03    BNE $871D
871A: 4C A7 61 JMP $61A7
871D: 38       SEC
871E: 20 A4 61 JSR $61A4
8721: 20 3A 66 JSR $663A
8724: C9 00    CMP #$00
8726: F0 19    BEQ $8741
8728: C9 C5    CMP #$C5
872A: F0 0F    BEQ $873B
872C: C9 3A    CMP #$3A
872E: D0 0B    BNE $873B
8730: 20 34 66 JSR $6634
8733: C9 C5    CMP #$C5
8735: F0 04    BEQ $873B
8737: 38       SEC
8738: 4C 02 77 JMP $7702
873B: 20 79 76 JSR $7679
873E: 20 63 76 JSR $7663
8741: 60       RTS
8742: 20 79 76 JSR $7679
8745: D0 03    BNE $874A
8747: 4C 63 76 JMP $7663
874A: 20 3A 66 JSR $663A
874D: B0 03    BCS $8752
874F: 4C BE 75 JMP $75BE
8752: 4C A4 61 JMP $61A4
8755: 20 C7 85 JSR $85C7
8758: 48       PHA
8759: C9 91    CMP #$91
875B: F0 07    BEQ $8764
875D: C9 8D    CMP #$8D
875F: F0 03    BEQ $8764
8761: 4C 26 76 JMP $7626
8764: C6 73    DEC $73
8766: D0 04    BNE $876C
8768: 68       PLA
8769: 4C A7 61 JMP $61A7
876C: 20 34 66 JSR $6634
876F: 20 78 77 JSR $7778
8772: C9 2C    CMP #$2C
8774: F0 EE    BEQ $8764
8776: 68       PLA
8777: 60       RTS
8778: A2 00    LDX #$00
877A: 86 40    STX $40
877C: 86 41    STX $41
877E: B0 F7    BCS $8777
8780: E9 2F    SBC #$2F
8782: 8D 00 B8 STA $B800
8785: A5 41    LDA $41
8787: 85 44    STA $44
8789: A5 41    LDA $41
878B: C9 03    CMP #$03
878D: D0 04    BNE $8793
878F: A5 40    LDA $40
8791: C9 E8    CMP #$E8
8793: B0 C8    BCS $875D
8795: A5 40    LDA $40
8797: 0A       ASL
8798: 26 44    ROL $44
879A: 0A       ASL
879B: 26 44    ROL $44
879D: 65 40    ADC $40
879F: 85 40    STA $40
87A1: A5 44    LDA $44
87A3: 65 41    ADC $41
87A5: 85 41    STA $41
87A7: 06 40    ASL $40
87A9: 26 41    ROL $41
87AB: A5 40    LDA $40
87AD: 6D 00 B8 ADC $B800
87B0: 85 40    STA $40
87B2: 90 02    BCC $87B6
87B4: E6 41    INC $41
87B6: 20 DB 6A JSR $6ADB
87B9: 4C 7E 77 JMP $777E
87BC: 20 D8 96 JSR $96D8
87BF: 85 5C    STA $5C
87C1: 84 5D    STY $5D
87C3: A9 D1    LDA #$D1
87C5: 20 F4 9C JSR $9CF4
87C8: AD 09 B8 LDA $B809
87CB: 48       PHA
87CC: AD 08 B8 LDA $B808
87CF: 48       PHA
87D0: 20 7A 9B JSR $9B7A
87D3: 68       PLA
87D4: 2A       ROL
87D5: 20 32 7D JSR $7D32
87D8: D0 18    BNE $87F2
87DA: 68       PLA
87DB: 10 12    BPL $87EF
87DD: 20 E3 A1 JSR $A1E3
87E0: 20 AC 98 JSR $98AC
87E3: A0 00    LDY #$00
87E5: A5 72    LDA $72
87E7: 91 5C    STA ($5C),Y
87E9: C8       INY
87EA: A5 73    LDA $73
87EC: 91 5C    STA ($5C),Y
87EE: 60       RTS
87EF: 4C 95 A1 JMP $A195
87F2: 68       PLA
87F3: A0 02    LDY #$02
87F5: B1 72    LDA ($72),Y
87F7: CD D0 B8 CMP $B8D0
87FA: 90 1A    BCC $8816
87FC: D0 08    BNE $8806
87FE: 88       DEY
87FF: B1 72    LDA ($72),Y
8801: CD CF B8 CMP $B8CF
8804: 90 10    BCC $8816
8806: A4 73    LDY $73
8808: CC CA B8 CPY $B8CA
880B: 90 09    BCC $8816
880D: D0 0E    BNE $881D
880F: A5 72    LDA $72
8811: CD C9 B8 CMP $B8C9
8814: B0 07    BCS $881D
8816: A5 72    LDA $72
8818: A4 73    LDY $73
881A: 4C 33 78 JMP $7833
881D: A0 00    LDY #$00
881F: B1 72    LDA ($72),Y
8821: 20 BE 7E JSR $7EBE
8824: A5 6C    LDA $6C
8826: A4 6D    LDY $6D
8828: 85 7D    STA $7D
882A: 84 7E    STY $7E
882C: 20 8A 84 JSR $848A
882F: A9 6F    LDA #$6F
8831: A0 00    LDY #$00
8833: 85 6C    STA $6C
8835: 84 6D    STY $6D
8837: 20 F0 84 JSR $84F0
883A: A0 00    LDY #$00
883C: B1 6C    LDA ($6C),Y
883E: 91 5C    STA ($5C),Y
8840: C8       INY
8841: B1 6C    LDA ($6C),Y
8843: 91 5C    STA ($5C),Y
8845: C8       INY
8846: B1 6C    LDA ($6C),Y
8848: 91 5C    STA ($5C),Y
884A: 60       RTS
884B: D0 03    BNE $8850
884D: 4C AD 78 JMP $78AD
8850: D0 03    BNE $8855
8852: 4C BA 78 JMP $78BA
8855: 48       PHA
8856: A9 00    LDA #$00
8858: 8D C6 B8 STA $B8C6
885B: 68       PLA
885C: C9 C0    CMP #$C0
885E: D0 03    BNE $8863
8860: 4C D6 78 JMP $78D6
8863: C9 C3    CMP #$C3
8865: 18       CLC
8866: D0 03    BNE $886B
8868: 4C D6 78 JMP $78D6
886B: C9 2C    CMP #$2C
886D: 18       CLC
886E: F0 4E    BEQ $88BE
8870: C9 3B    CMP #$3B
8872: F0 5C    BEQ $88D0
8874: 20 7A 9B JSR $9B7A
8877: 2C 08 B8 BIT $B808
887A: 30 06    BMI $8882
887C: 20 8E A4 JSR $A48E
887F: 20 D0 7E JSR $7ED0
8882: 20 97 79 JSR $7997
8885: 20 9C 6F JSR $6F9C
8888: 20 3A 66 JSR $663A
888B: F0 20    BEQ $88AD
888D: 08       PHP
888E: C9 2C    CMP #$2C
8890: F0 17    BEQ $88A9
8892: C9 3B    CMP #$3B
8894: F0 13    BEQ $88A9
8896: 28       PLP
8897: A5 5E    LDA $5E
8899: D0 02    BNE $889D
889B: C6 5F    DEC $5F
889D: C6 5E    DEC $5E
889F: A9 00    LDA #$00
88A1: 8D C6 B8 STA $B8C6
88A4: A2 01    LDX #$01
88A6: 4C 0C 79 JMP $790C
88A9: 28       PLP
88AA: 4C 50 78 JMP $7850
88AD: AD B4 03 LDA $03B4
88B0: F0 08    BEQ $88BA
88B2: 20 4A 6E JSR $6E4A
88B5: A9 00    LDA #$00
88B7: 8D B4 03 STA $03B4
88BA: 20 9A AD JSR $AD9A
88BD: 60       RTS
88BE: AD B4 03 LDA $03B4
88C1: F0 0D    BEQ $88D0
88C3: 20 4A 6E JSR $6E4A
88C6: A9 00    LDA #$00
88C8: 8D B4 03 STA $03B4
88CB: 20 3A 66 JSR $663A
88CE: D0 57    BNE $8927
88D0: 20 34 66 JSR $6634
88D3: 4C 50 78 JMP $7850
88D6: 08       PHP
88D7: E6 5E    INC $5E
88D9: D0 02    BNE $88DD
88DB: E6 5F    INC $5F
88DD: 20 C4 85 JSR $85C4
88E0: C9 29    CMP #$29
88E2: F0 03    BEQ $88E7
88E4: 4C FD 9C JMP $9CFD
88E7: 28       PLP
88E8: 90 22    BCC $890C
88EA: E0 15    CPX #$15
88EC: 90 03    BCC $88F1
88EE: 4C 99 99 JMP $9999
88F1: E0 00    CPX #$00
88F3: D0 03    BNE $88F8
88F5: 4C 99 99 JMP $9999
88F8: CA       DEX
88F9: 8A       TXA
88FA: EC B4 03 CPX $03B4
88FD: B0 09    BCS $8908
88FF: 69 14    ADC #$14
8901: 38       SEC
8902: ED B4 03 SBC $03B4
8905: AA       TAX
8906: D0 04    BNE $890C
8908: ED B4 03 SBC $03B4
890B: AA       TAX
890C: 8E 00 B8 STX $B800
890F: EE 00 B8 INC $B800
8912: CE 00 B8 DEC $B800
8915: F0 08    BEQ $891F
8917: A9 20    LDA #$20
8919: 20 1A 73 JSR $731A
891C: 4C 12 79 JMP $7912
891F: A9 00    LDA #$00
8921: 20 1A 73 JSR $731A
8924: 20 9C 6F JSR $6F9C
8927: 20 34 66 JSR $6634
892A: 4C 4B 78 JMP $784B
892D: 20 D0 7E JSR $7ED0
8930: 20 B6 84 JSR $84B6
8933: 8D 00 B8 STA $B800
8936: EE 00 B8 INC $B800
8939: A9 00    LDA #$00
893B: 8D 01 B8 STA $B801
893E: CE 00 B8 DEC $B800
8941: AE 00 B8 LDX $B800
8944: F0 0E    BEQ $8954
8946: AC 01 B8 LDY $B801
8949: B1 44    LDA ($44),Y
894B: 20 FF 72 JSR $72FF
894E: EE 01 B8 INC $B801
8951: 4C 3E 79 JMP $793E
8954: 60       RTS
8955: 20 B6 84 JSR $84B6
8958: 8D 00 B8 STA $B800
895B: EE 00 B8 INC $B800
895E: A9 00    LDA #$00
8960: 8D 01 B8 STA $B801
8963: CE 00 B8 DEC $B800
8966: AE 00 B8 LDX $B800
8969: F0 2B    BEQ $8996
896B: AC 01 B8 LDY $B801
896E: B1 44    LDA ($44),Y
8970: C9 1F    CMP #$1F
8972: D0 19    BNE $898D
8974: CE 00 B8 DEC $B800
8977: F0 1D    BEQ $8996
8979: C8       INY
897A: 8C 01 B8 STY $B801
897D: B1 44    LDA ($44),Y
897F: 20 FF 72 JSR $72FF
8982: CE 00 B8 DEC $B800
8985: F0 0F    BEQ $8996
8987: C8       INY
8988: 8C 01 B8 STY $B801
898B: B1 44    LDA ($44),Y
898D: 20 FF 72 JSR $72FF
8990: EE 01 B8 INC $B801
8993: 4C 63 79 JMP $7963
8996: 60       RTS
8997: 20 B6 84 JSR $84B6
899A: 8D 00 B8 STA $B800
899D: EE 00 B8 INC $B800
89A0: A9 00    LDA #$00
89A2: 8D 01 B8 STA $B801
89A5: CE 00 B8 DEC $B800
89A8: AE 00 B8 LDX $B800
89AB: F0 2B    BEQ $89D8
89AD: AC 01 B8 LDY $B801
89B0: B1 44    LDA ($44),Y
89B2: C9 1F    CMP #$1F
89B4: D0 19    BNE $89CF
89B6: CE 00 B8 DEC $B800
89B9: F0 1D    BEQ $89D8
89BB: C8       INY
89BC: 8C 01 B8 STY $B801
89BF: B1 44    LDA ($44),Y
89C1: 20 1A 73 JSR $731A
89C4: CE 00 B8 DEC $B800
89C7: F0 0F    BEQ $89D8
89C9: C8       INY
89CA: 8C 01 B8 STY $B801
89CD: B1 44    LDA ($44),Y
89CF: 20 1A 73 JSR $731A
89D2: EE 01 B8 INC $B801
89D5: 4C A5 79 JMP $79A5
89D8: A9 00    LDA #$00
89DA: 20 1A 73 JSR $731A
89DD: 60       RTS
89DE: A9 20    LDA #$20
89E0: 2C A9 3F BIT $3FA9
89E3: 4C E8 79 JMP $79E8
89E6: 29 7F    AND #$7F
89E8: 20 FF 72 JSR $72FF
89EB: 60       RTS
89EC: AD 0C B8 LDA $B80C
89EF: F0 16    BEQ $8A07
89F1: 30 04    BMI $89F7
89F3: A0 FF    LDY #$FF
89F5: D0 06    BNE $89FD
89F7: AD 18 B8 LDA $B818
89FA: AC 19 B8 LDY $B819
89FD: 8D 14 B8 STA $B814
8A00: 8C 15 B8 STY $B815
8A03: 4C FD 9C JMP $9CFD
8A06: 68       PLA
8A07: 2C 10 B8 BIT $B810
8A0A: 10 05    BPL $8A11
8A0C: A2 FE    LDX #$FE
8A0E: 4C 63 86 JMP $8663
8A11: A9 00    LDA #$00
8A13: 8D C6 B8 STA $B8C6
8A16: 8D C2 B8 STA $B8C2
8A19: 20 4A 6E JSR $6E4A
8A1C: 20 2C 72 JSR $722C
8A1F: A9 8E    LDA #$8E
8A21: A0 7C    LDY #$7C
8A23: 20 2D 79 JSR $792D
8A26: A9 00    LDA #$00
8A28: 8D 01 B8 STA $B801
8A2B: AD C3 B8 LDA $B8C3
8A2E: 8D C2 B8 STA $B8C2
8A31: 20 BE 6F JSR $6FBE
8A34: 20 2C 72 JSR $722C
8A37: 20 4A 6E JSR $6E4A
8A3A: A9 00    LDA #$00
8A3C: 8D B4 03 STA $03B4
8A3F: 20 9A AD JSR $AD9A
8A42: AD D3 B8 LDA $B8D3
8A45: AC D4 B8 LDY $B8D4
8A48: 85 5E    STA $5E
8A4A: 84 5F    STY $5F
8A4C: 60       RTS
8A4D: A0 00    LDY #$00
8A4F: B9 58 B8 LDA $B858,Y
8A52: F0 05    BEQ $8A59
8A54: C8       INY
8A55: C0 5E    CPY #$5E
8A57: 90 F6    BCC $8A4F
8A59: 60       RTS
8A5A: 8D C5 B8 STA $B8C5
8A5D: 20 36 72 JSR $7236
8A60: A9 00    LDA #$00
8A62: 8D C6 B8 STA $B8C6
8A65: AD C5 B8 LDA $B8C5
8A68: C9 23    CMP #$23
8A6A: D0 03    BNE $8A6F
8A6C: 4C 0C 8E JMP $8E0C
8A6F: C9 22    CMP #$22
8A71: D0 0E    BNE $8A81
8A73: 20 AB 9C JSR $9CAB
8A76: A9 3B    LDA #$3B
8A78: 20 F4 9C JSR $9CF4
8A7B: 20 55 79 JSR $7955
8A7E: 4C 84 7A JMP $7A84
8A81: 20 E1 79 JSR $79E1
8A84: 20 E5 7D JSR $7DE5
8A87: A9 00    LDA #$00
8A89: 8D 01 B8 STA $B801
8A8C: AD C3 B8 LDA $B8C3
8A8F: 8D C2 B8 STA $B8C2
8A92: 20 BE 6F JSR $6FBE
8A95: 20 9A AD JSR $AD9A
8A98: A5 5E    LDA $5E
8A9A: 48       PHA
8A9B: A5 5F    LDA $5F
8A9D: 48       PHA
8A9E: 20 D8 96 JSR $96D8
8AA1: 68       PLA
8AA2: 85 5F    STA $5F
8AA4: 68       PLA
8AA5: 85 5E    STA $5E
8AA7: 20 F1 7A JSR $7AF1
8AAA: 20 F4 6A JSR $6AF4
8AAD: A9 57    LDA #$57
8AAF: A0 B8    LDY #$B8
8AB1: 18       CLC
8AB2: 6D C1 B8 ADC $B8C1
8AB5: 90 01    BCC $8AB8
8AB7: C8       INY
8AB8: AA       TAX
8AB9: 86 6F    STX $6F
8ABB: 84 70    STY $70
8ABD: A9 3F    LDA #$3F
8ABF: A0 00    LDY #$00
8AC1: 91 6F    STA ($6F),Y
8AC3: A6 6F    LDX $6F
8AC5: A4 70    LDY $70
8AC7: AD 58 B8 LDA $B858
8ACA: C9 03    CMP #$03
8ACC: F0 03    BEQ $8AD1
8ACE: 4C 54 7B JMP $7B54
8AD1: 4C F6 74 JMP $74F6
8AD4: A2 3F    LDX #$3F
8AD6: 8E 27 B8 STX $B827
8AD9: 20 5B 71 JSR $715B
8ADC: 20 F1 7A JSR $7AF1
8ADF: 20 F4 6A JSR $6AF4
8AE2: A9 57    LDA #$57
8AE4: A0 B8    LDY #$B8
8AE6: 18       CLC
8AE7: 6D C1 B8 ADC $B8C1
8AEA: 90 01    BCC $8AED
8AEC: C8       INY
8AED: AA       TAX
8AEE: A9 00    LDA #$00
8AF0: 60       RTS
8AF1: AD 47 04 LDA $0447
8AF4: C9 02    CMP #$02
8AF6: D0 03    BNE $8AFB
8AF8: 20 F2 AC JSR $ACF2
8AFB: 2C 08 B8 BIT $B808
8AFE: 10 06    BPL $8B06
8B00: A9 00    LDA #$00
8B02: 8D 47 04 STA $0447
8B05: 60       RTS
8B06: A9 01    LDA #$01
8B08: 8D 47 04 STA $0447
8B0B: 60       RTS
8B0C: 20 D8 96 JSR $96D8
8B0F: 85 5C    STA $5C
8B11: 84 5D    STY $5D
8B13: 20 36 7B JSR $7B36
8B16: 84 FE    STY $FE
8B18: 20 F2 9C JSR $9CF2
8B1B: 20 D8 96 JSR $96D8
8B1E: 20 36 7B JSR $7B36
8B21: C4 FE    CPY $FE
8B23: F0 03    BEQ $8B28
8B25: 4C FD 9C JMP $9CFD
8B28: B1 58    LDA ($58),Y
8B2A: AA       TAX
8B2B: B1 5C    LDA ($5C),Y
8B2D: 91 58    STA ($58),Y
8B2F: 8A       TXA
8B30: 91 5C    STA ($5C),Y
8B32: 88       DEY
8B33: 10 F3    BPL $8B28
8B35: 60       RTS
8B36: AC 08 B8 LDY $B808
8B39: D0 0D    BNE $8B48
8B3B: AC 09 B8 LDY $B809
8B3E: 10 04    BPL $8B44
8B40: A0 01    LDY #$01
8B42: D0 06    BNE $8B4A
8B44: A0 04    LDY #$04
8B46: D0 02    BNE $8B4A
8B48: A0 02    LDY #$02
8B4A: 60       RTS
8B4B: AE D5 B8 LDX $B8D5
8B4E: AC D6 B8 LDY $B8D6
8B51: A9 98    LDA #$98
8B53: 2C A9 00 BIT $00A9
8B56: 8D 0C B8 STA $B80C
8B59: 86 56    STX $56
8B5B: 84 57    STY $57
8B5D: 20 D8 96 JSR $96D8
8B60: 85 5C    STA $5C
8B62: 84 5D    STY $5D
8B64: A5 5E    LDA $5E
8B66: A4 5F    LDY $5F
8B68: 8D 05 B8 STA $B805
8B6B: 8C 06 B8 STY $B806
8B6E: A6 56    LDX $56
8B70: A4 57    LDY $57
8B72: 86 5E    STX $5E
8B74: 84 5F    STY $5F
8B76: 20 3A 66 JSR $663A
8B79: D0 1F    BNE $8B9A
8B7B: 2C 0C B8 BIT $B80C
8B7E: 50 0E    BVC $8B8E
8B80: 20 19 67 JSR $6719
8B83: 29 7F    AND #$7F
8B85: 8D 58 B8 STA $B858
8B88: A2 57    LDX #$57
8B8A: A0 B8    LDY #$B8
8B8C: D0 08    BNE $8B96
8B8E: 10 03    BPL $8B93
8B90: 4C 1C 7C JMP $7C1C
8B93: 20 D4 7A JSR $7AD4
8B96: 86 5E    STX $5E
8B98: 84 5F    STY $5F
8B9A: 20 34 66 JSR $6634
8B9D: 2C 08 B8 BIT $B808
8BA0: 10 36    BPL $8BD8
8BA2: 2C 0C B8 BIT $B80C
8BA5: 50 0A    BVC $8BB1
8BA7: E8       INX
8BA8: 86 5E    STX $5E
8BAA: A9 00    LDA #$00
8BAC: 8D 00 B8 STA $B800
8BAF: F0 0E    BEQ $8BBF
8BB1: 8D 00 B8 STA $B800
8BB4: C9 22    CMP #$22
8BB6: F0 08    BEQ $8BC0
8BB8: A9 3A    LDA #$3A
8BBA: 8D 00 B8 STA $B800
8BBD: A9 2C    LDA #$2C
8BBF: 18       CLC
8BC0: 8D 01 B8 STA $B801
8BC3: A5 5E    LDA $5E
8BC5: A4 5F    LDY $5F
8BC7: 69 00    ADC #$00
8BC9: 90 01    BCC $8BCC
8BCB: C8       INY
8BCC: 20 D8 7E JSR $7ED8
8BCF: 20 02 86 JSR $8602
8BD2: 20 F3 77 JSR $77F3
8BD5: 4C E8 7B JMP $7BE8
8BD8: 48       PHA
8BD9: AD 58 B8 LDA $B858
8BDC: F0 36    BEQ $8C14
8BDE: 68       PLA
8BDF: 20 93 A3 JSR $A393
8BE2: AD 09 B8 LDA $B809
8BE5: 20 DB 77 JSR $77DB
8BE8: 20 3A 66 JSR $663A
8BEB: F0 07    BEQ $8BF4
8BED: C9 2C    CMP #$2C
8BEF: F0 03    BEQ $8BF4
8BF1: 4C EC 79 JMP $79EC
8BF4: A5 5E    LDA $5E
8BF6: A4 5F    LDY $5F
8BF8: 85 56    STA $56
8BFA: 84 57    STY $57
8BFC: AD 05 B8 LDA $B805
8BFF: AC 06 B8 LDY $B806
8C02: 85 5E    STA $5E
8C04: 84 5F    STY $5F
8C06: 20 3A 66 JSR $663A
8C09: D0 03    BNE $8C0E
8C0B: 4C 65 7C JMP $7C65
8C0E: 20 F2 9C JSR $9CF2
8C11: 4C 5D 7B JMP $7B5D
8C14: AD 0C B8 LDA $B80C
8C17: D0 C5    BNE $8BDE
8C19: 4C 06 7A JMP $7A06
8C1C: 20 76 76 JSR $7676
8C1F: C8       INY
8C20: AA       TAX
8C21: D0 35    BNE $8C58
8C23: A2 03    LDX #$03
8C25: C8       INY
8C26: B1 5E    LDA ($5E),Y
8C28: D0 21    BNE $8C4B
8C2A: 2C 4E B9 BIT $B94E
8C2D: 30 03    BMI $8C32
8C2F: 4C 3E 7D JMP $7D3E
8C32: 2C 5B B9 BIT $B95B
8C35: 10 03    BPL $8C3A
8C37: 4C 3E 7D JMP $7D3E
8C3A: 20 9B 66 JSR $669B
8C3D: 20 1B 69 JSR $691B
8C40: A9 00    LDA #$00
8C42: 85 5E    STA $5E
8C44: A9 22    LDA #$22
8C46: 85 5F    STA $5F
8C48: 4C 1C 7C JMP $7C1C
8C4B: C8       INY
8C4C: B1 5E    LDA ($5E),Y
8C4E: 8D 18 B8 STA $B818
8C51: C8       INY
8C52: B1 5E    LDA ($5E),Y
8C54: C8       INY
8C55: 8D 19 B8 STA $B819
8C58: B1 5E    LDA ($5E),Y
8C5A: AA       TAX
8C5B: 20 63 76 JSR $7663
8C5E: E0 83    CPX #$83
8C60: D0 BA    BNE $8C1C
8C62: 4C 9A 7B JMP $7B9A
8C65: A5 56    LDA $56
8C67: A4 57    LDY $57
8C69: AE 0C B8 LDX $B80C
8C6C: 10 03    BPL $8C71
8C6E: 4C C5 74 JMP $74C5
8C71: A0 00    LDY #$00
8C73: B1 56    LDA ($56),Y
8C75: F0 07    BEQ $8C7E
8C77: A9 7F    LDA #$7F
8C79: A0 7C    LDY #$7C
8C7B: 4C 2D 79 JMP $792D
8C7E: 60       RTS
8C7F: 3F       ??
8C80: 45 58    EOR $58
8C82: 54       ??
8C83: 52       ??
8C84: 41 20    EOR ($20,X)
8C86: 49 47    EOR #$47
8C88: 4E 4F 52 LSR $524F
8C8B: 45 44    EOR $44
8C8D: 00 3F 52 INT $523F
8C90: 45 45    EOR $45
8C92: 4E 54 45 LSR $4554
8C95: 52       ??
8C96: 00 D0 04 INT $04D0
8C99: A0 00    LDY #$00
8C9B: F0 03    BEQ $8CA0
8C9D: 20 D8 96 JSR $96D8
8CA0: 85 5C    STA $5C
8CA2: 84 5D    STY $5D
8CA4: 20 D8 66 JSR $66D8
8CA7: F0 07    BEQ $8CB0
8CA9: A2 00    LDX #$00
8CAB: D0 03    BNE $8CB0
8CAD: 4C 3E 7D JMP $7D3E
8CB0: 9A       TXS
8CB1: E8       INX
8CB2: E8       INX
8CB3: E8       INX
8CB4: E8       INX
8CB5: 8A       TXA
8CB6: E8       INX
8CB7: E8       INX
8CB8: E8       INX
8CB9: E8       INX
8CBA: E8       INX
8CBB: E8       INX
8CBC: 86 46    STX $46
8CBE: A0 01    LDY #$01
8CC0: 20 66 A1 JSR $A166
8CC3: BA       TSX
8CC4: BD 09 01 LDA $0109,X
8CC7: 85 74    STA $74
8CC9: A5 5C    LDA $5C
8CCB: A4 5D    LDY $5D
8CCD: 20 AD 9D JSR $9DAD
8CD0: 20 95 A1 JSR $A195
8CD3: A0 01    LDY #$01
8CD5: 20 3C A2 JSR $A23C
8CD8: BA       TSX
8CD9: 38       SEC
8CDA: FD 09 01 SBC $0109,X
8CDD: F0 3B    BEQ $8D1A
8CDF: BD 10 01 LDA $0110,X
8CE2: 8D 14 B8 STA $B814
8CE5: BD 0F 01 LDA $010F,X
8CE8: 8D 15 B8 STA $B815
8CEB: BD 12 01 LDA $0112,X
8CEE: 85 5E    STA $5E
8CF0: BD 11 01 LDA $0111,X
8CF3: 85 5F    STA $5F
8CF5: 2C 4E B9 BIT $B94E
8CF8: 10 1D    BPL $8D17
8CFA: BD 14 01 LDA $0114,X
8CFD: A8       TAY
8CFE: BD 13 01 LDA $0113,X
8D01: CC 55 B9 CPY $B955
8D04: D0 05    BNE $8D0B
8D06: CD 56 B9 CMP $B956
8D09: F0 0C    BEQ $8D17
8D0B: 8C 57 B9 STY $B957
8D0E: 8D 58 B9 STA $B958
8D11: 20 57 66 JSR $6657
8D14: 20 7C 68 JSR $687C
8D17: 4C F1 60 JMP $60F1
8D1A: 8A       TXA
8D1B: 69 13    ADC #$13
8D1D: AA       TAX
8D1E: 9A       TXS
8D1F: 20 3A 66 JSR $663A
8D22: C9 2C    CMP #$2C
8D24: D0 F1    BNE $8D17
8D26: 20 34 66 JSR $6634
8D29: 20 9D 7C JSR $7C9D
8D2C: 20 7A 9B JSR $9B7A
8D2F: 18       CLC
8D30: 24 38    BIT $38
8D32: 2C 08 B8 BIT $B808
8D35: 30 03    BMI $8D3A
8D37: B0 03    BCS $8D3C
8D39: 60       RTS
8D3A: B0 FD    BCS $8D39
8D3C: A2 0C    LDX #$0C
8D3E: 4C 9F 67 JMP $679F
8D41: A5 77    LDA $77
8D43: 05 6F    ORA $6F
8D45: D0 0B    BNE $8D52
8D47: A5 77    LDA $77
8D49: F0 04    BEQ $8D4F
8D4B: A5 6F    LDA $6F
8D4D: D0 03    BNE $8D52
8D4F: A0 00    LDY #$00
8D51: 2C A0 01 BIT $01A0
8D54: 4C E0 7D JMP $7DE0
8D57: 20 32 7D JSR $7D32
8D5A: B0 13    BCS $8D6F
8D5C: A5 7C    LDA $7C
8D5E: 09 7F    ORA #$7F
8D60: 25 78    AND $78
8D62: 85 78    STA $78
8D64: A9 77    LDA #$77
8D66: A0 00    LDY #$00
8D68: 20 3A A2 JSR $A23A
8D6B: AA       TAX
8D6C: 4C A4 7D JMP $7DA4
8D6F: A9 00    LDA #$00
8D71: 8D 08 B8 STA $B808
8D74: CE 03 B8 DEC $B803
8D77: 20 B6 84 JSR $84B6
8D7A: 85 6F    STA $6F
8D7C: 86 70    STX $70
8D7E: 84 71    STY $71
8D80: A5 7A    LDA $7A
8D82: A4 7B    LDY $7B
8D84: 20 BA 84 JSR $84BA
8D87: 86 7A    STX $7A
8D89: 84 7B    STY $7B
8D8B: AA       TAX
8D8C: 38       SEC
8D8D: E5 6F    SBC $6F
8D8F: F0 08    BEQ $8D99
8D91: A9 01    LDA #$01
8D93: 90 04    BCC $8D99
8D95: A6 6F    LDX $6F
8D97: A9 FF    LDA #$FF
8D99: 85 74    STA $74
8D9B: A0 FF    LDY #$FF
8D9D: E8       INX
8D9E: C8       INY
8D9F: CA       DEX
8DA0: D0 07    BNE $8DA9
8DA2: A6 74    LDX $74
8DA4: 30 0F    BMI $8DB5
8DA6: 18       CLC
8DA7: 90 0C    BCC $8DB5
8DA9: B1 70    LDA ($70),Y
8DAB: D1 7A    CMP ($7A),Y
8DAD: F0 EF    BEQ $8D9E
8DAF: A2 FF    LDX #$FF
8DB1: B0 02    BCS $8DB5
8DB3: A2 01    LDX #$01
8DB5: E8       INX
8DB6: 8A       TXA
8DB7: 2A       ROL
8DB8: 2D 0D B8 AND $B80D
8DBB: F0 02    BEQ $8DBF
8DBD: A9 01    LDA #$01
8DBF: 4C 05 A2 JMP $A205
8DC2: 20 F2 9C JSR $9CF2
8DC5: AA       TAX
8DC6: 20 DB 96 JSR $96DB
8DC9: 20 3A 66 JSR $663A
8DCC: D0 F4    BNE $8DC2
8DCE: 60       RTS
8DCF: A2 00    LDX #$00
8DD1: 8E 08 B8 STX $B808
8DD4: 85 70    STA $70
8DD6: 84 71    STY $71
8DD8: A2 90    LDX #$90
8DDA: 4C 0D A2 JMP $A20D
8DDD: AC B4 03 LDY $03B4
8DE0: A9 00    LDA #$00
8DE2: 38       SEC
8DE3: F0 EA    BEQ $8DCF
8DE5: AE 15 B8 LDX $B815
8DE8: E8       INX
8DE9: D0 E3    BNE $8DCE
8DEB: A2 0B    LDX #$0B
8DED: 2C A2 10 BIT $10A2
8DF0: 4C 9F 67 JMP $679F
8DF3: AE 15 B8 LDX $B815
8DF6: E8       INX
8DF7: D0 F2    BNE $8DEB
8DF9: 60       RTS
8DFA: 20 29 7E JSR $7E29
8DFD: 20 E5 7D JSR $7DE5
8E00: 20 EF 9C JSR $9CEF
8E03: A9 80    LDA #$80
8E05: 8D 0B B8 STA $B80B
8E08: 20 D8 96 JSR $96D8
8E0B: 20 2F 7D JSR $7D2F
8E0E: 20 EC 9C JSR $9CEC
8E11: A9 D1    LDA #$D1
8E13: 20 F4 9C JSR $9CF4
8E16: 48       PHA
8E17: A5 59    LDA $59
8E19: 48       PHA
8E1A: A5 58    LDA $58
8E1C: 48       PHA
8E1D: A5 5F    LDA $5F
8E1F: 48       PHA
8E20: A5 5E    LDA $5E
8E22: 48       PHA
8E23: 20 60 76 JSR $7660
8E26: 4C 98 7E JMP $7E98
8E29: A9 C2    LDA #$C2
8E2B: 20 F4 9C JSR $9CF4
8E2E: 09 80    ORA #$80
8E30: 8D 0B B8 STA $B80B
8E33: 20 DE 96 JSR $96DE
8E36: 85 6A    STA $6A
8E38: 84 6B    STY $6B
8E3A: 4C 2F 7D JMP $7D2F
8E3D: 20 29 7E JSR $7E29
8E40: A5 6A    LDA $6A
8E42: 48       PHA
8E43: A5 6B    LDA $6B
8E45: 48       PHA
8E46: 20 E6 9C JSR $9CE6
8E49: 20 2F 7D JSR $7D2F
8E4C: 68       PLA
8E4D: 85 6B    STA $6B
8E4F: 68       PLA
8E50: 85 6A    STA $6A
8E52: A0 02    LDY #$02
8E54: B1 6A    LDA ($6A),Y
8E56: 85 58    STA $58
8E58: AA       TAX
8E59: C8       INY
8E5A: B1 6A    LDA ($6A),Y
8E5C: F0 90    BEQ $8DEE
8E5E: 85 59    STA $59
8E60: C8       INY
8E61: B1 58    LDA ($58),Y
8E63: 48       PHA
8E64: 88       DEY
8E65: 10 FA    BPL $8E61
8E67: A4 59    LDY $59
8E69: 20 99 A1 JSR $A199
8E6C: A5 5E    LDA $5E
8E6E: 48       PHA
8E6F: A5 5F    LDA $5F
8E71: 48       PHA
8E72: B1 6A    LDA ($6A),Y
8E74: 85 5E    STA $5E
8E76: C8       INY
8E77: B1 6A    LDA ($6A),Y
8E79: 85 5F    STA $5F
8E7B: A5 58    LDA $58
8E7D: 48       PHA
8E7E: A5 59    LDA $59
8E80: 48       PHA
8E81: 20 2C 7D JSR $7D2C
8E84: 68       PLA
8E85: 85 6B    STA $6B
8E87: 68       PLA
8E88: 85 6A    STA $6A
8E8A: 20 3A 66 JSR $663A
8E8D: F0 03    BEQ $8E92
8E8F: 4C FD 9C JMP $9CFD
8E92: 68       PLA
8E93: 85 5F    STA $5F
8E95: 68       PLA
8E96: 85 5E    STA $5E
8E98: A0 00    LDY #$00
8E9A: 68       PLA
8E9B: 91 6A    STA ($6A),Y
8E9D: 68       PLA
8E9E: C8       INY
8E9F: 91 6A    STA ($6A),Y
8EA1: 68       PLA
8EA2: C8       INY
8EA3: 91 6A    STA ($6A),Y
8EA5: 68       PLA
8EA6: C8       INY
8EA7: 91 6A    STA ($6A),Y
8EA9: 68       PLA
8EAA: C8       INY
8EAB: 91 6A    STA ($6A),Y
8EAD: 60       RTS
8EAE: 20 2F 7D JSR $7D2F
8EB1: 20 8E A4 JSR $A48E
8EB4: 68       PLA
8EB5: 68       PLA
8EB6: A9 99    LDA #$99
8EB8: A0 B9    LDY #$B9
8EBA: 20 D0 7E JSR $7ED0
8EBD: 60       RTS
8EBE: A6 72    LDX $72
8EC0: A4 73    LDY $73
8EC2: 86 6C    STX $6C
8EC4: 84 6D    STY $6D
8EC6: 20 38 7F JSR $7F38
8EC9: 86 70    STX $70
8ECB: 84 71    STY $71
8ECD: 85 6F    STA $6F
8ECF: 60       RTS
8ED0: A2 22    LDX #$22
8ED2: 8E 00 B8 STX $B800
8ED5: 8E 01 B8 STX $B801
8ED8: 85 7D    STA $7D
8EDA: 84 7E    STY $7E
8EDC: 85 70    STA $70
8EDE: 84 71    STY $71
8EE0: A0 FF    LDY #$FF
8EE2: C8       INY
8EE3: B1 7D    LDA ($7D),Y
8EE5: F0 0E    BEQ $8EF5
8EE7: CD 00 B8 CMP $B800
8EEA: F0 05    BEQ $8EF1
8EEC: CD 01 B8 CMP $B801
8EEF: D0 F1    BNE $8EE2
8EF1: C9 22    CMP #$22
8EF3: F0 01    BEQ $8EF6
8EF5: 18       CLC
8EF6: 84 6F    STY $6F
8EF8: 98       TYA
8EF9: 65 7D    ADC $7D
8EFB: 85 52    STA $52
8EFD: A6 7E    LDX $7E
8EFF: 90 01    BCC $8F02
8F01: E8       INX
8F02: 86 53    STX $53
8F04: 98       TYA
8F05: 20 BE 7E JSR $7EBE
8F08: A6 7D    LDX $7D
8F0A: A4 7E    LDY $7E
8F0C: 20 98 84 JSR $8498
8F0F: A6 42    LDX $42
8F11: E0 52    CPX #$52
8F13: D0 05    BNE $8F1A
8F15: A2 0E    LDX #$0E
8F17: 4C 9F 67 JMP $679F
8F1A: A5 6F    LDA $6F
8F1C: 95 00    STA $00,X
8F1E: A5 70    LDA $70
8F20: 95 01    STA $01,X
8F22: A5 71    LDA $71
8F24: 95 02    STA $02,X
8F26: A0 00    LDY #$00
8F28: 86 72    STX $72
8F2A: 84 73    STY $73
8F2C: 88       DEY
8F2D: 8C 08 B8 STY $B808
8F30: 86 43    STX $43
8F32: E8       INX
8F33: E8       INX
8F34: E8       INX
8F35: 86 42    STX $42
8F37: 60       RTS
8F38: 4E 0A B8 LSR $B80A
8F3B: 48       PHA
8F3C: 49 FF    EOR #$FF
8F3E: 38       SEC
8F3F: 6D CF B8 ADC $B8CF
8F42: AC D0 B8 LDY $B8D0
8F45: B0 01    BCS $8F48
8F47: 88       DEY
8F48: CC CC B8 CPY $B8CC
8F4B: 90 14    BCC $8F61
8F4D: D0 05    BNE $8F54
8F4F: CD CB B8 CMP $B8CB
8F52: 90 0D    BCC $8F61
8F54: 8D CF B8 STA $B8CF
8F57: 8C D0 B8 STY $B8D0
8F5A: 85 FE    STA $FE
8F5C: 84 FF    STY $FF
8F5E: AA       TAX
8F5F: 68       PLA
8F60: 60       RTS
8F61: A2 06    LDX #$06
8F63: AD 0A B8 LDA $B80A
8F66: 10 03    BPL $8F6B
8F68: 4C 9F 67 JMP $679F
8F6B: 20 76 7F JSR $7F76
8F6E: A9 80    LDA #$80
8F70: 8D 0A B8 STA $B80A
8F73: 68       PLA
8F74: D0 C5    BNE $8F3B
8F76: AE D1 B8 LDX $B8D1
8F79: AD D2 B8 LDA $B8D2
8F7C: 8E CF B8 STX $B8CF
8F7F: 8D D0 B8 STA $B8D0
8F82: A0 00    LDY #$00
8F84: 84 6B    STY $6B
8F86: AD CB B8 LDA $B8CB
8F89: AE CC B8 LDX $B8CC
8F8C: 85 68    STA $68
8F8E: 86 69    STX $69
8F90: A9 49    LDA #$49
8F92: A2 00    LDX #$00
8F94: 85 44    STA $44
8F96: 86 45    STX $45
8F98: C5 42    CMP $42
8F9A: F0 58    BEQ $8FF4
8F9C: A9 00    LDA #$00
8F9E: 8D 04 B8 STA $B804
8FA1: 20 88 80 JSR $8088
8FA4: F0 F2    BEQ $8F98
8FA6: A9 FF    LDA #$FF
8FA8: 8D 00 B8 STA $B800
8FAB: EE 00 B8 INC $B800
8FAE: AD 00 B8 LDA $B800
8FB1: C9 03    CMP #$03
8FB3: F0 3F    BEQ $8FF4
8FB5: 0A       ASL
8FB6: 6D 00 B8 ADC $B800
8FB9: A8       TAY
8FBA: B9 01 B9 LDA $B901,Y
8FBD: F0 EC    BEQ $8FAB
8FBF: C8       INY
8FC0: BE 01 B9 LDX $B901,Y
8FC3: 86 44    STX $44
8FC5: B9 02 B9 LDA $B902,Y
8FC8: 85 45    STA $45
8FCA: CD D0 B8 CMP $B8D0
8FCD: 90 07    BCC $8FD6
8FCF: D0 DA    BNE $8FAB
8FD1: EC CF B8 CPX $B8CF
8FD4: B0 D5    BCS $8FAB
8FD6: C5 69    CMP $69
8FD8: 90 D1    BCC $8FAB
8FDA: D0 04    BNE $8FE0
8FDC: E4 68    CPX $68
8FDE: 90 CB    BCC $8FAB
8FE0: 86 68    STX $68
8FE2: 85 69    STA $69
8FE4: A5 44    LDA $44
8FE6: A6 45    LDX $45
8FE8: 85 6A    STA $6A
8FEA: 86 6B    STX $6B
8FEC: A9 00    LDA #$00
8FEE: 8D 5F B9 STA $B95F
8FF1: 4C AB 7F JMP $7FAB
8FF4: AD C9 B8 LDA $B8C9
8FF7: AE CA B8 LDX $B8CA
8FFA: 85 44    STA $44
8FFC: 86 45    STX $45
8FFE: EC CE B8 CPX $B8CE
9001: D0 05    BNE $9008
9003: CD CD B8 CMP $B8CD
9006: F0 05    BEQ $900D
9008: 20 75 80 JSR $8075
900B: F0 F1    BEQ $8FFE
900D: 85 61    STA $61
900F: 86 62    STX $62
9011: A9 00    LDA #$00
9013: 8D 04 B8 STA $B804
9016: A5 61    LDA $61
9018: A6 62    LDX $62
901A: EC CC B8 CPX $B8CC
901D: D0 08    BNE $9027
901F: CD CB B8 CMP $B8CB
9022: D0 03    BNE $9027
9024: 4C E6 80 JMP $80E6
9027: 85 44    STA $44
9029: 86 45    STX $45
902B: A0 00    LDY #$00
902D: B1 44    LDA ($44),Y
902F: AA       TAX
9030: 29 0F    AND #$0F
9032: A8       TAY
9033: C8       INY
9034: C8       INY
9035: B1 44    LDA ($44),Y
9037: 65 61    ADC $61
9039: 85 61    STA $61
903B: C8       INY
903C: B1 44    LDA ($44),Y
903E: 65 62    ADC $62
9040: 85 62    STA $62
9042: 8A       TXA
9043: 0A       ASL
9044: 10 D0    BPL $9016
9046: B0 CE    BCS $9016
9048: C8       INY
9049: B1 44    LDA ($44),Y
904B: A0 00    LDY #$00
904D: 0A       ASL
904E: 8D 60 B9 STA $B960
9051: 8A       TXA
9052: 29 0F    AND #$0F
9054: 69 05    ADC #$05
9056: 6D 60 B9 ADC $B960
9059: 65 44    ADC $44
905B: 85 44    STA $44
905D: 90 02    BCC $9061
905F: E6 45    INC $45
9061: A6 45    LDX $45
9063: E4 62    CPX $62
9065: D0 04    BNE $906B
9067: C5 61    CMP $61
9069: F0 AF    BEQ $901A
906B: A9 00    LDA #$00
906D: 8D 04 B8 STA $B804
9070: 20 88 80 JSR $8088
9073: F0 EE    BEQ $9063
9075: A0 00    LDY #$00
9077: B1 44    LDA ($44),Y
9079: 29 0F    AND #$0F
907B: AA       TAX
907C: E8       INX
907D: E8       INX
907E: 8E 04 B8 STX $B804
9081: B1 44    LDA ($44),Y
9083: 0A       ASL
9084: 10 4D    BPL $90D3
9086: B0 43    BCS $90CB
9088: AC 04 B8 LDY $B804
908B: B1 44    LDA ($44),Y
908D: F0 34    BEQ $90C3
908F: C8       INY
9090: B1 44    LDA ($44),Y
9092: AA       TAX
9093: C8       INY
9094: B1 44    LDA ($44),Y
9096: CD D0 B8 CMP $B8D0
9099: 90 07    BCC $90A2
909B: D0 26    BNE $90C3
909D: EC CF B8 CPX $B8CF
90A0: B0 21    BCS $90C3
90A2: C5 69    CMP $69
90A4: 90 1D    BCC $90C3
90A6: D0 04    BNE $90AC
90A8: E4 68    CPX $68
90AA: 90 17    BCC $90C3
90AC: 20 31 81 JSR $8131
90AF: 90 12    BCC $90C3
90B1: 86 68    STX $68
90B3: 85 69    STA $69
90B5: A5 44    LDA $44
90B7: A6 45    LDX $45
90B9: 85 6A    STA $6A
90BB: 86 6B    STX $6B
90BD: AD 04 B8 LDA $B804
90C0: 8D 5F B9 STA $B95F
90C3: AD 04 B8 LDA $B804
90C6: 18       CLC
90C7: 69 03    ADC #$03
90C9: 90 0E    BCC $90D9
90CB: AD 04 B8 LDA $B804
90CE: 18       CLC
90CF: 69 02    ADC #$02
90D1: 90 06    BCC $90D9
90D3: AD 04 B8 LDA $B804
90D6: 18       CLC
90D7: 69 05    ADC #$05
90D9: 65 44    ADC $44
90DB: 85 44    STA $44
90DD: 90 02    BCC $90E1
90DF: E6 45    INC $45
90E1: A6 45    LDX $45
90E3: A0 00    LDY #$00
90E5: 60       RTS
90E6: A6 6B    LDX $6B
90E8: F0 F7    BEQ $90E1
90EA: AC 5F B9 LDY $B95F
90ED: 18       CLC
90EE: B1 6A    LDA ($6A),Y
90F0: 65 68    ADC $68
90F2: 85 63    STA $63
90F4: A5 69    LDA $69
90F6: 69 00    ADC #$00
90F8: 85 64    STA $64
90FA: AD CF B8 LDA $B8CF
90FD: AE D0 B8 LDX $B8D0
9100: 85 61    STA $61
9102: 86 62    STX $62
9104: 20 23 67 JSR $6723
9107: A5 61    LDA $61
9109: A4 62    LDY $62
910B: 8D 69 B9 STA $B969
910E: 8C 6A B9 STY $B96A
9111: 20 7D 81 JSR $817D
9114: AD 69 B9 LDA $B969
9117: AC 6A B9 LDY $B96A
911A: 85 61    STA $61
911C: 84 62    STY $62
911E: AC 5F B9 LDY $B95F
9121: C8       INY
9122: A5 61    LDA $61
9124: 91 6A    STA ($6A),Y
9126: AA       TAX
9127: E6 62    INC $62
9129: A5 62    LDA $62
912B: C8       INY
912C: 91 6A    STA ($6A),Y
912E: 4C 7C 7F JMP $7F7C
9131: 85 6C    STA $6C
9133: 86 6D    STX $6D
9135: A9 FF    LDA #$FF
9137: 8D 00 B8 STA $B800
913A: EE 00 B8 INC $B800
913D: AD 00 B8 LDA $B800
9140: C9 03    CMP #$03
9142: D0 02    BNE $9146
9144: 18       CLC
9145: 60       RTS
9146: 0A       ASL
9147: 6D 00 B8 ADC $B800
914A: A8       TAY
914B: B9 01 B9 LDA $B901,Y
914E: F0 EA    BEQ $913A
9150: 8D 01 B8 STA $B801
9153: C8       INY
9154: A5 6C    LDA $6C
9156: D9 01 B9 CMP $B901,Y
9159: 90 DF    BCC $913A
915B: D0 08    BNE $9165
915D: A5 6D    LDA $6D
915F: AA       TAX
9160: D9 02 B9 CMP $B902,Y
9163: 90 D5    BCC $913A
9165: 18       CLC
9166: 6D 01 B8 ADC $B801
9169: 90 01    BCC $916C
916B: E8       INX
916C: C5 6C    CMP $6C
916E: 90 CA    BCC $913A
9170: D0 06    BNE $9178
9172: E4 6D    CPX $6D
9174: 90 C4    BCC $913A
9176: F0 C2    BEQ $913A
9178: A5 6C    LDA $6C
917A: A6 6D    LDX $6D
917C: 60       RTS
917D: A6 6B    LDX $6B
917F: E0 B9    CPX #$B9
9181: 90 F9    BCC $917C
9183: D0 06    BNE $918B
9185: A5 6A    LDA $6A
9187: C9 01    CMP #$01
9189: 90 F1    BCC $917C
918B: E0 B9    CPX #$B9
918D: B0 ED    BCS $917C
918F: C9 0A    CMP #$0A
9191: B0 E9    BCS $917C
9193: AD C9 B8 LDA $B8C9
9196: AE CA B8 LDX $B8CA
9199: 85 44    STA $44
919B: 86 45    STX $45
919D: 20 31 82 JSR $8231
91A0: 90 08    BCC $91AA
91A2: 20 88 82 JSR $8288
91A5: 20 69 82 JSR $8269
91A8: B0 F3    BCS $919D
91AA: 85 61    STA $61
91AC: 86 62    STX $62
91AE: A9 00    LDA #$00
91B0: 8D 04 B8 STA $B804
91B3: 20 BF 81 JSR $81BF
91B6: 90 06    BCC $91BE
91B8: 20 11 82 JSR $8211
91BB: 4C B3 81 JMP $81B3
91BE: 60       RTS
91BF: A5 61    LDA $61
91C1: A6 62    LDX $62
91C3: EC CC B8 CPX $B8CC
91C6: 90 0B    BCC $91D3
91C8: F0 02    BEQ $91CC
91CA: 18       CLC
91CB: 60       RTS
91CC: CD CB B8 CMP $B8CB
91CF: 90 02    BCC $91D3
91D1: 18       CLC
91D2: 60       RTS
91D3: 85 44    STA $44
91D5: 86 45    STX $45
91D7: A0 00    LDY #$00
91D9: B1 44    LDA ($44),Y
91DB: AA       TAX
91DC: 29 0F    AND #$0F
91DE: A8       TAY
91DF: C8       INY
91E0: C8       INY
91E1: B1 44    LDA ($44),Y
91E3: 65 61    ADC $61
91E5: 85 61    STA $61
91E7: C8       INY
91E8: B1 44    LDA ($44),Y
91EA: 65 62    ADC $62
91EC: 85 62    STA $62
91EE: 8A       TXA
91EF: 0A       ASL
91F0: 10 CD    BPL $91BF
91F2: B0 CB    BCS $91BF
91F4: C8       INY
91F5: B1 44    LDA ($44),Y
91F7: A0 00    LDY #$00
91F9: 0A       ASL
91FA: 8D 60 B9 STA $B960
91FD: 8A       TXA
91FE: 29 0F    AND #$0F
9200: 69 05    ADC #$05
9202: 6D 60 B9 ADC $B960
9205: 65 44    ADC $44
9207: 85 44    STA $44
9209: 90 02    BCC $920D
920B: E6 45    INC $45
920D: A6 45    LDX $45
920F: 38       SEC
9210: 60       RTS
9211: A0 00    LDY #$00
9213: E4 62    CPX $62
9215: D0 05    BNE $921C
9217: C5 61    CMP $61
9219: D0 01    BNE $921C
921B: 60       RTS
921C: B1 44    LDA ($44),Y
921E: F0 03    BEQ $9223
9220: 20 88 82 JSR $8288
9223: A9 03    LDA #$03
9225: 65 44    ADC $44
9227: 85 44    STA $44
9229: 90 E8    BCC $9213
922B: E6 45    INC $45
922D: A6 45    LDX $45
922F: D0 E2    BNE $9213
9231: 20 78 82 JSR $8278
9234: B0 01    BCS $9237
9236: 60       RTS
9237: A0 00    LDY #$00
9239: B1 44    LDA ($44),Y
923B: 29 0F    AND #$0F
923D: AA       TAX
923E: E8       INX
923F: E8       INX
9240: 8E 04 B8 STX $B804
9243: A2 05    LDX #$05
9245: B1 44    LDA ($44),Y
9247: 0A       ASL
9248: 10 0D    BPL $9257
924A: A2 02    LDX #$02
924C: B0 09    BCS $9257
924E: AC 04 B8 LDY $B804
9251: A5 44    LDA $44
9253: A6 45    LDX $45
9255: 38       SEC
9256: 60       RTS
9257: 18       CLC
9258: 8A       TXA
9259: 6D 04 B8 ADC $B804
925C: 65 44    ADC $44
925E: 85 44    STA $44
9260: 90 02    BCC $9264
9262: E6 45    INC $45
9264: A6 45    LDX $45
9266: 4C 31 82 JMP $8231
9269: 18       CLC
926A: 8A       TXA
926B: 6D 04 B8 ADC $B804
926E: 65 44    ADC $44
9270: 85 44    STA $44
9272: 90 02    BCC $9276
9274: E6 45    INC $45
9276: A6 45    LDX $45
9278: EC CE B8 CPX $B8CE
927B: F0 02    BEQ $927F
927D: 38       SEC
927E: 60       RTS
927F: CD CD B8 CMP $B8CD
9282: F0 02    BEQ $9286
9284: 38       SEC
9285: 60       RTS
9286: 18       CLC
9287: 60       RTS
9288: B1 44    LDA ($44),Y
928A: D0 03    BNE $928F
928C: A2 03    LDX #$03
928E: 60       RTS
928F: C8       INY
9290: B1 44    LDA ($44),Y
9292: 85 6C    STA $6C
9294: C8       INY
9295: B1 44    LDA ($44),Y
9297: 85 6D    STA $6D
9299: A0 00    LDY #$00
929B: B1 6A    LDA ($6A),Y
929D: 8D 00 B8 STA $B800
92A0: C8       INY
92A1: C8       INY
92A2: B1 6A    LDA ($6A),Y
92A4: AA       TAX
92A5: 88       DEY
92A6: B1 6A    LDA ($6A),Y
92A8: E4 6D    CPX $6D
92AA: 90 0E    BCC $92BA
92AC: F0 03    BEQ $92B1
92AE: A2 03    LDX #$03
92B0: 60       RTS
92B1: C5 6C    CMP $6C
92B3: 90 05    BCC $92BA
92B5: F0 03    BEQ $92BA
92B7: A2 03    LDX #$03
92B9: 60       RTS
92BA: 18       CLC
92BB: 6D 00 B8 ADC $B800
92BE: 90 01    BCC $92C1
92C0: E8       INX
92C1: E4 6D    CPX $6D
92C3: F0 05    BEQ $92CA
92C5: B0 09    BCS $92D0
92C7: A2 03    LDX #$03
92C9: 60       RTS
92CA: C5 6C    CMP $6C
92CC: 90 F9    BCC $92C7
92CE: F0 F7    BEQ $92C7
92D0: ED 00 B8 SBC $B800
92D3: B0 01    BCS $92D6
92D5: CA       DEX
92D6: 85 63    STA $63
92D8: 86 64    STX $64
92DA: 38       SEC
92DB: AD 69 B9 LDA $B969
92DE: E5 63    SBC $63
92E0: 85 63    STA $63
92E2: AD 6A B9 LDA $B96A
92E5: E5 64    SBC $64
92E7: 85 64    STA $64
92E9: AC 04 B8 LDY $B804
92EC: C8       INY
92ED: 18       CLC
92EE: A5 6C    LDA $6C
92F0: 65 63    ADC $63
92F2: 91 44    STA ($44),Y
92F4: A5 6D    LDA $6D
92F6: 65 64    ADC $64
92F8: C8       INY
92F9: 91 44    STA ($44),Y
92FB: A2 03    LDX #$03
92FD: 60       RTS
92FE: AD C9 B8 LDA $B8C9
9301: AE CA B8 LDX $B8CA
9304: 85 44    STA $44
9306: 86 45    STX $45
9308: 20 31 82 JSR $8231
930B: 90 08    BCC $9315
930D: 20 32 83 JSR $8332
9310: 20 69 82 JSR $8269
9313: B0 F3    BCS $9308
9315: 85 61    STA $61
9317: 86 62    STX $62
9319: A9 00    LDA #$00
931B: 8D 04 B8 STA $B804
931E: A5 61    LDA $61
9320: A6 62    LDX $62
9322: 85 65    STA $65
9324: 86 66    STX $66
9326: 20 BF 81 JSR $81BF
9329: 90 06    BCC $9331
932B: 20 C7 83 JSR $83C7
932E: 4C 1E 83 JMP $831E
9331: 60       RTS
9332: B1 44    LDA ($44),Y
9334: F0 03    BEQ $9339
9336: A2 03    LDX #$03
9338: 60       RTS
9339: 20 44 83 JSR $8344
933C: A2 00    LDX #$00
933E: A9 00    LDA #$00
9340: 8D 04 B8 STA $B804
9343: 60       RTS
9344: A5 44    LDA $44
9346: A4 45    LDY $45
9348: 85 65    STA $65
934A: 84 66    STY $66
934C: 85 60    STA $60
934E: 84 61    STY $61
9350: 18       CLC
9351: AD 04 B8 LDA $B804
9354: 69 03    ADC #$03
9356: 8D 04 B8 STA $B804
9359: 65 44    ADC $44
935B: 85 60    STA $60
935D: 90 02    BCC $9361
935F: E6 61    INC $61
9361: AD CC B8 LDA $B8CC
9364: C5 61    CMP $61
9366: D0 05    BNE $936D
9368: AD CB B8 LDA $B8CB
936B: C5 60    CMP $60
936D: F0 3E    BEQ $93AD
936F: 38       SEC
9370: AD CB B8 LDA $B8CB
9373: E5 60    SBC $60
9375: A8       TAY
9376: AD CC B8 LDA $B8CC
9379: E5 61    SBC $61
937B: AA       TAX
937C: 98       TYA
937D: F0 20    BEQ $939F
937F: 49 FF    EOR #$FF
9381: A8       TAY
9382: C8       INY
9383: 8C 00 B8 STY $B800
9386: 38       SEC
9387: A5 65    LDA $65
9389: ED 00 B8 SBC $B800
938C: 85 65    STA $65
938E: B0 03    BCS $9393
9390: C6 66    DEC $66
9392: 38       SEC
9393: A5 60    LDA $60
9395: ED 00 B8 SBC $B800
9398: 85 60    STA $60
939A: B0 03    BCS $939F
939C: C6 61    DEC $61
939E: E8       INX
939F: B1 60    LDA ($60),Y
93A1: 91 65    STA ($65),Y
93A3: C8       INY
93A4: D0 F9    BNE $939F
93A6: E6 61    INC $61
93A8: E6 66    INC $66
93AA: CA       DEX
93AB: D0 F2    BNE $939F
93AD: A5 65    LDA $65
93AF: A4 66    LDY $66
93B1: 8D CB B8 STA $B8CB
93B4: 8C CC B8 STY $B8CC
93B7: 38       SEC
93B8: AD CD B8 LDA $B8CD
93BB: ED 04 B8 SBC $B804
93BE: 8D CD B8 STA $B8CD
93C1: B0 03    BCS $93C6
93C3: CE CE B8 DEC $B8CE
93C6: 60       RTS
93C7: A0 00    LDY #$00
93C9: E4 62    CPX $62
93CB: D0 10    BNE $93DD
93CD: C5 61    CMP $61
93CF: D0 0C    BNE $93DD
93D1: 20 F0 83 JSR $83F0
93D4: A5 44    LDA $44
93D6: 85 61    STA $61
93D8: A6 45    LDX $45
93DA: 86 62    STX $62
93DC: 60       RTS
93DD: B1 44    LDA ($44),Y
93DF: F0 01    BEQ $93E2
93E1: 60       RTS
93E2: A9 03    LDA #$03
93E4: 65 44    ADC $44
93E6: 85 44    STA $44
93E8: 90 DF    BCC $93C9
93EA: E6 45    INC $45
93EC: A6 45    LDX $45
93EE: D0 D9    BNE $93C9
93F0: A5 65    LDA $65
93F2: A4 66    LDY $66
93F4: 85 44    STA $44
93F6: 84 45    STY $45
93F8: A5 62    LDA $62
93FA: CD CC B8 CMP $B8CC
93FD: D0 05    BNE $9404
93FF: A5 61    LDA $61
9401: CD CB B8 CMP $B8CB
9404: F0 3C    BEQ $9442
9406: 38       SEC
9407: AD CB B8 LDA $B8CB
940A: E5 61    SBC $61
940C: A8       TAY
940D: AD CC B8 LDA $B8CC
9410: E5 62    SBC $62
9412: AA       TAX
9413: 98       TYA
9414: 49 FF    EOR #$FF
9416: A8       TAY
9417: C8       INY
9418: 8C 00 B8 STY $B800
941B: 38       SEC
941C: A5 61    LDA $61
941E: ED 00 B8 SBC $B800
9421: 85 61    STA $61
9423: B0 03    BCS $9428
9425: C6 62    DEC $62
9427: 38       SEC
9428: A5 65    LDA $65
942A: ED 00 B8 SBC $B800
942D: 85 65    STA $65
942F: B0 03    BCS $9434
9431: C6 66    DEC $66
9433: E8       INX
9434: B1 61    LDA ($61),Y
9436: 91 65    STA ($65),Y
9438: C8       INY
9439: D0 F9    BNE $9434
943B: E6 62    INC $62
943D: E6 66    INC $66
943F: CA       DEX
9440: D0 F2    BNE $9434
9442: A5 65    LDA $65
9444: A4 66    LDY $66
9446: 8D CB B8 STA $B8CB
9449: 8C CC B8 STY $B8CC
944C: 60       RTS
944D: A5 72    LDA $72
944F: 48       PHA
9450: A5 73    LDA $73
9452: 48       PHA
9453: 20 82 9C JSR $9C82
9456: 20 31 7D JSR $7D31
9459: 68       PLA
945A: 85 7E    STA $7E
945C: 68       PLA
945D: 85 7D    STA $7D
945F: A0 00    LDY #$00
9461: B1 7D    LDA ($7D),Y
9463: 18       CLC
9464: 71 72    ADC ($72),Y
9466: 90 05    BCC $946D
9468: A2 0D    LDX #$0D
946A: 4C 9F 67 JMP $679F
946D: 20 BE 7E JSR $7EBE
9470: 20 8A 84 JSR $848A
9473: A5 6C    LDA $6C
9475: A4 6D    LDY $6D
9477: 20 BA 84 JSR $84BA
947A: 20 9C 84 JSR $849C
947D: A5 7D    LDA $7D
947F: A4 7E    LDY $7E
9481: 20 BA 84 JSR $84BA
9484: 20 0F 7F JSR $7F0F
9487: 4C 95 9B JMP $9B95
948A: A0 00    LDY #$00
948C: B1 7D    LDA ($7D),Y
948E: 48       PHA
948F: C8       INY
9490: B1 7D    LDA ($7D),Y
9492: AA       TAX
9493: C8       INY
9494: B1 7D    LDA ($7D),Y
9496: A8       TAY
9497: 68       PLA
9498: 86 44    STX $44
949A: 84 45    STY $45
949C: A8       TAY
949D: F0 0A    BEQ $94A9
949F: 48       PHA
94A0: 88       DEY
94A1: B1 44    LDA ($44),Y
94A3: 91 FE    STA ($FE),Y
94A5: 98       TYA
94A6: D0 F8    BNE $94A0
94A8: 68       PLA
94A9: 18       CLC
94AA: 65 FE    ADC $FE
94AC: 85 FE    STA $FE
94AE: 90 02    BCC $94B2
94B0: E6 FF    INC $FF
94B2: 60       RTS
94B3: 20 31 7D JSR $7D31
94B6: A5 72    LDA $72
94B8: A4 73    LDY $73
94BA: 85 44    STA $44
94BC: 84 45    STY $45
94BE: 20 F0 84 JSR $84F0
94C1: 08       PHP
94C2: A0 00    LDY #$00
94C4: B1 44    LDA ($44),Y
94C6: 48       PHA
94C7: C8       INY
94C8: B1 44    LDA ($44),Y
94CA: AA       TAX
94CB: C8       INY
94CC: B1 44    LDA ($44),Y
94CE: A8       TAY
94CF: 68       PLA
94D0: 28       PLP
94D1: D0 18    BNE $94EB
94D3: CC D0 B8 CPY $B8D0
94D6: D0 13    BNE $94EB
94D8: EC CF B8 CPX $B8CF
94DB: D0 0E    BNE $94EB
94DD: 48       PHA
94DE: 18       CLC
94DF: 6D CF B8 ADC $B8CF
94E2: 8D CF B8 STA $B8CF
94E5: 90 03    BCC $94EA
94E7: EE D0 B8 INC $B8D0
94EA: 68       PLA
94EB: 86 44    STX $44
94ED: 84 45    STY $45
94EF: 60       RTS
94F0: C4 48    CPY $48
94F2: D0 0C    BNE $9500
94F4: C5 43    CMP $43
94F6: D0 08    BNE $9500
94F8: 85 42    STA $42
94FA: E9 03    SBC #$03
94FC: 85 43    STA $43
94FE: A0 00    LDY #$00
9500: 60       RTS
9501: 00 06 C0 INT $C006
9504: 48       PHA
9505: A9 01    LDA #$01
9507: 20 C6 7E JSR $7EC6
950A: 68       PLA
950B: A0 00    LDY #$00
950D: 91 70    STA ($70),Y
950F: 4C 0F 7F JMP $7F0F
9512: 20 CA 85 JSR $85CA
9515: 8A       TXA
9516: 48       PHA
9517: A9 01    LDA #$01
9519: 20 C6 7E JSR $7EC6
951C: 68       PLA
951D: A0 00    LDY #$00
951F: 91 70    STA ($70),Y
9521: 68       PLA
9522: 68       PLA
9523: 4C 0F 7F JMP $7F0F
9526: 20 85 85 JSR $8585
9529: D1 6C    CMP ($6C),Y
952B: 98       TYA
952C: 90 04    BCC $9532
952E: B1 6C    LDA ($6C),Y
9530: AA       TAX
9531: 98       TYA
9532: 48       PHA
9533: 8A       TXA
9534: 48       PHA
9535: 20 C6 7E JSR $7EC6
9538: A5 6C    LDA $6C
953A: A4 6D    LDY $6D
953C: 20 BA 84 JSR $84BA
953F: 68       PLA
9540: A8       TAY
9541: 68       PLA
9542: 18       CLC
9543: 65 44    ADC $44
9545: 85 44    STA $44
9547: 90 02    BCC $954B
9549: E6 45    INC $45
954B: 98       TYA
954C: 20 9C 84 JSR $849C
954F: 4C 0F 7F JMP $7F0F
9552: 20 85 85 JSR $8585
9555: 18       CLC
9556: F1 6C    SBC ($6C),Y
9558: 49 FF    EOR #$FF
955A: 4C 2C 85 JMP $852C
955D: A9 FF    LDA #$FF
955F: 85 73    STA $73
9561: 20 3A 66 JSR $663A
9564: C9 29    CMP #$29
9566: F0 06    BEQ $956E
9568: 20 F2 9C JSR $9CF2
956B: 20 C7 85 JSR $85C7
956E: 20 85 85 JSR $8585
9571: CA       DEX
9572: 8A       TXA
9573: 48       PHA
9574: 18       CLC
9575: A2 00    LDX #$00
9577: F1 6C    SBC ($6C),Y
9579: B0 B8    BCS $9533
957B: 49 FF    EOR #$FF
957D: C5 73    CMP $73
957F: 90 B3    BCC $9534
9581: A5 73    LDA $73
9583: B0 AF    BCS $9534
9585: 20 EC 9C JSR $9CEC
9588: 68       PLA
9589: A8       TAY
958A: 68       PLA
958B: 8D 5F B9 STA $B95F
958E: 68       PLA
958F: 68       PLA
9590: 68       PLA
9591: AA       TAX
9592: 68       PLA
9593: 85 6C    STA $6C
9595: 68       PLA
9596: 85 6D    STA $6D
9598: AD 5F B9 LDA $B95F
959B: 48       PHA
959C: 98       TYA
959D: 48       PHA
959E: A0 00    LDY #$00
95A0: 8A       TXA
95A1: F0 1E    BEQ $95C1
95A3: 60       RTS
95A4: 20 AA 85 JSR $85AA
95A7: 4C E0 7D JMP $7DE0
95AA: 20 B3 84 JSR $84B3
95AD: A2 00    LDX #$00
95AF: 8E 08 B8 STX $B808
95B2: A8       TAY
95B3: 60       RTS
95B4: 20 AA 85 JSR $85AA
95B7: F0 08    BEQ $95C1
95B9: A0 00    LDY #$00
95BB: B1 44    LDA ($44),Y
95BD: A8       TAY
95BE: 4C E0 7D JMP $7DE0
95C1: 4C 99 99 JMP $9999
95C4: 20 34 66 JSR $6634
95C7: 20 2C 7D JSR $7D2C
95CA: 20 A8 98 JSR $98A8
95CD: A6 72    LDX $72
95CF: D0 F0    BNE $95C1
95D1: A6 73    LDX $73
95D3: 4C 3A 66 JMP $663A
95D6: 20 AA 85 JSR $85AA
95D9: D0 03    BNE $95DE
95DB: 4C 47 9E JMP $9E47
95DE: A6 5E    LDX $5E
95E0: A4 5F    LDY $5F
95E2: 86 52    STX $52
95E4: 84 53    STY $53
95E6: A8       TAY
95E7: A9 00    LDA #$00
95E9: 4C EE 85 JMP $85EE
95EC: B1 44    LDA ($44),Y
95EE: 99 99 B9 STA $B999,Y
95F1: 88       DEY
95F2: 10 F8    BPL $95EC
95F4: A9 99    LDA #$99
95F6: 85 5E    STA $5E
95F8: A9 B9    LDA #$B9
95FA: 85 5F    STA $5F
95FC: 20 3A 66 JSR $663A
95FF: 20 93 A3 JSR $A393
9602: A6 52    LDX $52
9604: A4 53    LDY $53
9606: 86 5E    STX $5E
9608: 84 5F    STY $5F
960A: 60       RTS
960B: 20 2C 7D JSR $7D2C
960E: 20 17 86 JSR $8617
9611: 20 F2 9C JSR $9CF2
9614: 4C C7 85 JMP $85C7
9617: A5 6F    LDA $6F
9619: C9 91    CMP #$91
961B: B0 A4    BCS $95C1
961D: 20 7B A2 JSR $A27B
9620: A5 72    LDA $72
9622: A4 73    LDY $73
9624: 84 40    STY $40
9626: 85 41    STA $41
9628: 60       RTS
9629: A5 40    LDA $40
962B: 48       PHA
962C: A5 41    LDA $41
962E: 48       PHA
962F: 20 17 86 JSR $8617
9632: A0 00    LDY #$00
9634: B1 40    LDA ($40),Y
9636: A8       TAY
9637: 68       PLA
9638: 85 41    STA $41
963A: 68       PLA
963B: 85 40    STA $40
963D: 4C E0 7D JMP $7DE0
9640: 4C 42 77 JMP $7742
9643: 38       SEC
9644: 90 18    BCC $965E
9646: 6E 11 B8 ROR $B811
9649: 60       RTS
964A: A9 00    LDA #$00
964C: F0 11    BEQ $965F
964E: A9 01    LDA #$01
9650: D0 05    BNE $9657
9652: A9 02    LDA #$02
9654: 0D 12 B8 ORA $B812
9657: AE 15 B8 LDX $B815
965A: E0 FF    CPX #$FF
965C: D0 01    BNE $965F
965E: 60       RTS
965F: 8D 12 B8 STA $B812
9662: 60       RTS
9663: 8E 20 B8 STX $B820
9666: AE 26 B8 LDX $B826
9669: 8E 21 B8 STX $B821
966C: AD 14 B8 LDA $B814
966F: 8D 1C B8 STA $B81C
9672: AD 15 B8 LDA $B815
9675: 8D 1D B8 STA $B81D
9678: AD D3 B8 LDA $B8D3
967B: 8D 1E B8 STA $B81E
967E: AD D4 B8 LDA $B8D4
9681: 8D 1F B8 STA $B81F
9684: AD 22 B8 LDA $B822
9687: 85 5E    STA $5E
9689: AD 23 B8 LDA $B823
968C: 85 5F    STA $5F
968E: AD 24 B8 LDA $B824
9691: 8D 14 B8 STA $B814
9694: AD 25 B8 LDA $B825
9697: 8D 15 B8 STA $B815
969A: 20 3A 66 JSR $663A
969D: 20 BE 75 JSR $75BE
96A0: 4C F1 60 JMP $60F1
96A3: 4C 42 77 JMP $7742
96A6: 4C 42 77 JMP $7742
96A9: F0 3F    BEQ $96EA
96AB: AE B5 03 LDX $03B5
96AE: 8E C5 B8 STX $B8C5
96B1: C9 2C    CMP #$2C
96B3: F0 1E    BEQ $96D3
96B5: A5 5E    LDA $5E
96B7: D0 02    BNE $96BB
96B9: C6 5F    DEC $5F
96BB: C6 5E    DEC $5E
96BD: 20 C4 85 JSR $85C4
96C0: E0 06    CPX #$06
96C2: B0 29    BCS $96ED
96C4: A8       TAY
96C5: 8A       TXA
96C6: F0 25    BEQ $96ED
96C8: CA       DEX
96C9: 8E C5 B8 STX $B8C5
96CC: 98       TYA
96CD: F0 14    BEQ $96E3
96CF: C9 2C    CMP #$2C
96D1: D0 17    BNE $96EA
96D3: 20 C4 85 JSR $85C4
96D6: D0 12    BNE $96EA
96D8: E0 15    CPX #$15
96DA: B0 11    BCS $96ED
96DC: 8A       TXA
96DD: F0 0E    BEQ $96ED
96DF: CA       DEX
96E0: 8E B4 03 STX $03B4
96E3: AE C5 B8 LDX $B8C5
96E6: 8E B5 03 STX $03B5
96E9: 60       RTS
96EA: 4C FD 9C JMP $9CFD
96ED: 4C 99 99 JMP $9999
96F0: F0 F8    BEQ $96EA
96F2: A5 5E    LDA $5E
96F4: D0 02    BNE $96F8
96F6: C6 5F    DEC $5F
96F8: C6 5E    DEC $5E
96FA: 20 C4 85 JSR $85C4
96FD: C9 2C    CMP #$2C
96FF: D0 E9    BNE $96EA
9701: 8E C3 03 STX $03C3
9704: 20 C4 85 JSR $85C4
9707: C9 2C    CMP #$2C
9709: D0 DF    BNE $96EA
970B: 8E C4 03 STX $03C4
970E: 60       RTS
970F: F0 D9    BEQ $96EA
9711: A5 5E    LDA $5E
9713: D0 02    BNE $9717
9715: C6 5F    DEC $5F
9717: C6 5E    DEC $5E
9719: 20 C4 85 JSR $85C4
971C: C9 2C    CMP #$2C
971E: D0 CA    BNE $96EA
9720: 8E C7 03 STX $03C7
9723: 20 C4 85 JSR $85C4
9726: 08       PHP
9727: A0 01    LDY #$01
9729: 8E C8 03 STX $03C8
972C: 28       PLP
972D: F0 0C    BEQ $973B
972F: C9 2C    CMP #$2C
9731: D0 B7    BNE $96EA
9733: 20 C4 85 JSR $85C4
9736: D0 B2    BNE $96EA
9738: 20 1A 88 JSR $881A
973B: 8C C9 03 STY $03C9
973E: 00 04 CA INT $CA04
9741: 60       RTS
9742: 20 F0 86 JSR $86F0
9745: 20 C4 85 JSR $85C4
9748: C9 2C    CMP #$2C
974A: D0 9E    BNE $96EA
974C: 8E C5 03 STX $03C5
974F: 20 C4 85 JSR $85C4
9752: 08       PHP
9753: A0 01    LDY #$01
9755: 8E C6 03 STX $03C6
9758: 28       PLP
9759: F0 0C    BEQ $9767
975B: C9 2C    CMP #$2C
975D: D0 8B    BNE $96EA
975F: 20 C4 85 JSR $85C4
9762: D0 86    BNE $96EA
9764: 20 1A 88 JSR $881A
9767: 8C C9 03 STY $03C9
976A: 00 0B CA INT $CA0B
976D: 60       RTS
976E: 20 F0 86 JSR $86F0
9771: 20 C4 85 JSR $85C4
9774: C9 2C    CMP #$2C
9776: D0 25    BNE $979D
9778: 8E C5 03 STX $03C5
977B: 20 C4 85 JSR $85C4
977E: 08       PHP
977F: 8E C6 03 STX $03C6
9782: A0 01    LDY #$01
9784: A2 00    LDX #$00
9786: 28       PLP
9787: F0 03    BEQ $978C
9789: 20 A0 87 JSR $87A0
978C: 8E DA 03 STX $03DA
978F: 8C C9 03 STY $03C9
9792: 8A       TXA
9793: D0 04    BNE $9799
9795: 00 0C CA INT $CA0C
9798: 60       RTS
9799: 00 0A CA INT $CA0A
979C: 60       RTS
979D: 4C FD 9C JMP $9CFD
97A0: C9 2C    CMP #$2C
97A2: D0 F9    BNE $979D
97A4: 20 C4 85 JSR $85C4
97A7: 08       PHP
97A8: 8D C5 B8 STA $B8C5
97AB: A0 01    LDY #$01
97AD: 8A       TXA
97AE: 29 01    AND #$01
97B0: AA       TAX
97B1: 28       PLP
97B2: F0 15    BEQ $97C9
97B4: AD C5 B8 LDA $B8C5
97B7: C9 2C    CMP #$2C
97B9: D0 E2    BNE $979D
97BB: 8E C5 B8 STX $B8C5
97BE: 20 C4 85 JSR $85C4
97C1: D0 DA    BNE $979D
97C3: 20 1A 88 JSR $881A
97C6: AE C5 B8 LDX $B8C5
97C9: 60       RTS
97CA: 20 F0 86 JSR $86F0
97CD: 20 C4 85 JSR $85C4
97D0: 08       PHP
97D1: 8E D6 03 STX $03D6
97D4: A0 01    LDY #$01
97D6: A2 00    LDX #$00
97D8: 28       PLP
97D9: F0 03    BEQ $97DE
97DB: 20 A0 87 JSR $87A0
97DE: 8C C9 03 STY $03C9
97E1: 8A       TXA
97E2: D0 04    BNE $97E8
97E4: 00 0E CA INT $CA0E
97E7: 60       RTS
97E8: 00 10 CA INT $CA10
97EB: 60       RTS
97EC: 20 F0 86 JSR $86F0
97EF: 20 C4 85 JSR $85C4
97F2: F0 A9    BEQ $979D
97F4: C9 2C    CMP #$2C
97F6: D0 A5    BNE $979D
97F8: 8E DB 03 STX $03DB
97FB: 20 C4 85 JSR $85C4
97FE: 08       PHP
97FF: 8E DC 03 STX $03DC
9802: A0 01    LDY #$01
9804: A2 00    LDX #$00
9806: 28       PLP
9807: F0 03    BEQ $980C
9809: 20 A0 87 JSR $87A0
980C: 8C C9 03 STY $03C9
980F: 8A       TXA
9810: D0 04    BNE $9816
9812: 00 0F CA INT $CA0F
9815: 60       RTS
9816: 00 11 CA INT $CA11
9819: 60       RTS
981A: 8A       TXA
981B: 29 07    AND #$07
981D: A8       TAY
981E: C0 06    CPY #$06
9820: 90 02    BCC $9824
9822: A0 01    LDY #$01
9824: 60       RTS
9825: 4C 42 77 JMP $7742
9828: D0 03    BNE $982D
982A: 4C 12 E0 JMP $E012
982D: A2 01    LDX #$01
982F: 4C 9F 67 JMP $679F
9832: AD 15 B8 LDA $B815
9835: C9 FF    CMP #$FF
9837: F0 03    BEQ $983C
9839: 4C FD 9C JMP $9CFD
983C: A9 00    LDA #$00
983E: 8D E2 03 STA $03E2
9841: 8D 08 04 STA $0408
9844: 8D 06 04 STA $0406
9847: 85 C7    STA $C7
9849: AD 45 B9 LDA $B945
984C: 85 80    STA $80
984E: AD 46 B9 LDA $B946
9851: 85 81    STA $81
9853: A0 00    LDY #$00
9855: B1 80    LDA ($80),Y
9857: AA       TAX
9858: 9A       TXS
9859: C8       INY
985A: B1 80    LDA ($80),Y
985C: 9D 00 01 STA $0100,X
985F: C8       INY
9860: E8       INX
9861: D0 F7    BNE $985A
9863: 60       RTS
9864: F0 03    BEQ $9869
9866: 4C FD 9C JMP $9CFD
9869: A9 00    LDA #$00
986B: 8D 12 B8 STA $B812
986E: 8D 68 B9 STA $B968
9871: 8D B3 03 STA $03B3
9874: A9 01    LDA #$01
9876: 8D C4 B8 STA $B8C4
9879: 4C 8C 88 JMP $888C
987C: F0 03    BEQ $9881
987E: 4C FD 9C JMP $9CFD
9881: 20 E5 7D JSR $7DE5
9884: A9 80    LDA #$80
9886: 8D 68 B9 STA $B968
9889: 8D B3 03 STA $03B3
988C: 20 E2 AC JSR $ACE2
988F: A9 00    LDA #$00
9891: 8D C2 B8 STA $B8C2
9894: 8D B4 03 STA $03B4
9897: 8D B5 03 STA $03B5
989A: A9 00    LDA #$00
989C: A0 0C    LDY #$0C
989E: 99 2B B9 STA $B92B,Y
98A1: 88       DEY
98A2: 10 FA    BPL $989E
98A4: 60       RTS
98A5: 20 D5 89 JSR $89D5
98A8: A2 00    LDX #$00
98AA: A0 00    LDY #$00
98AC: B1 44    LDA ($44),Y
98AE: C9 1F    CMP #$1F
98B0: F0 04    BEQ $98B6
98B2: 9D 0A B9 STA $B90A,X
98B5: E8       INX
98B6: C8       INY
98B7: CC 00 B8 CPY $B800
98BA: 90 03    BCC $98BF
98BC: 4C C3 88 JMP $88C3
98BF: E0 0E    CPX #$0E
98C1: 90 E9    BCC $98AC
98C3: E0 05    CPX #$05
98C5: 90 1A    BCC $98E1
98C7: 8A       TXA
98C8: A8       TAY
98C9: 48       PHA
98CA: A2 03    LDX #$03
98CC: 88       DEY
98CD: B1 44    LDA ($44),Y
98CF: DD F0 88 CMP $88F0,X
98D2: D0 05    BNE $98D9
98D4: CA       DEX
98D5: 10 F5    BPL $98CC
98D7: 68       PLA
98D8: 60       RTS
98D9: 68       PLA
98DA: AA       TAX
98DB: E0 0A    CPX #$0A
98DD: 90 02    BCC $98E1
98DF: A2 0E    LDX #$0E
98E1: A0 00    LDY #$00
98E3: B9 F0 88 LDA $88F0,Y
98E6: 9D 0A B9 STA $B90A,X
98E9: E8       INX
98EA: C8       INY
98EB: C0 04    CPY #$04
98ED: 90 F4    BCC $98E3
98EF: 60       RTS
98F0: 00 00 00 INT $0000
98F3: 00 AD 0A INT $0AAD
98F6: B9 F0 19 LDA $19F0,Y
98F9: A2 0D    LDX #$0D
98FB: BD 0A B9 LDA $B90A,X
98FE: C9 2F    CMP #$2F
9900: F0 10    BEQ $9912
9902: CA       DEX
9903: 10 F6    BPL $98FB
9905: A2 0D    LDX #$0D
9907: A9 00    LDA #$00
9909: 3D 0A B9 AND $B90A,X
990C: CA       DEX
990D: 10 FA    BPL $9909
990F: 09 00    ORA #$00
9911: 60       RTS
9912: A9 FF    LDA #$FF
9914: 60       RTS
9915: 4C 42 77 JMP $7742
9918: A9 80    LDA #$80
991A: 8D C9 08 STA $08C9
991D: 00 15 05 INT $0515
9920: A2 14    LDX #$14
9922: 90 03    BCC $9927
9924: 4C A0 89 JMP $89A0
9927: AD C8 08 LDA $08C8
992A: 8D D9 B8 STA $B8D9
992D: 00 14 05 INT $0514
9930: A2 14    LDX #$14
9932: 90 03    BCC $9937
9934: 4C C5 89 JMP $89C5
9937: AD FD 08 LDA $08FD
993A: 0D FE 08 ORA $08FE
993D: F0 07    BEQ $9946
993F: A2 26    LDX #$26
9941: 90 03    BCC $9946
9943: 4C C5 89 JMP $89C5
9946: AD FC 08 LDA $08FC
9949: C9 20    CMP #$20
994B: D0 05    BNE $9952
994D: AD FB 08 LDA $08FB
9950: C9 00    CMP #$00
9952: 90 03    BCC $9957
9954: 4C B2 89 JMP $89B2
9957: 18       CLC
9958: AD FB 08 LDA $08FB
995B: 69 00    ADC #$00
995D: 8D 8D BA STA $BA8D
9960: AD FC 08 LDA $08FC
9963: 69 20    ADC #$20
9965: 8D 8E BA STA $BA8E
9968: AD FB 08 LDA $08FB
996B: 8D C6 08 STA $08C6
996E: AD FC 08 LDA $08FC
9971: 8D C7 08 STA $08C7
9974: A9 00    LDA #$00
9976: 85 E0    STA $E0
9978: A9 20    LDA #$20
997A: 85 E1    STA $E1
997C: 00 16 05 INT $0516
997F: A2 16    LDX #$16
9981: B0 10    BCS $9993
9983: 00 17 05 INT $0517
9986: A2 15    LDX #$15
9988: B0 09    BCS $9993
998A: A9 00    LDA #$00
998C: 8D 4E B9 STA $B94E
998F: 20 7C 68 JSR $687C
9992: 60       RTS
9993: 8A       TXA
9994: 48       PHA
9995: AD D9 B8 LDA $B8D9
9998: 8D C8 08 STA $08C8
999B: 00 17 05 INT $0517
999E: 68       PLA
999F: AA       TAX
99A0: A9 00    LDA #$00
99A2: 8D D9 B8 STA $B8D9
99A5: A9 00    LDA #$00
99A7: 8D DA B8 STA $B8DA
99AA: 4C 9F 67 JMP $679F
99AD: A2 25    LDX #$25
99AF: 4C 9F 67 JMP $679F
99B2: A9 80    LDA #$80
99B4: 8D 4E B9 STA $B94E
99B7: A9 00    LDA #$00
99B9: 8D 8D BA STA $BA8D
99BC: A9 24    LDA #$24
99BE: 8D 8E BA STA $BA8E
99C1: 60       RTS
99C2: 4C 42 77 JMP $7742
99C5: 8A       TXA
99C6: 48       PHA
99C7: AD D9 B8 LDA $B8D9
99CA: 8D C8 08 STA $08C8
99CD: 00 17 05 INT $0517
99D0: 68       PLA
99D1: AA       TAX
99D2: 4C 9F 67 JMP $679F
99D5: A9 00    LDA #$00
99D7: A2 11    LDX #$11
99D9: 9D 0A B9 STA $B90A,X
99DC: CA       DEX
99DD: 10 FA    BPL $99D9
99DF: 60       RTS
99E0: 4C 42 77 JMP $7742
99E3: 4C 42 77 JMP $7742
99E6: 20 E5 7D JSR $7DE5
99E9: 48       PHA
99EA: 68       PLA
99EB: D0 06    BNE $99F3
99ED: A2 01    LDX #$01
99EF: 4C 9F 67 JMP $679F
99F2: 60       RTS
99F3: 20 7A 9B JSR $9B7A
99F6: 2C 08 B8 BIT $B808
99F9: 30 05    BMI $9A00
99FB: A2 01    LDX #$01
99FD: 4C 9F 67 JMP $679F
9A00: 20 B6 84 JSR $84B6
9A03: 8D 00 B8 STA $B800
9A06: AD 00 B8 LDA $B800
9A09: D0 03    BNE $9A0E
9A0B: 4C FB 89 JMP $89FB
9A0E: 20 A5 88 JSR $88A5
9A11: 20 F4 88 JSR $88F4
9A14: 10 03    BPL $9A19
9A16: 4C AD 89 JMP $89AD
9A19: 20 20 8A JSR $8A20
9A1C: 20 92 8A JSR $8A92
9A1F: 60       RTS
9A20: A5 5E    LDA $5E
9A22: D0 02    BNE $9A26
9A24: C6 5F    DEC $5F
9A26: C6 5E    DEC $5E
9A28: 20 34 66 JSR $6634
9A2B: C9 81    CMP #$81
9A2D: D0 03    BNE $9A32
9A2F: 20 34 66 JSR $6634
9A32: 48       PHA
9A33: A5 5E    LDA $5E
9A35: 85 80    STA $80
9A37: A5 5F    LDA $5F
9A39: 85 81    STA $81
9A3B: 68       PLA
9A3C: A2 01    LDX #$01
9A3E: C9 84    CMP #$84
9A40: D0 03    BNE $9A45
9A42: 4C 7C 8A JMP $8A7C
9A45: A9 7F    LDA #$7F
9A47: 85 6F    STA $6F
9A49: A9 8A    LDA #$8A
9A4B: 85 70    STA $70
9A4D: A2 01    LDX #$01
9A4F: E8       INX
9A50: A0 FF    LDY #$FF
9A52: C8       INY
9A53: B1 6F    LDA ($6F),Y
9A55: F0 17    BEQ $9A6E
9A57: D1 80    CMP ($80),Y
9A59: F0 F7    BEQ $9A52
9A5B: E9 80    SBC #$80
9A5D: D1 80    CMP ($80),Y
9A5F: F0 11    BEQ $9A72
9A61: 18       CLC
9A62: A5 6F    LDA $6F
9A64: 69 06    ADC #$06
9A66: 85 6F    STA $6F
9A68: 90 E5    BCC $9A4F
9A6A: E6 70    INC $70
9A6C: D0 E1    BNE $9A4F
9A6E: A2 04    LDX #$04
9A70: A0 00    LDY #$00
9A72: 98       TYA
9A73: 18       CLC
9A74: 65 5E    ADC $5E
9A76: 85 5E    STA $5E
9A78: 90 02    BCC $9A7C
9A7A: E6 5F    INC $5F
9A7C: 86 6A    STX $6A
9A7E: 60       RTS
9A7F: 4F       ??
9A80: 55 54    EOR $54,X
9A82: 50 55    BVC $9AD9
9A84: D4       ??
9A85: 41 50    EOR ($50,X)
9A87: 50 45    BVC $9ACE
9A89: 4E C4 52 LSR $52C4
9A8C: 41 4E    EOR ($4E,X)
9A8E: 44       ??
9A8F: 4F       ??
9A90: CD 00 20 CMP $2000
9A93: 34       ??
9A94: 66 C9    ROR $C9
9A96: 41 F0    EOR ($F0,X)
9A98: 03       ??
9A99: 4C FB 89 JMP $89FB
9A9C: 20 34 66 JSR $6634
9A9F: C9 53    CMP #$53
9AA1: F0 03    BEQ $9AA6
9AA3: 4C FB 89 JMP $89FB
9AA6: 20 34 66 JSR $6634
9AA9: C9 23    CMP #$23
9AAB: D0 03    BNE $9AB0
9AAD: 20 34 66 JSR $6634
9AB0: C9 31    CMP #$31
9AB2: 90 2B    BCC $9ADF
9AB4: C9 34    CMP #$34
9AB6: B0 27    BCS $9ADF
9AB8: 38       SEC
9AB9: E9 31    SBC #$31
9ABB: AA       TAX
9ABC: 0A       ASL
9ABD: A8       TAY
9ABE: B9 EC B8 LDA $B8EC,Y
9AC1: D0 19    BNE $9ADC
9AC3: A5 6A    LDA $6A
9AC5: 9D F2 B8 STA $B8F2,X
9AC8: 86 6A    STX $6A
9ACA: 0A       ASL
9ACB: AA       TAX
9ACC: BD E5 8A LDA $8AE5,X
9ACF: 8D 5F B9 STA $B95F
9AD2: BD E6 8A LDA $8AE6,X
9AD5: 8D 60 B9 STA $B960
9AD8: 20 5E B9 JSR $B95E
9ADB: 60       RTS
9ADC: A2 14    LDX #$14
9ADE: 2C A2 01 BIT $01A2
9AE1: 4C 9F 67 JMP $679F
9AE4: 60       RTS
9AE5: 00 00 3B INT $3B00
9AE8: 8B       ??
9AE9: A0 8B    LDY #$8B
9AEB: 12       ??
9AEC: 8C A9 8C STY $8CA9
9AEF: A9 00    LDA #$00
9AF1: 8D 00 B8 STA $B800
9AF4: 0A       ASL
9AF5: 0A       ASL
9AF6: A8       TAY
9AF7: A2 00    LDX #$00
9AF9: BD 8D 08 LDA $088D,X
9AFC: D9 6B B9 CMP $B96B,Y
9AFF: D0 07    BNE $9B08
9B01: C8       INY
9B02: E8       INX
9B03: E0 04    CPX #$04
9B05: 90 F2    BCC $9AF9
9B07: 60       RTS
9B08: EE 00 B8 INC $B800
9B0B: AD 00 B8 LDA $B800
9B0E: C9 03    CMP #$03
9B10: 90 E2    BCC $9AF4
9B12: AD 00 B8 LDA $B800
9B15: 60       RTS
9B16: A5 6A    LDA $6A
9B18: 0A       ASL
9B19: 0A       ASL
9B1A: AA       TAX
9B1B: A0 00    LDY #$00
9B1D: B9 1C B9 LDA $B91C,Y
9B20: 9D 6B B9 STA $B96B,X
9B23: E8       INX
9B24: C8       INY
9B25: C0 04    CPY #$04
9B27: 90 F4    BCC $9B1D
9B29: 60       RTS
9B2A: 0A       ASL
9B2B: 0A       ASL
9B2C: AA       TAX
9B2D: A9 00    LDA #$00
9B2F: A0 00    LDY #$00
9B31: 9D 6B B9 STA $B96B,X
9B34: E8       INX
9B35: C8       INY
9B36: C0 04    CPY #$04
9B38: 90 F7    BCC $9B31
9B3A: 60       RTS
9B3B: A2 0E    LDX #$0E
9B3D: BD 09 B9 LDA $B909,X
9B40: 9D 8C 08 STA $088C,X
9B43: CA       DEX
9B44: D0 F7    BNE $9B3D
9B46: A9 80    LDA #$80
9B48: 8D C9 08 STA $08C9
9B4B: 00 15 05 INT $0515
9B4E: 90 15    BCC $9B65
9B50: AD CC 08 LDA $08CC
9B53: C9 1A    CMP #$1A
9B55: D0 05    BNE $9B5C
9B57: A2 27    LDX #$27
9B59: 4C 9F 67 JMP $679F
9B5C: C9 02    CMP #$02
9B5E: D0 0D    BNE $9B6D
9B60: A2 1E    LDX #$1E
9B62: 4C 9F 67 JMP $679F
9B65: 00 14 05 INT $0514
9B68: 90 08    BCC $9B72
9B6A: 00 17 05 INT $0517
9B6D: A2 14    LDX #$14
9B6F: 4C 9F 67 JMP $679F
9B72: AD FD 08 LDA $08FD
9B75: 0D FE 08 ORA $08FE
9B78: D0 F0    BNE $9B6A
9B7A: A6 6A    LDX $6A
9B7C: 8A       TXA
9B7D: 0A       ASL
9B7E: AA       TAX
9B7F: AD C8 08 LDA $08C8
9B82: 18       CLC
9B83: 69 01    ADC #$01
9B85: 9D EC B8 STA $B8EC,X
9B88: AD FB 08 LDA $08FB
9B8B: 9D F5 B8 STA $B8F5,X
9B8E: AD FC 08 LDA $08FC
9B91: 9D F6 B8 STA $B8F6,X
9B94: A9 00    LDA #$00
9B96: 9D FB B8 STA $B8FB,X
9B99: 9D FC B8 STA $B8FC,X
9B9C: 20 34 66 JSR $6634
9B9F: 60       RTS
9BA0: A2 0E    LDX #$0E
9BA2: BD 09 B9 LDA $B909,X
9BA5: 9D 8C 08 STA $088C,X
9BA8: CA       DEX
9BA9: D0 F7    BNE $9BA2
9BAB: A9 50    LDA #$50
9BAD: 8D C9 08 STA $08C9
9BB0: 00 15 05 INT $0515
9BB3: 90 37    BCC $9BEC
9BB5: AD CC 08 LDA $08CC
9BB8: C9 1A    CMP #$1A
9BBA: D0 05    BNE $9BC1
9BBC: A2 27    LDX #$27
9BBE: 4C 9F 67 JMP $679F
9BC1: A2 14    LDX #$14
9BC3: C9 02    CMP #$02
9BC5: F0 03    BEQ $9BCA
9BC7: 4C 9F 67 JMP $679F
9BCA: A9 EF    LDA #$EF
9BCC: 8D CA 08 STA $08CA
9BCF: A9 EF    LDA #$EF
9BD1: 8D CB 08 STA $08CB
9BD4: A9 60    LDA #$60
9BD6: 8D C9 08 STA $08C9
9BD9: 00 15 05 INT $0515
9BDC: 90 0E    BCC $9BEC
9BDE: A2 13    LDX #$13
9BE0: AD CC 08 LDA $08CC
9BE3: C9 0E    CMP #$0E
9BE5: D0 02    BNE $9BE9
9BE7: A2 12    LDX #$12
9BE9: 4C 9F 67 JMP $679F
9BEC: AD C8 08 LDA $08C8
9BEF: 18       CLC
9BF0: 69 01    ADC #$01
9BF2: 8D 20 B9 STA $B920
9BF5: A6 6A    LDX $6A
9BF7: 8A       TXA
9BF8: 0A       ASL
9BF9: AA       TAX
9BFA: AD 20 B9 LDA $B920
9BFD: 9D EC B8 STA $B8EC,X
9C00: A9 00    LDA #$00
9C02: 9D F5 B8 STA $B8F5,X
9C05: 9D F6 B8 STA $B8F6,X
9C08: 9D FB B8 STA $B8FB,X
9C0B: 9D FC B8 STA $B8FC,X
9C0E: 20 34 66 JSR $6634
9C11: 60       RTS
9C12: A2 0E    LDX #$0E
9C14: BD 09 B9 LDA $B909,X
9C17: 9D 8C 08 STA $088C,X
9C1A: CA       DEX
9C1B: D0 F7    BNE $9C14
9C1D: A9 C0    LDA #$C0
9C1F: 8D C9 08 STA $08C9
9C22: 00 15 05 INT $0515
9C25: 90 41    BCC $9C68
9C27: A2 27    LDX #$27
9C29: AD CC 08 LDA $08CC
9C2C: C9 1A    CMP #$1A
9C2E: D0 03    BNE $9C33
9C30: 4C 9F 67 JMP $679F
9C33: A2 14    LDX #$14
9C35: C9 02    CMP #$02
9C37: F0 03    BEQ $9C3C
9C39: 4C 9F 67 JMP $679F
9C3C: A9 EF    LDA #$EF
9C3E: 8D CA 08 STA $08CA
9C41: A9 EF    LDA #$EF
9C43: 8D CB 08 STA $08CB
9C46: A9 E0    LDA #$E0
9C48: 8D C9 08 STA $08C9
9C4B: 00 15 05 INT $0515
9C4E: A9 00    LDA #$00
9C50: 8D FB 08 STA $08FB
9C53: A9 00    LDA #$00
9C55: 8D FC 08 STA $08FC
9C58: 90 2B    BCC $9C85
9C5A: A2 13    LDX #$13
9C5C: AD CC 08 LDA $08CC
9C5F: C9 0E    CMP #$0E
9C61: D0 02    BNE $9C65
9C63: A2 12    LDX #$12
9C65: 4C 9F 67 JMP $679F
9C68: 00 14 05 INT $0514
9C6B: 90 08    BCC $9C75
9C6D: 00 17 05 INT $0517
9C70: A2 14    LDX #$14
9C72: 4C 9F 67 JMP $679F
9C75: AD FD 08 LDA $08FD
9C78: 0D FE 08 ORA $08FE
9C7B: F0 08    BEQ $9C85
9C7D: 00 17 05 INT $0517
9C80: A2 24    LDX #$24
9C82: 4C 9F 67 JMP $679F
9C85: A6 6A    LDX $6A
9C87: 8A       TXA
9C88: 0A       ASL
9C89: AA       TAX
9C8A: AD C8 08 LDA $08C8
9C8D: 18       CLC
9C8E: 69 01    ADC #$01
9C90: 9D EC B8 STA $B8EC,X
9C93: AD FB 08 LDA $08FB
9C96: 8D F5 B8 STA $B8F5
9C99: 9D FB B8 STA $B8FB,X
9C9C: AD FC 08 LDA $08FC
9C9F: 8D F6 B8 STA $B8F6
9CA2: 9D FC B8 STA $B8FC,X
9CA5: 20 34 66 JSR $6634
9CA8: 60       RTS
9CA9: 20 12 8C JSR $8C12
9CAC: A6 6A    LDX $6A
9CAE: 8E 0A B9 STX $B90A
9CB1: 8A       TXA
9CB2: 0A       ASL
9CB3: AA       TAX
9CB4: A9 00    LDA #$00
9CB6: 9D FB B8 STA $B8FB,X
9CB9: 9D FC B8 STA $B8FC,X
9CBC: A2 14    LDX #$14
9CBE: 20 3A 66 JSR $663A
9CC1: C9 E0    CMP #$E0
9CC3: D0 16    BNE $9CDB
9CC5: 20 34 66 JSR $6634
9CC8: C9 D1    CMP #$D1
9CCA: F0 03    BEQ $9CCF
9CCC: 4C 9F 67 JMP $679F
9CCF: 20 C4 85 JSR $85C4
9CD2: E0 01    CPX #$01
9CD4: 90 05    BCC $9CDB
9CD6: E0 81    CPX #$81
9CD8: B0 01    BCS $9CDB
9CDA: 2C A2 20 BIT $20A2
9CDD: AD 0A B9 LDA $B90A
9CE0: 0A       ASL
9CE1: 18       CLC
9CE2: 6D 0A B9 ADC $B90A
9CE5: A8       TAY
9CE6: 8A       TXA
9CE7: 99 01 B9 STA $B901,Y
9CEA: C8       INY
9CEB: 8C 0A B9 STY $B90A
9CEE: 20 38 7F JSR $7F38
9CF1: 8E 0B B9 STX $B90B
9CF4: 8C 0C B9 STY $B90C
9CF7: AC 0A B9 LDY $B90A
9CFA: AD 0B B9 LDA $B90B
9CFD: 99 01 B9 STA $B901,Y
9D00: AD 0C B9 LDA $B90C
9D03: 99 02 B9 STA $B902,Y
9D06: 60       RTS
9D07: 08       PHP
9D08: 20 E5 7D JSR $7DE5
9D0B: 28       PLP
9D0C: D0 05    BNE $9D13
9D0E: A2 01    LDX #$01
9D10: 4C 9F 67 JMP $679F
9D13: C9 23    CMP #$23
9D15: F0 08    BEQ $9D1F
9D17: A5 5E    LDA $5E
9D19: D0 02    BNE $9D1D
9D1B: C6 5F    DEC $5F
9D1D: C6 5E    DEC $5E
9D1F: 20 C4 85 JSR $85C4
9D22: 8A       TXA
9D23: A2 01    LDX #$01
9D25: C9 04    CMP #$04
9D27: 90 03    BCC $9D2C
9D29: 4C 9F 67 JMP $679F
9D2C: C9 01    CMP #$01
9D2E: B0 03    BCS $9D33
9D30: 4C 9F 67 JMP $679F
9D33: AA       TAX
9D34: CA       DEX
9D35: BD F2 B8 LDA $B8F2,X
9D38: C9 04    CMP #$04
9D3A: F0 03    BEQ $9D3F
9D3C: 4C A5 8D JMP $8DA5
9D3F: 8E 1C B9 STX $B91C
9D42: 18       CLC
9D43: AD 1C B9 LDA $B91C
9D46: 0A       ASL
9D47: 6D 1C B9 ADC $B91C
9D4A: AA       TAX
9D4B: 18       CLC
9D4C: BD 02 B9 LDA $B902,X
9D4F: 85 6F    STA $6F
9D51: 7D 01 B9 ADC $B901,X
9D54: 85 77    STA $77
9D56: BD 03 B9 LDA $B903,X
9D59: 85 70    STA $70
9D5B: 85 78    STA $78
9D5D: 90 02    BCC $9D61
9D5F: E6 78    INC $78
9D61: A9 00    LDA #$00
9D63: 9D 01 B9 STA $B901,X
9D66: 9D 02 B9 STA $B902,X
9D69: 9D 03 B9 STA $B903,X
9D6C: AD C9 B8 LDA $B8C9
9D6F: AE CA B8 LDX $B8CA
9D72: 85 44    STA $44
9D74: 86 45    STX $45
9D76: 20 31 82 JSR $8231
9D79: 90 08    BCC $9D83
9D7B: 20 C4 8D JSR $8DC4
9D7E: 20 69 82 JSR $8269
9D81: B0 F3    BCS $9D76
9D83: 85 61    STA $61
9D85: 86 62    STX $62
9D87: A9 00    LDA #$00
9D89: 8D 04 B8 STA $B804
9D8C: A5 61    LDA $61
9D8E: A6 62    LDX $62
9D90: 85 65    STA $65
9D92: 86 66    STX $66
9D94: 20 BF 81 JSR $81BF
9D97: 90 06    BCC $9D9F
9D99: 20 E9 8D JSR $8DE9
9D9C: 4C 8C 8D JMP $8D8C
9D9F: 20 FE 82 JSR $82FE
9DA2: AE 1C B9 LDX $B91C
9DA5: 8A       TXA
9DA6: 0A       ASL
9DA7: AA       TAX
9DA8: BD EC B8 LDA $B8EC,X
9DAB: 38       SEC
9DAC: E9 01    SBC #$01
9DAE: 8D C8 08 STA $08C8
9DB1: A9 00    LDA #$00
9DB3: 9D EC B8 STA $B8EC,X
9DB6: 9D ED B8 STA $B8ED,X
9DB9: 00 17 05 INT $0517
9DBC: A2 15    LDX #$15
9DBE: 90 03    BCC $9DC3
9DC0: 4C 9F 67 JMP $679F
9DC3: 60       RTS
9DC4: B1 44    LDA ($44),Y
9DC6: F0 1E    BEQ $9DE6
9DC8: C8       INY
9DC9: B1 44    LDA ($44),Y
9DCB: AA       TAX
9DCC: C8       INY
9DCD: B1 44    LDA ($44),Y
9DCF: C5 70    CMP $70
9DD1: 90 13    BCC $9DE6
9DD3: E4 6F    CPX $6F
9DD5: 90 0F    BCC $9DE6
9DD7: C5 78    CMP $78
9DD9: B0 0B    BCS $9DE6
9DDB: E4 77    CPX $77
9DDD: B0 07    BCS $9DE6
9DDF: A9 00    LDA #$00
9DE1: AC 04 B8 LDY $B804
9DE4: 91 44    STA ($44),Y
9DE6: A2 03    LDX #$03
9DE8: 60       RTS
9DE9: E4 62    CPX $62
9DEB: D0 05    BNE $9DF2
9DED: C5 61    CMP $61
9DEF: D0 01    BNE $9DF2
9DF1: 60       RTS
9DF2: A0 00    LDY #$00
9DF4: 8C 04 B8 STY $B804
9DF7: 20 C4 8D JSR $8DC4
9DFA: 18       CLC
9DFB: 8A       TXA
9DFC: 6D 04 B8 ADC $B804
9DFF: 65 44    ADC $44
9E01: 85 44    STA $44
9E03: 90 02    BCC $9E07
9E05: E6 45    INC $45
9E07: A6 45    LDX $45
9E09: 4C E9 8D JMP $8DE9
9E0C: 20 C4 85 JSR $85C4
9E0F: 8A       TXA
9E10: A2 01    LDX #$01
9E12: C9 04    CMP #$04
9E14: 90 03    BCC $9E19
9E16: 4C 9F 67 JMP $679F
9E19: C9 01    CMP #$01
9E1B: B0 03    BCS $9E20
9E1D: 4C 9F 67 JMP $679F
9E20: AA       TAX
9E21: CA       DEX
9E22: 8E 28 B9 STX $B928
9E25: BD F2 B8 LDA $B8F2,X
9E28: C9 01    CMP #$01
9E2A: F0 05    BEQ $9E31
9E2C: A2 01    LDX #$01
9E2E: 4C 9F 67 JMP $679F
9E31: 8A       TXA
9E32: 0A       ASL
9E33: AA       TAX
9E34: BD EC B8 LDA $B8EC,X
9E37: D0 05    BNE $9E3E
9E39: A2 01    LDX #$01
9E3B: 4C 9F 67 JMP $679F
9E3E: BD EC B8 LDA $B8EC,X
9E41: 8D 20 B9 STA $B920
9E44: BD ED B8 LDA $B8ED,X
9E47: 8D 21 B9 STA $B921
9E4A: BD FB B8 LDA $B8FB,X
9E4D: 8D 24 B9 STA $B924
9E50: BD F5 B8 LDA $B8F5,X
9E53: 8D 26 B9 STA $B926
9E56: BD FC B8 LDA $B8FC,X
9E59: 8D 25 B9 STA $B925
9E5C: BD F6 B8 LDA $B8F6,X
9E5F: 8D 27 B9 STA $B927
9E62: 20 DE 95 JSR $95DE
9E65: 20 3A 66 JSR $663A
9E68: C9 2C    CMP #$2C
9E6A: F0 05    BEQ $9E71
9E6C: A2 01    LDX #$01
9E6E: 4C 9F 67 JMP $679F
9E71: 20 34 66 JSR $6634
9E74: 20 D8 96 JSR $96D8
9E77: 85 5C    STA $5C
9E79: 84 5D    STY $5D
9E7B: A6 5E    LDX $5E
9E7D: A4 5F    LDY $5F
9E7F: 8E 05 B8 STX $B805
9E82: 8C 06 B8 STY $B806
9E85: 20 04 96 JSR $9604
9E88: D0 03    BNE $9E8D
9E8A: 4C F6 8E JMP $8EF6
9E8D: 20 28 96 JSR $9628
9E90: 2C 08 B8 BIT $B808
9E93: 10 1B    BPL $9EB0
9E95: 8D 00 B8 STA $B800
9E98: C9 22    CMP #$22
9E9A: F0 08    BEQ $9EA4
9E9C: A9 FF    LDA #$FF
9E9E: 8D 00 B8 STA $B800
9EA1: A9 2C    LDA #$2C
9EA3: 18       CLC
9EA4: 8D 01 B8 STA $B801
9EA7: 20 FE 8E JSR $8EFE
9EAA: 20 F3 77 JSR $77F3
9EAD: 4C BC 8E JMP $8EBC
9EB0: 20 1A 96 JSR $961A
9EB3: 20 D8 A2 JSR $A2D8
9EB6: AD 09 B8 LDA $B809
9EB9: 20 DB 77 JSR $77DB
9EBC: 20 04 96 JSR $9604
9EBF: F0 0E    BEQ $9ECF
9EC1: AD 2A B9 LDA $B92A
9EC4: C9 FF    CMP #$FF
9EC6: F0 07    BEQ $9ECF
9EC8: C9 2C    CMP #$2C
9ECA: F0 03    BEQ $9ECF
9ECC: 4C F9 8E JMP $8EF9
9ECF: AD 05 B8 LDA $B805
9ED2: AC 06 B8 LDY $B806
9ED5: 85 5E    STA $5E
9ED7: 84 5F    STY $5F
9ED9: 20 3A 66 JSR $663A
9EDC: F0 06    BEQ $9EE4
9EDE: 20 F2 9C JSR $9CF2
9EE1: 4C 74 8E JMP $8E74
9EE4: AD 28 B9 LDA $B928
9EE7: 0A       ASL
9EE8: AA       TAX
9EE9: AD 24 B9 LDA $B924
9EEC: 9D FB B8 STA $B8FB,X
9EEF: AD 25 B9 LDA $B925
9EF2: 9D FC B8 STA $B8FC,X
9EF5: 60       RTS
9EF6: A2 03    LDX #$03
9EF8: 2C A2 0C BIT $0CA2
9EFB: 4C 9F 67 JMP $679F
9EFE: 90 03    BCC $9F03
9F00: 20 1A 96 JSR $961A
9F03: AD 24 B9 LDA $B924
9F06: 85 56    STA $56
9F08: AD 25 B9 LDA $B925
9F0B: 85 57    STA $57
9F0D: A0 FF    LDY #$FF
9F0F: 8C 02 B8 STY $B802
9F12: EE 02 B8 INC $B802
9F15: 20 1A 96 JSR $961A
9F18: CD 00 B8 CMP $B800
9F1B: F0 05    BEQ $9F22
9F1D: CD 01 B8 CMP $B801
9F20: D0 F0    BNE $9F12
9F22: A6 56    LDX $56
9F24: 8E 24 B9 STX $B924
9F27: A6 57    LDX $57
9F29: 8E 25 B9 STX $B925
9F2C: 85 56    STA $56
9F2E: AD 02 B8 LDA $B802
9F31: 20 BE 7E JSR $7EBE
9F34: 20 DE 95 JSR $95DE
9F37: A0 00    LDY #$00
9F39: 8C 00 B8 STY $B800
9F3C: 20 1A 96 JSR $961A
9F3F: AC 00 B8 LDY $B800
9F42: 91 70    STA ($70),Y
9F44: C8       INY
9F45: CC 02 B8 CPY $B802
9F48: 90 EF    BCC $9F39
9F4A: A5 56    LDA $56
9F4C: C9 22    CMP #$22
9F4E: D0 03    BNE $9F53
9F50: 20 1A 96 JSR $961A
9F53: 20 1A 96 JSR $961A
9F56: A6 42    LDX $42
9F58: E0 52    CPX #$52
9F5A: D0 05    BNE $9F61
9F5C: A2 0E    LDX #$0E
9F5E: 4C 9F 67 JMP $679F
9F61: 20 1A 7F JSR $7F1A
9F64: 60       RTS
9F65: 48       PHA
9F66: 20 E5 7D JSR $7DE5
9F69: A9 00    LDA #$00
9F6B: 8D 0C B8 STA $B80C
9F6E: 68       PLA
9F6F: D0 03    BNE $9F74
9F71: 4C AD 78 JMP $78AD
9F74: C9 23    CMP #$23
9F76: D0 71    BNE $9FE9
9F78: A9 FF    LDA #$FF
9F7A: 8D 0C B8 STA $B80C
9F7D: 20 C4 85 JSR $85C4
9F80: 8A       TXA
9F81: A2 01    LDX #$01
9F83: C9 04    CMP #$04
9F85: 90 03    BCC $9F8A
9F87: 4C 9F 67 JMP $679F
9F8A: C9 01    CMP #$01
9F8C: B0 03    BCS $9F91
9F8E: 4C 9F 67 JMP $679F
9F91: AA       TAX
9F92: CA       DEX
9F93: 8E 28 B9 STX $B928
9F96: BD F2 B8 LDA $B8F2,X
9F99: C9 02    CMP #$02
9F9B: F0 09    BEQ $9FA6
9F9D: C9 03    CMP #$03
9F9F: F0 05    BEQ $9FA6
9FA1: A2 01    LDX #$01
9FA3: 4C 9F 67 JMP $679F
9FA6: 8A       TXA
9FA7: 0A       ASL
9FA8: AA       TAX
9FA9: BD EC B8 LDA $B8EC,X
9FAC: D0 05    BNE $9FB3
9FAE: A2 01    LDX #$01
9FB0: 4C 9F 67 JMP $679F
9FB3: BD EC B8 LDA $B8EC,X
9FB6: 8D 20 B9 STA $B920
9FB9: BD ED B8 LDA $B8ED,X
9FBC: 8D 21 B9 STA $B921
9FBF: B9 F5 B8 LDA $B8F5,Y
9FC2: 8D 26 B9 STA $B926
9FC5: B9 FB B8 LDA $B8FB,Y
9FC8: 8D 24 B9 STA $B924
9FCB: B9 F6 B8 LDA $B8F6,Y
9FCE: 8D 27 B9 STA $B927
9FD1: B9 FC B8 LDA $B8FC,Y
9FD4: 8D 25 B9 STA $B925
9FD7: 20 DE 95 JSR $95DE
9FDA: 20 3A 66 JSR $663A
9FDD: C9 2C    CMP #$2C
9FDF: F0 05    BEQ $9FE6
9FE1: A2 01    LDX #$01
9FE3: 4C 9F 67 JMP $679F
9FE6: 20 34 66 JSR $6634
9FE9: 48       PHA
9FEA: A9 00    LDA #$00
9FEC: 8D C6 B8 STA $B8C6
9FEF: 68       PLA
9FF0: 20 7A 9B JSR $9B7A
9FF3: AD 08 B8 LDA $B808
9FF6: 8D 03 B8 STA $B803
9FF9: 30 06    BMI $A001
9FFB: 20 8E A4 JSR $A48E
9FFE: 20 D0 7E JSR $7ED0
A001: AD 03 B8 LDA $B803
A004: 10 05    BPL $A00B
A006: A9 22    LDA #$22
A008: 20 1A 73 JSR $731A
A00B: 20 97 79 JSR $7997
A00E: CE C6 B8 DEC $B8C6
A011: AD 03 B8 LDA $B803
A014: 10 05    BPL $A01B
A016: A9 22    LDA #$22
A018: 20 1A 73 JSR $731A
A01B: 20 3A 66 JSR $663A
A01E: D0 35    BNE $A055
A020: AD 0C B8 LDA $B80C
A023: 10 05    BPL $A02A
A025: A9 FF    LDA #$FF
A027: 20 1A 73 JSR $731A
A02A: A9 00    LDA #$00
A02C: 20 1A 73 JSR $731A
A02F: AD 0C B8 LDA $B80C
A032: 10 1B    BPL $A04F
A034: 20 7F 90 JSR $907F
A037: AD 28 B9 LDA $B928
A03A: 0A       ASL
A03B: AA       TAX
A03C: AD 24 B9 LDA $B924
A03F: 9D F5 B8 STA $B8F5,X
A042: 9D FB B8 STA $B8FB,X
A045: AD 25 B9 LDA $B925
A048: 9D F6 B8 STA $B8F6,X
A04B: 9D FC B8 STA $B8FC,X
A04E: 60       RTS
A04F: 20 9C 6F JSR $6F9C
A052: 4C 9A AD JMP $AD9A
A055: C9 2C    CMP #$2C
A057: F0 03    BEQ $A05C
A059: 4C E9 8F JMP $8FE9
A05C: 20 34 66 JSR $6634
A05F: D0 03    BNE $A064
A061: 4C 20 90 JMP $9020
A064: A9 2C    LDA #$2C
A066: 20 1A 73 JSR $731A
A069: A9 00    LDA #$00
A06B: 20 1A 73 JSR $731A
A06E: AD 0C B8 LDA $B80C
A071: 10 06    BPL $A079
A073: 20 7F 90 JSR $907F
A076: 4C E9 8F JMP $8FE9
A079: 20 9C 6F JSR $6F9C
A07C: 4C E9 8F JMP $8FE9
A07F: A5 5E    LDA $5E
A081: 8D 05 B8 STA $B805
A084: A5 5F    LDA $5F
A086: 8D 06 B8 STA $B806
A089: A0 00    LDY #$00
A08B: B9 99 B9 LDA $B999,Y
A08E: F0 06    BEQ $A096
A090: C8       INY
A091: D0 F8    BNE $A08B
A093: 4C A7 90 JMP $90A7
A096: 98       TYA
A097: F0 0E    BEQ $A0A7
A099: 8D 00 B8 STA $B800
A09C: A9 99    LDA #$99
A09E: 85 80    STA $80
A0A0: A9 B9    LDA #$B9
A0A2: 85 81    STA $81
A0A4: 20 7B 96 JSR $967B
A0A7: AD 05 B8 LDA $B805
A0AA: 85 5E    STA $5E
A0AC: AD 06 B8 LDA $B806
A0AF: 85 5F    STA $5F
A0B1: 60       RTS
A0B2: 08       PHP
A0B3: 20 E5 7D JSR $7DE5
A0B6: 28       PLP
A0B7: D0 03    BNE $A0BC
A0B9: 4C 8E 91 JMP $918E
A0BC: C9 23    CMP #$23
A0BE: F0 08    BEQ $A0C8
A0C0: A5 5E    LDA $5E
A0C2: D0 02    BNE $A0C6
A0C4: C6 5F    DEC $5F
A0C6: C6 5E    DEC $5E
A0C8: A9 00    LDA #$00
A0CA: 8D 01 B8 STA $B801
A0CD: 20 C4 85 JSR $85C4
A0D0: 8A       TXA
A0D1: A2 01    LDX #$01
A0D3: C9 04    CMP #$04
A0D5: 90 03    BCC $A0DA
A0D7: 4C 9F 67 JMP $679F
A0DA: C9 01    CMP #$01
A0DC: B0 03    BCS $A0E1
A0DE: 4C 9F 67 JMP $679F
A0E1: AA       TAX
A0E2: CA       DEX
A0E3: 8A       TXA
A0E4: 8E 00 B8 STX $B800
A0E7: 0A       ASL
A0E8: 6D 00 B8 ADC $B800
A0EB: A8       TAY
A0EC: BD F2 B8 LDA $B8F2,X
A0EF: C9 04    CMP #$04
A0F1: F0 03    BEQ $A0F6
A0F3: 4C 8E 91 JMP $918E
A0F6: 8A       TXA
A0F7: 0A       ASL
A0F8: AA       TAX
A0F9: BD EC B8 LDA $B8EC,X
A0FC: D0 03    BNE $A101
A0FE: 4C 8E 91 JMP $918E
A101: B9 01 B9 LDA $B901,Y
A104: 8D 00 B8 STA $B800
A107: C8       INY
A108: B9 01 B9 LDA $B901,Y
A10B: 85 56    STA $56
A10D: B9 02 B9 LDA $B902,Y
A110: 85 57    STA $57
A112: A9 00    LDA #$00
A114: A0 00    LDY #$00
A116: 91 56    STA ($56),Y
A118: C8       INY
A119: CC 00 B8 CPY $B800
A11C: 90 F8    BCC $A116
A11E: 20 3A 66 JSR $663A
A121: C9 2C    CMP #$2C
A123: F0 03    BEQ $A128
A125: 4C 8E 91 JMP $918E
A128: 20 C4 85 JSR $85C4
A12B: 18       CLC
A12C: AD 01 B8 LDA $B801
A12F: 65 73    ADC $73
A131: 8D 01 B8 STA $B801
A134: CD 00 B8 CMP $B800
A137: 90 07    BCC $A140
A139: F0 05    BEQ $A140
A13B: A2 03    LDX #$03
A13D: 4C 9F 67 JMP $679F
A140: 20 3A 66 JSR $663A
A143: C9 41    CMP #$41
A145: F0 03    BEQ $A14A
A147: 4C 8E 91 JMP $918E
A14A: 20 34 66 JSR $6634
A14D: C9 53    CMP #$53
A14F: F0 03    BEQ $A154
A151: 4C 8E 91 JMP $918E
A154: 20 34 66 JSR $6634
A157: 20 D8 96 JSR $96D8
A15A: 2C 08 B8 BIT $B808
A15D: 30 03    BMI $A162
A15F: 4C 8E 91 JMP $918E
A162: 85 5C    STA $5C
A164: 84 5D    STY $5D
A166: A0 00    LDY #$00
A168: A5 73    LDA $73
A16A: 91 5C    STA ($5C),Y
A16C: C8       INY
A16D: A5 56    LDA $56
A16F: 91 5C    STA ($5C),Y
A171: C8       INY
A172: A5 57    LDA $57
A174: 91 5C    STA ($5C),Y
A176: 20 3A 66 JSR $663A
A179: D0 01    BNE $A17C
A17B: 60       RTS
A17C: C9 2C    CMP #$2C
A17E: D0 0E    BNE $A18E
A180: 18       CLC
A181: A5 73    LDA $73
A183: 65 56    ADC $56
A185: 85 56    STA $56
A187: 90 02    BCC $A18B
A189: E6 57    INC $57
A18B: 4C 28 91 JMP $9128
A18E: A2 01    LDX #$01
A190: 4C 9F 67 JMP $679F
A193: A2 21    LDX #$21
A195: 4C 9F 67 JMP $679F
A198: 08       PHP
A199: 20 E5 7D JSR $7DE5
A19C: 28       PLP
A19D: D0 03    BNE $A1A2
A19F: 4C 8E 91 JMP $918E
A1A2: C9 23    CMP #$23
A1A4: F0 08    BEQ $A1AE
A1A6: A5 5E    LDA $5E
A1A8: D0 02    BNE $A1AC
A1AA: C6 5F    DEC $5F
A1AC: C6 5E    DEC $5E
A1AE: 20 C4 85 JSR $85C4
A1B1: E0 04    CPX #$04
A1B3: 90 03    BCC $A1B8
A1B5: 4C 93 91 JMP $9193
A1B8: E0 01    CPX #$01
A1BA: B0 03    BCS $A1BF
A1BC: 4C 93 91 JMP $9193
A1BF: CA       DEX
A1C0: 8A       TXA
A1C1: 8E 28 B9 STX $B928
A1C4: BD F2 B8 LDA $B8F2,X
A1C7: C9 04    CMP #$04
A1C9: F0 03    BEQ $A1CE
A1CB: 4C 8E 91 JMP $918E
A1CE: 8A       TXA
A1CF: 0A       ASL
A1D0: AA       TAX
A1D1: BD EC B8 LDA $B8EC,X
A1D4: D0 03    BNE $A1D9
A1D6: 4C 8E 91 JMP $918E
A1D9: BD EC B8 LDA $B8EC,X
A1DC: 8D 20 B9 STA $B920
A1DF: BD ED B8 LDA $B8ED,X
A1E2: 8D 21 B9 STA $B921
A1E5: BD F5 B8 LDA $B8F5,X
A1E8: 8D 26 B9 STA $B926
A1EB: BD F6 B8 LDA $B8F6,X
A1EE: 8D 27 B9 STA $B927
A1F1: 8A       TXA
A1F2: 18       CLC
A1F3: 6D 28 B9 ADC $B928
A1F6: 8D 00 B8 STA $B800
A1F9: 20 F2 9C JSR $9CF2
A1FC: 20 7A 9B JSR $9B7A
A1FF: AD 08 B8 LDA $B808
A202: 10 03    BPL $A207
A204: 4C 8E 91 JMP $918E
A207: 20 E3 A1 JSR $A1E3
A20A: 20 AC 98 JSR $98AC
A20D: AE 00 B8 LDX $B800
A210: BD 01 B9 LDA $B901,X
A213: 8D 00 B8 STA $B800
A216: E8       INX
A217: BD 01 B9 LDA $B901,X
A21A: 85 6F    STA $6F
A21C: BD 02 B9 LDA $B902,X
A21F: 85 70    STA $70
A221: 20 B4 92 JSR $92B4
A224: A5 72    LDA $72
A226: 05 73    ORA $73
A228: D0 03    BNE $A22D
A22A: 4C 0C 94 JMP $940C
A22D: A5 72    LDA $72
A22F: A6 73    LDX $73
A231: 86 72    STX $72
A233: 85 73    STA $73
A235: A5 72    LDA $72
A237: D0 02    BNE $A23B
A239: C6 73    DEC $73
A23B: C6 72    DEC $72
A23D: A5 72    LDA $72
A23F: 85 80    STA $80
A241: A5 73    LDA $73
A243: 85 81    STA $81
A245: AD 00 B8 LDA $B800
A248: 85 82    STA $82
A24A: 20 3F A9 JSR $A93F
A24D: A5 85    LDA $85
A24F: F0 03    BEQ $A254
A251: 4C 0C 94 JMP $940C
A254: 18       CLC
A255: A5 83    LDA $83
A257: 6D 00 B8 ADC $B800
A25A: 85 80    STA $80
A25C: A5 84    LDA $84
A25E: 69 00    ADC #$00
A260: 85 81    STA $81
A262: A5 81    LDA $81
A264: CD 27 B9 CMP $B927
A267: D0 05    BNE $A26E
A269: A5 80    LDA $80
A26B: CD 26 B9 CMP $B926
A26E: 90 05    BCC $A275
A270: F0 03    BEQ $A275
A272: 4C 0C 94 JMP $940C
A275: A5 83    LDA $83
A277: 8D 24 B9 STA $B924
A27A: A5 84    LDA $84
A27C: 8D 25 B9 STA $B925
A27F: 20 DE 95 JSR $95DE
A282: A5 5E    LDA $5E
A284: 8D 05 B8 STA $B805
A287: A5 5F    LDA $5F
A289: 8D 06 B8 STA $B806
A28C: A9 00    LDA #$00
A28E: 8D 01 B8 STA $B801
A291: 20 04 96 JSR $9604
A294: F0 13    BEQ $A2A9
A296: 20 1A 96 JSR $961A
A299: AC 01 B8 LDY $B801
A29C: 91 6F    STA ($6F),Y
A29E: EE 01 B8 INC $B801
A2A1: AD 01 B8 LDA $B801
A2A4: CD 00 B8 CMP $B800
A2A7: 90 E8    BCC $A291
A2A9: AD 05 B8 LDA $B805
A2AC: 85 5E    STA $5E
A2AE: AD 06 B8 LDA $B806
A2B1: 85 5F    STA $5F
A2B3: 60       RTS
A2B4: A0 00    LDY #$00
A2B6: A9 00    LDA #$00
A2B8: 91 6F    STA ($6F),Y
A2BA: C8       INY
A2BB: CC 00 B8 CPY $B800
A2BE: 90 F8    BCC $A2B8
A2C0: 60       RTS
A2C1: 08       PHP
A2C2: 20 E5 7D JSR $7DE5
A2C5: 28       PLP
A2C6: D0 03    BNE $A2CB
A2C8: 4C 8E 91 JMP $918E
A2CB: C9 23    CMP #$23
A2CD: F0 08    BEQ $A2D7
A2CF: A5 5E    LDA $5E
A2D1: D0 02    BNE $A2D5
A2D3: C6 5F    DEC $5F
A2D5: C6 5E    DEC $5E
A2D7: 20 C4 85 JSR $85C4
A2DA: E0 04    CPX #$04
A2DC: 90 03    BCC $A2E1
A2DE: 4C 8E 91 JMP $918E
A2E1: E0 01    CPX #$01
A2E3: B0 03    BCS $A2E8
A2E5: 4C 8E 91 JMP $918E
A2E8: CA       DEX
A2E9: 8A       TXA
A2EA: 8E 28 B9 STX $B928
A2ED: BD F2 B8 LDA $B8F2,X
A2F0: C9 04    CMP #$04
A2F2: F0 03    BEQ $A2F7
A2F4: 4C 8E 91 JMP $918E
A2F7: 8A       TXA
A2F8: 0A       ASL
A2F9: AA       TAX
A2FA: BD EC B8 LDA $B8EC,X
A2FD: D0 03    BNE $A302
A2FF: 4C 8E 91 JMP $918E
A302: BD EC B8 LDA $B8EC,X
A305: 8D 20 B9 STA $B920
A308: BD ED B8 LDA $B8ED,X
A30B: 8D 21 B9 STA $B921
A30E: BD F5 B8 LDA $B8F5,X
A311: 8D 26 B9 STA $B926
A314: BD F6 B8 LDA $B8F6,X
A317: 8D 27 B9 STA $B927
A31A: 8A       TXA
A31B: 18       CLC
A31C: 6D 28 B9 ADC $B928
A31F: 8D 00 B8 STA $B800
A322: 20 F2 9C JSR $9CF2
A325: 20 7A 9B JSR $9B7A
A328: AD 08 B8 LDA $B808
A32B: 10 03    BPL $A330
A32D: 4C 8E 91 JMP $918E
A330: 20 E3 A1 JSR $A1E3
A333: 20 AC 98 JSR $98AC
A336: AE 00 B8 LDX $B800
A339: BD 01 B9 LDA $B901,X
A33C: 8D 00 B8 STA $B800
A33F: E8       INX
A340: BD 01 B9 LDA $B901,X
A343: 85 6F    STA $6F
A345: BD 02 B9 LDA $B902,X
A348: 85 70    STA $70
A34A: A5 72    LDA $72
A34C: 05 73    ORA $73
A34E: D0 03    BNE $A353
A350: 4C 0C 94 JMP $940C
A353: A5 72    LDA $72
A355: A6 73    LDX $73
A357: 86 72    STX $72
A359: 85 73    STA $73
A35B: A5 72    LDA $72
A35D: D0 02    BNE $A361
A35F: C6 73    DEC $73
A361: C6 72    DEC $72
A363: A5 72    LDA $72
A365: 85 80    STA $80
A367: A5 73    LDA $73
A369: 85 81    STA $81
A36B: AD 00 B8 LDA $B800
A36E: 85 82    STA $82
A370: 20 3F A9 JSR $A93F
A373: A5 85    LDA $85
A375: F0 03    BEQ $A37A
A377: 4C 0C 94 JMP $940C
A37A: A5 84    LDA $84
A37C: CD 27 B9 CMP $B927
A37F: D0 05    BNE $A386
A381: A5 83    LDA $83
A383: CD 26 B9 CMP $B926
A386: F0 05    BEQ $A38D
A388: 90 03    BCC $A38D
A38A: 4C 0C 94 JMP $940C
A38D: 18       CLC
A38E: A5 83    LDA $83
A390: 6D 00 B8 ADC $B800
A393: 85 80    STA $80
A395: A5 84    LDA $84
A397: 69 00    ADC #$00
A399: 85 81    STA $81
A39B: B0 0C    BCS $A3A9
A39D: A5 81    LDA $81
A39F: C9 FF    CMP #$FF
A3A1: D0 04    BNE $A3A7
A3A3: A5 80    LDA $80
A3A5: C9 FE    CMP #$FE
A3A7: 90 05    BCC $A3AE
A3A9: A2 26    LDX #$26
A3AB: 4C 9F 67 JMP $679F
A3AE: A5 83    LDA $83
A3B0: 8D 24 B9 STA $B924
A3B3: A5 84    LDA $84
A3B5: 8D 25 B9 STA $B925
A3B8: 20 DE 95 JSR $95DE
A3BB: A5 5E    LDA $5E
A3BD: 8D 05 B8 STA $B805
A3C0: A5 5F    LDA $5F
A3C2: 8D 06 B8 STA $B806
A3C5: AC 00 B8 LDY $B800
A3C8: B1 6F    LDA ($6F),Y
A3CA: 99 99 B9 STA $B999,Y
A3CD: 88       DEY
A3CE: D0 F8    BNE $A3C8
A3D0: B1 6F    LDA ($6F),Y
A3D2: 99 99 B9 STA $B999,Y
A3D5: A9 99    LDA #$99
A3D7: 85 80    STA $80
A3D9: A9 B9    LDA #$B9
A3DB: 85 81    STA $81
A3DD: 20 7B 96 JSR $967B
A3E0: AD 28 B9 LDA $B928
A3E3: 0A       ASL
A3E4: AA       TAX
A3E5: AD 25 B9 LDA $B925
A3E8: DD F6 B8 CMP $B8F6,X
A3EB: D0 06    BNE $A3F3
A3ED: AD 24 B9 LDA $B924
A3F0: DD F5 B8 CMP $B8F5,X
A3F3: 90 0C    BCC $A401
A3F5: AD 24 B9 LDA $B924
A3F8: 9D F5 B8 STA $B8F5,X
A3FB: AD 25 B9 LDA $B925
A3FE: 9D F6 B8 STA $B8F6,X
A401: AD 05 B8 LDA $B805
A404: 85 5E    STA $5E
A406: AD 06 B8 LDA $B806
A409: 85 5F    STA $5F
A40B: 60       RTS
A40C: A2 20    LDX #$20
A40E: 4C 9F 67 JMP $679F
A411: 20 4F 94 JSR $944F
A414: CD 00 B8 CMP $B800
A417: B0 10    BCS $A429
A419: 8D 00 B8 STA $B800
A41C: A0 00    LDY #$00
A41E: B1 44    LDA ($44),Y
A420: 91 60    STA ($60),Y
A422: C8       INY
A423: CC 00 B8 CPY $B800
A426: 90 F6    BCC $A41E
A428: 60       RTS
A429: ED 00 B8 SBC $B800
A42C: F0 6F    BEQ $A49D
A42E: 8E 00 B8 STX $B800
A431: 8D 01 B8 STA $B801
A434: A0 00    LDY #$00
A436: A9 20    LDA #$20
A438: 91 60    STA ($60),Y
A43A: C8       INY
A43B: CC 01 B8 CPY $B801
A43E: 90 F8    BCC $A438
A440: A5 44    LDA $44
A442: ED 01 B8 SBC $B801
A445: 85 44    STA $44
A447: B0 02    BCS $A44B
A449: C6 45    DEC $45
A44B: 4C 1E 94 JMP $941E
A44E: 60       RTS
A44F: 20 D8 96 JSR $96D8
A452: 85 5C    STA $5C
A454: 84 5D    STY $5D
A456: AD 08 B8 LDA $B808
A459: 30 03    BMI $A45E
A45B: 4C 8E 91 JMP $918E
A45E: A9 D1    LDA #$D1
A460: 20 F4 9C JSR $9CF4
A463: AD 08 B8 LDA $B808
A466: 48       PHA
A467: 20 7A 9B JSR $9B7A
A46A: 68       PLA
A46B: 2A       ROL
A46C: 20 32 7D JSR $7D32
A46F: 20 B6 84 JSR $84B6
A472: 8D 00 B8 STA $B800
A475: A0 01    LDY #$01
A477: B1 5C    LDA ($5C),Y
A479: 85 60    STA $60
A47B: C8       INY
A47C: B1 5C    LDA ($5C),Y
A47E: 85 61    STA $61
A480: A0 00    LDY #$00
A482: B1 5C    LDA ($5C),Y
A484: D0 03    BNE $A489
A486: 68       PLA
A487: 68       PLA
A488: 60       RTS
A489: AA       TAX
A48A: 60       RTS
A48B: 20 4F 94 JSR $944F
A48E: CD 00 B8 CMP $B800
A491: A9 00    LDA #$00
A493: F0 03    BEQ $A498
A495: 90 01    BCC $A498
A497: 8A       TXA
A498: 8D 01 B8 STA $B801
A49B: A0 00    LDY #$00
A49D: B1 44    LDA ($44),Y
A49F: 91 60    STA ($60),Y
A4A1: C8       INY
A4A2: CC 00 B8 CPY $B800
A4A5: 90 F6    BCC $A49D
A4A7: AD 01 B8 LDA $B801
A4AA: D0 01    BNE $A4AD
A4AC: 60       RTS
A4AD: A9 20    LDA #$20
A4AF: 91 60    STA ($60),Y
A4B1: C8       INY
A4B2: CC 01 B8 CPY $B801
A4B5: 90 F8    BCC $A4AF
A4B7: 60       RTS
A4B8: 20 2F 7D JSR $7D2F
A4BB: A9 03    LDA #$03
A4BD: 20 5F 67 JSR $675F
A4C0: A2 99    LDX #$99
A4C2: A0 B9    LDY #$B9
A4C4: 86 7D    STX $7D
A4C6: 84 7E    STY $7E
A4C8: 20 99 A1 JSR $A199
A4CB: 68       PLA
A4CC: 68       PLA
A4CD: A0 05    LDY #$05
A4CF: 20 04 7F JSR $7F04
A4D2: 60       RTS
A4D3: 20 2F 7D JSR $7D2F
A4D6: 20 E3 A1 JSR $A1E3
A4D9: 20 AC 98 JSR $98AC
A4DC: A9 01    LDA #$01
A4DE: 20 5F 67 JSR $675F
A4E1: A0 00    LDY #$00
A4E3: A5 73    LDA $73
A4E5: 99 99 B9 STA $B999,Y
A4E8: C8       INY
A4E9: A5 72    LDA $72
A4EB: 99 99 B9 STA $B999,Y
A4EE: 68       PLA
A4EF: 68       PLA
A4F0: A2 99    LDX #$99
A4F2: A0 B9    LDY #$B9
A4F4: 86 7D    STX $7D
A4F6: 84 7E    STY $7E
A4F8: A0 02    LDY #$02
A4FA: 4C 04 7F JMP $7F04
A4FD: 20 31 7D JSR $7D31
A500: 20 B6 84 JSR $84B6
A503: D0 01    BNE $A506
A505: 60       RTS
A506: C9 05    CMP #$05
A508: F0 05    BEQ $A50F
A50A: A2 01    LDX #$01
A50C: 4C 9F 67 JMP $679F
A50F: A9 00    LDA #$00
A511: 8D 08 B8 STA $B808
A514: 8D 09 B8 STA $B809
A517: A5 44    LDA $44
A519: A4 45    LDY $45
A51B: 20 66 A1 JSR $A166
A51E: 60       RTS
A51F: 20 31 7D JSR $7D31
A522: 20 B6 84 JSR $84B6
A525: D0 01    BNE $A528
A527: 60       RTS
A528: C9 02    CMP #$02
A52A: F0 05    BEQ $A531
A52C: A2 01    LDX #$01
A52E: 4C 9F 67 JMP $679F
A531: A9 00    LDA #$00
A533: 8D 08 B8 STA $B808
A536: A9 80    LDA #$80
A538: 8D 09 B8 STA $B809
A53B: A0 01    LDY #$01
A53D: B1 44    LDA ($44),Y
A53F: AA       TAX
A540: 88       DEY
A541: B1 44    LDA ($44),Y
A543: A8       TAY
A544: 8A       TXA
A545: 4C CF 7D JMP $7DCF
A548: 08       PHP
A549: 20 E5 7D JSR $7DE5
A54C: 28       PLP
A54D: 20 2F 7D JSR $7D2F
A550: 20 E3 A1 JSR $A1E3
A553: 20 AC 98 JSR $98AC
A556: A5 72    LDA $72
A558: F0 03    BEQ $A55D
A55A: 4C 93 91 JMP $9193
A55D: A5 73    LDA $73
A55F: C9 04    CMP #$04
A561: 90 03    BCC $A566
A563: 4C 93 91 JMP $9193
A566: C9 01    CMP #$01
A568: B0 03    BCS $A56D
A56A: 4C 93 91 JMP $9193
A56D: E9 01    SBC #$01
A56F: AA       TAX
A570: BD F2 B8 LDA $B8F2,X
A573: C9 04    CMP #$04
A575: F0 03    BEQ $A57A
A577: 4C D9 95 JMP $95D9
A57A: 8A       TXA
A57B: 0A       ASL
A57C: AA       TAX
A57D: BD F5 B8 LDA $B8F5,X
A580: A8       TAY
A581: BD F6 B8 LDA $B8F6,X
A584: 85 70    STA $70
A586: 84 71    STY $71
A588: 4C 22 A2 JMP $A222
A58B: 08       PHP
A58C: 20 E5 7D JSR $7DE5
A58F: 28       PLP
A590: 20 2F 7D JSR $7D2F
A593: 20 E3 A1 JSR $A1E3
A596: 20 AC 98 JSR $98AC
A599: A5 72    LDA $72
A59B: F0 03    BEQ $A5A0
A59D: 4C 93 91 JMP $9193
A5A0: A5 73    LDA $73
A5A2: C9 04    CMP #$04
A5A4: 90 03    BCC $A5A9
A5A6: 4C 93 91 JMP $9193
A5A9: C9 01    CMP #$01
A5AB: B0 03    BCS $A5B0
A5AD: 4C 93 91 JMP $9193
A5B0: E9 01    SBC #$01
A5B2: AA       TAX
A5B3: BD F2 B8 LDA $B8F2,X
A5B6: C9 01    CMP #$01
A5B8: F0 03    BEQ $A5BD
A5BA: 4C D9 95 JMP $95D9
A5BD: 8A       TXA
A5BE: 0A       ASL
A5BF: AA       TAX
A5C0: A0 00    LDY #$00
A5C2: BD FB B8 LDA $B8FB,X
A5C5: DD F5 B8 CMP $B8F5,X
A5C8: D0 06    BNE $A5D0
A5CA: BD FC B8 LDA $B8FC,X
A5CD: DD F6 B8 CMP $B8F6,X
A5D0: D0 02    BNE $A5D4
A5D2: A0 01    LDY #$01
A5D4: A9 00    LDA #$00
A5D6: 4C CF 7D JMP $7DCF
A5D9: A2 22    LDX #$22
A5DB: 20 9F 67 JSR $679F
A5DE: AD 20 B9 LDA $B920
A5E1: 38       SEC
A5E2: E9 01    SBC #$01
A5E4: 8D C8 08 STA $08C8
A5E7: A9 00    LDA #$00
A5E9: 8D D1 08 STA $08D1
A5EC: AD 24 B9 LDA $B924
A5EF: 8D CD 08 STA $08CD
A5F2: AD 25 B9 LDA $B925
A5F5: 8D CE 08 STA $08CE
A5F8: A9 00    LDA #$00
A5FA: 8D CF 08 STA $08CF
A5FD: 8D D0 08 STA $08D0
A600: 00 19 05 INT $0519
A603: 60       RTS
A604: AD 25 B9 LDA $B925
A607: CD 27 B9 CMP $B927
A60A: D0 06    BNE $A612
A60C: AD 24 B9 LDA $B924
A60F: CD 26 B9 CMP $B926
A612: B0 03    BCS $A617
A614: A9 FF    LDA #$FF
A616: 60       RTS
A617: A9 00    LDA #$00
A619: 60       RTS
A61A: 20 31 96 JSR $9631
A61D: EE 24 B9 INC $B924
A620: D0 03    BNE $A625
A622: EE 25 B9 INC $B925
A625: 4C 6D 96 JMP $966D
A628: 20 31 96 JSR $9631
A62B: 20 DE 95 JSR $95DE
A62E: 4C 6D 96 JMP $966D
A631: AD 25 B9 LDA $B925
A634: CD 27 B9 CMP $B927
A637: D0 06    BNE $A63F
A639: AD 24 B9 LDA $B924
A63C: CD 26 B9 CMP $B926
A63F: 90 06    BCC $A647
A641: A9 FF    LDA #$FF
A643: 8D 2A B9 STA $B92A
A646: 60       RTS
A647: AD 20 B9 LDA $B920
A64A: 38       SEC
A64B: E9 01    SBC #$01
A64D: 8D C8 08 STA $08C8
A650: A9 2A    LDA #$2A
A652: 85 E0    STA $E0
A654: A9 B9    LDA #$B9
A656: 85 E1    STA $E1
A658: A9 01    LDA #$01
A65A: 8D C6 08 STA $08C6
A65D: A9 00    LDA #$00
A65F: 8D C7 08 STA $08C7
A662: 00 16 05 INT $0516
A665: A2 16    LDX #$16
A667: 90 03    BCC $A66C
A669: 4C 9F 67 JMP $679F
A66C: 60       RTS
A66D: AD 2A B9 LDA $B92A
A670: C9 3A    CMP #$3A
A672: B0 06    BCS $A67A
A674: 38       SEC
A675: E9 30    SBC #$30
A677: 38       SEC
A678: E9 D0    SBC #$D0
A67A: 60       RTS
A67B: AD 00 B8 LDA $B800
A67E: 2C A9 01 BIT $01A9
A681: 8D C6 08 STA $08C6
A684: 18       CLC
A685: 6D 24 B9 ADC $B924
A688: 8D 24 B9 STA $B924
A68B: 90 05    BCC $A692
A68D: EE 25 B9 INC $B925
A690: F0 0E    BEQ $A6A0
A692: AD 25 B9 LDA $B925
A695: C9 FF    CMP #$FF
A697: D0 05    BNE $A69E
A699: AD 24 B9 LDA $B924
A69C: C9 FE    CMP #$FE
A69E: 90 05    BCC $A6A5
A6A0: A2 26    LDX #$26
A6A2: 4C 9F 67 JMP $679F
A6A5: AD 20 B9 LDA $B920
A6A8: 38       SEC
A6A9: E9 01    SBC #$01
A6AB: 8D C8 08 STA $08C8
A6AE: A5 80    LDA $80
A6B0: 85 E0    STA $E0
A6B2: A5 81    LDA $81
A6B4: 85 E1    STA $E1
A6B6: A9 00    LDA #$00
A6B8: 8D C7 08 STA $08C7
A6BB: 00 18 05 INT $0518
A6BE: B0 01    BCS $A6C1
A6C0: 60       RTS
A6C1: AD CC 08 LDA $08CC
A6C4: A2 17    LDX #$17
A6C6: C9 0E    CMP #$0E
A6C8: D0 02    BNE $A6CC
A6CA: A2 12    LDX #$12
A6CC: 4C 9F 67 JMP $679F
A6CF: 4C 42 77 JMP $7742
A6D2: 4C 42 77 JMP $7742
A6D5: 4C 42 77 JMP $7742
A6D8: A2 00    LDX #$00
A6DA: 8A       TXA
A6DB: 8E 07 B8 STX $B807
A6DE: 85 58    STA $58
A6E0: A5 5E    LDA $5E
A6E2: 8D 1A B8 STA $B81A
A6E5: A5 5F    LDA $5F
A6E7: 8D 1B B8 STA $B81B
A6EA: 20 3A 66 JSR $663A
A6ED: 20 43 9B JSR $9B43
A6F0: B0 03    BCS $A6F5
A6F2: 4C FD 9C JMP $9CFD
A6F5: A0 00    LDY #$00
A6F7: 8C 08 B8 STY $B808
A6FA: 8C 09 B8 STY $B809
A6FD: 20 58 9B JSR $9B58
A700: 88       DEY
A701: 98       TYA
A702: 88       DEY
A703: 84 59    STY $59
A705: 18       CLC
A706: 65 5E    ADC $5E
A708: 85 5E    STA $5E
A70A: 90 02    BCC $A70E
A70C: E6 5F    INC $5F
A70E: 20 34 66 JSR $6634
A711: 90 FB    BCC $A70E
A713: 20 43 9B JSR $9B43
A716: B0 F6    BCS $A70E
A718: C9 24    CMP #$24
A71A: D0 07    BNE $A723
A71C: A9 FF    LDA #$FF
A71E: 8D 08 B8 STA $B808
A721: D0 11    BNE $A734
A723: C9 25    CMP #$25
A725: D0 10    BNE $A737
A727: AD 0B B8 LDA $B80B
A72A: 10 03    BPL $A72F
A72C: 4C FD 9C JMP $9CFD
A72F: A9 80    LDA #$80
A731: 8D 09 B8 STA $B809
A734: 20 34 66 JSR $6634
A737: 38       SEC
A738: 0D 0B B8 ORA $B80B
A73B: E9 28    SBC #$28
A73D: D0 03    BNE $A742
A73F: 4C C1 98 JMP $98C1
A742: 2C 0B B8 BIT $B80B
A745: 30 05    BMI $A74C
A747: 50 03    BVC $A74C
A749: 4C C1 98 JMP $98C1
A74C: A5 58    LDA $58
A74E: 8D 0B B8 STA $B80B
A751: 20 2E 9B JSR $9B2E
A754: A5 5E    LDA $5E
A756: D0 02    BNE $A75A
A758: C6 5F    DEC $5F
A75A: C6 5E    DEC $5E
A75C: AD C9 B8 LDA $B8C9
A75F: AE CA B8 LDX $B8CA
A762: 86 69    STX $69
A764: 85 68    STA $68
A766: A0 00    LDY #$00
A768: CD CD B8 CMP $B8CD
A76B: D0 07    BNE $A774
A76D: A5 69    LDA $69
A76F: CD CE B8 CMP $B8CE
A772: F0 65    BEQ $A7D9
A774: A2 07    LDX #$07
A776: 8E 02 B8 STX $B802
A779: B1 68    LDA ($68),Y
A77B: 0A       ASL
A77C: 10 1B    BPL $A799
A77E: B0 0D    BCS $A78D
A780: A2 05    LDX #$05
A782: 8E 02 B8 STX $B802
A785: AE 08 B8 LDX $B808
A788: E8       INX
A789: D0 3A    BNE $A7C5
A78B: F0 1F    BEQ $A7AC
A78D: A2 04    LDX #$04
A78F: 8E 02 B8 STX $B802
A792: AE 09 B8 LDX $B809
A795: 10 2E    BPL $A7C5
A797: 30 13    BMI $A7AC
A799: B0 0C    BCS $A7A7
A79B: AE 08 B8 LDX $B808
A79E: D0 25    BNE $A7C5
A7A0: AE 09 B8 LDX $B809
A7A3: 30 20    BMI $A7C5
A7A5: 10 05    BPL $A7AC
A7A7: AE 0B B8 LDX $B80B
A7AA: 10 19    BPL $A7C5
A7AC: B1 68    LDA ($68),Y
A7AE: 29 0F    AND #$0F
A7B0: 85 58    STA $58
A7B2: C5 59    CMP $59
A7B4: D0 17    BNE $A7CD
A7B6: AA       TAX
A7B7: C8       INY
A7B8: B9 DB B8 LDA $B8DB,Y
A7BB: D1 68    CMP ($68),Y
A7BD: D0 06    BNE $A7C5
A7BF: CA       DEX
A7C0: 10 F5    BPL $A7B7
A7C2: 4C 63 98 JMP $9863
A7C5: A0 00    LDY #$00
A7C7: B1 68    LDA ($68),Y
A7C9: 29 0F    AND #$0F
A7CB: 85 58    STA $58
A7CD: 18       CLC
A7CE: 6D 02 B8 ADC $B802
A7D1: 65 68    ADC $68
A7D3: 90 8F    BCC $A764
A7D5: E6 69    INC $69
A7D7: D0 8B    BNE $A764
A7D9: A4 59    LDY $59
A7DB: 84 58    STY $58
A7DD: C8       INY
A7DE: C8       INY
A7DF: 84 59    STY $59
A7E1: A9 05    LDA #$05
A7E3: AE 0B B8 LDX $B80B
A7E6: 30 10    BMI $A7F8
A7E8: AE 09 B8 LDX $B809
A7EB: 10 04    BPL $A7F1
A7ED: A9 02    LDA #$02
A7EF: D0 07    BNE $A7F8
A7F1: AE 08 B8 LDX $B808
A7F4: F0 02    BEQ $A7F8
A7F6: A9 03    LDA #$03
A7F8: 8D 02 B8 STA $B802
A7FB: AD CD B8 LDA $B8CD
A7FE: AC CE B8 LDY $B8CE
A801: 85 68    STA $68
A803: 84 69    STY $69
A805: AD CB B8 LDA $B8CB
A808: AC CC B8 LDY $B8CC
A80B: 85 63    STA $63
A80D: 84 64    STY $64
A80F: 18       CLC
A810: A5 59    LDA $59
A812: 6D 02 B8 ADC $B802
A815: 8D 02 B8 STA $B802
A818: 65 63    ADC $63
A81A: 90 01    BCC $A81D
A81C: C8       INY
A81D: 85 61    STA $61
A81F: 84 62    STY $62
A821: 20 1A 67 JSR $671A
A824: A5 61    LDA $61
A826: A4 62    LDY $62
A828: C8       INY
A829: 8D CD B8 STA $B8CD
A82C: 8C CE B8 STY $B8CE
A82F: A0 00    LDY #$00
A831: AD 0B B8 LDA $B80B
A834: 10 04    BPL $A83A
A836: A9 80    LDA #$80
A838: D0 10    BNE $A84A
A83A: AD 08 B8 LDA $B808
A83D: F0 04    BEQ $A843
A83F: A9 40    LDA #$40
A841: D0 07    BNE $A84A
A843: AD 09 B8 LDA $B809
A846: 10 02    BPL $A84A
A848: A9 C0    LDA #$C0
A84A: 05 58    ORA $58
A84C: 91 68    STA ($68),Y
A84E: C8       INY
A84F: B9 DB B8 LDA $B8DB,Y
A852: 91 68    STA ($68),Y
A854: C8       INY
A855: C4 59    CPY $59
A857: 90 F6    BCC $A84F
A859: A9 00    LDA #$00
A85B: 91 68    STA ($68),Y
A85D: C8       INY
A85E: CC 02 B8 CPY $B802
A861: 90 F8    BCC $A85B
A863: A6 58    LDX $58
A865: E8       INX
A866: E8       INX
A867: 8A       TXA
A868: 18       CLC
A869: 65 68    ADC $68
A86B: A4 69    LDY $69
A86D: 90 01    BCC $A870
A86F: C8       INY
A870: 85 58    STA $58
A872: 84 59    STY $59
A874: AE 1A B8 LDX $B81A
A877: 86 5E    STX $5E
A879: AE 1B B8 LDX $B81B
A87C: 86 5F    STX $5F
A87E: A2 00    LDX #$00
A880: 8E 0B B8 STX $B80B
A883: 60       RTS
A884: A5 58    LDA $58
A886: 18       CLC
A887: 69 05    ADC #$05
A889: 85 59    STA $59
A88B: AD 02 B8 LDA $B802
A88E: 0A       ASL
A88F: 65 59    ADC $59
A891: 65 68    ADC $68
A893: A4 69    LDY $69
A895: 90 01    BCC $A898
A897: C8       INY
A898: 85 61    STA $61
A89A: 84 62    STY $62
A89C: 60       RTS
A89D: 90 80    BCC $A81F
A89F: 00 00 00 INT $0000
A8A2: 20 34 66 JSR $6634
A8A5: 20 2C 7D JSR $7D2C
A8A8: A5 74    LDA $74
A8AA: 30 0D    BMI $A8B9
A8AC: A5 6F    LDA $6F
A8AE: C9 90    CMP #$90
A8B0: 90 0C    BCC $A8BE
A8B2: A9 9D    LDA #$9D
A8B4: A0 98    LDY #$98
A8B6: 20 3A A2 JSR $A23A
A8B9: F0 03    BEQ $A8BE
A8BB: 4C 99 99 JMP $9999
A8BE: 4C 7B A2 JMP $A27B
A8C1: AD 0B B8 LDA $B80B
A8C4: D0 63    BNE $A929
A8C6: AD 07 B8 LDA $B807
A8C9: 0D 09 B8 ORA $B809
A8CC: 48       PHA
A8CD: AD 08 B8 LDA $B808
A8D0: 48       PHA
A8D1: A0 00    LDY #$00
A8D3: A9 03    LDA #$03
A8D5: 20 5F 67 JSR $675F
A8D8: 98       TYA
A8D9: 48       PHA
A8DA: AD 1A B8 LDA $B81A
A8DD: 48       PHA
A8DE: AD 1B B8 LDA $B81B
A8E1: 48       PHA
A8E2: A5 59    LDA $59
A8E4: 48       PHA
A8E5: 20 A2 98 JSR $98A2
A8E8: 68       PLA
A8E9: 85 59    STA $59
A8EB: 68       PLA
A8EC: 8D 1B B8 STA $B81B
A8EF: 68       PLA
A8F0: 8D 1A B8 STA $B81A
A8F3: 68       PLA
A8F4: A8       TAY
A8F5: BA       TSX
A8F6: BD 02 01 LDA $0102,X
A8F9: 48       PHA
A8FA: BD 01 01 LDA $0101,X
A8FD: 48       PHA
A8FE: A5 72    LDA $72
A900: 9D 02 01 STA $0102,X
A903: A5 73    LDA $73
A905: 9D 01 01 STA $0101,X
A908: C8       INY
A909: 98       TYA
A90A: 48       PHA
A90B: 20 3A 66 JSR $663A
A90E: AA       TAX
A90F: 68       PLA
A910: A8       TAY
A911: 8A       TXA
A912: C9 2C    CMP #$2C
A914: F0 BD    BEQ $A8D3
A916: 8C 02 B8 STY $B802
A919: 20 EC 9C JSR $9CEC
A91C: 68       PLA
A91D: 8D 08 B8 STA $B808
A920: 68       PLA
A921: 8D 09 B8 STA $B809
A924: 29 7F    AND #$7F
A926: 8D 07 B8 STA $B807
A929: 20 2E 9B JSR $9B2E
A92C: 20 58 9B JSR $9B58
A92F: A5 5E    LDA $5E
A931: D0 02    BNE $A935
A933: C6 5F    DEC $5F
A935: C6 5E    DEC $5E
A937: AE CD B8 LDX $B8CD
A93A: AD CE B8 LDA $B8CE
A93D: 86 68    STX $68
A93F: 85 69    STA $69
A941: CD CC B8 CMP $B8CC
A944: D0 05    BNE $A94B
A946: EC CB B8 CPX $B8CB
A949: F0 7E    BEQ $A9C9
A94B: A0 00    LDY #$00
A94D: B1 68    LDA ($68),Y
A94F: 29 0F    AND #$0F
A951: 85 58    STA $58
A953: C5 59    CMP $59
A955: D0 2E    BNE $A985
A957: AA       TAX
A958: B1 68    LDA ($68),Y
A95A: 30 0F    BMI $A96B
A95C: 0A       ASL
A95D: 30 13    BMI $A972
A95F: AD 08 B8 LDA $B808
A962: D0 21    BNE $A985
A964: AD 09 B8 LDA $B809
A967: 30 1C    BMI $A985
A969: 10 0C    BPL $A977
A96B: AD 09 B8 LDA $B809
A96E: 10 15    BPL $A985
A970: 30 05    BMI $A977
A972: AD 08 B8 LDA $B808
A975: F0 0E    BEQ $A985
A977: C8       INY
A978: B9 DB B8 LDA $B8DB,Y
A97B: D1 68    CMP ($68),Y
A97D: D0 06    BNE $A985
A97F: CA       DEX
A980: 10 F5    BPL $A977
A982: 4C 9E 99 JMP $999E
A985: A4 58    LDY $58
A987: C8       INY
A988: C8       INY
A989: B1 68    LDA ($68),Y
A98B: 18       CLC
A98C: 65 68    ADC $68
A98E: AA       TAX
A98F: C8       INY
A990: B1 68    LDA ($68),Y
A992: 65 69    ADC $69
A994: 90 A7    BCC $A93D
A996: A2 08    LDX #$08
A998: 2C A2 04 BIT $04A2
A99B: 4C 9F 67 JMP $679F
A99E: A2 09    LDX #$09
A9A0: AD 07 B8 LDA $B807
A9A3: D0 F6    BNE $A99B
A9A5: AD 0B B8 LDA $B80B
A9A8: F0 0C    BEQ $A9B6
A9AA: AE 1A B8 LDX $B81A
A9AD: 86 5E    STX $5E
A9AF: AE 1B B8 LDX $B81B
A9B2: 86 5F    STX $5F
A9B4: 38       SEC
A9B5: 60       RTS
A9B6: 20 84 98 JSR $9884
A9B9: A4 58    LDY $58
A9BB: C8       INY
A9BC: C8       INY
A9BD: C8       INY
A9BE: C8       INY
A9BF: AD 02 B8 LDA $B802
A9C2: D1 68    CMP ($68),Y
A9C4: D0 D0    BNE $A996
A9C6: 4C 80 9A JMP $9A80
A9C9: A4 59    LDY $59
A9CB: 84 58    STY $58
A9CD: AD 0B B8 LDA $B80B
A9D0: F0 05    BEQ $A9D7
A9D2: A2 03    LDX #$03
A9D4: 4C 9F 67 JMP $679F
A9D7: 20 84 98 JSR $9884
A9DA: 20 6C 67 JSR $676C
A9DD: A9 00    LDA #$00
A9DF: A8       TAY
A9E0: 85 53    STA $53
A9E2: AE 08 B8 LDX $B808
A9E5: D0 0F    BNE $A9F6
A9E7: AE 09 B8 LDX $B809
A9EA: 30 04    BMI $A9F0
A9EC: A2 05    LDX #$05
A9EE: D0 0A    BNE $A9FA
A9F0: A2 02    LDX #$02
A9F2: A9 C0    LDA #$C0
A9F4: D0 04    BNE $A9FA
A9F6: A2 03    LDX #$03
A9F8: A9 40    LDA #$40
A9FA: 86 52    STX $52
A9FC: 05 58    ORA $58
A9FE: 91 68    STA ($68),Y
AA00: A6 58    LDX $58
AA02: C8       INY
AA03: B9 DB B8 LDA $B8DB,Y
AA06: 91 68    STA ($68),Y
AA08: CA       DEX
AA09: 10 F7    BPL $AA02
AA0B: AD 02 B8 LDA $B802
AA0E: C8       INY
AA0F: C8       INY
AA10: C8       INY
AA11: 91 68    STA ($68),Y
AA13: A2 0B    LDX #$0B
AA15: A9 00    LDA #$00
AA17: 2C 07 B8 BIT $B807
AA1A: 50 08    BVC $AA24
AA1C: 68       PLA
AA1D: 18       CLC
AA1E: 69 01    ADC #$01
AA20: AA       TAX
AA21: 68       PLA
AA22: 69 00    ADC #$00
AA24: C8       INY
AA25: 91 68    STA ($68),Y
AA27: C8       INY
AA28: 8A       TXA
AA29: 91 68    STA ($68),Y
AA2B: 20 F6 9A JSR $9AF6
AA2E: 86 52    STX $52
AA30: 85 53    STA $53
AA32: A4 44    LDY $44
AA34: CE 02 B8 DEC $B802
AA37: D0 DA    BNE $AA13
AA39: 65 62    ADC $62
AA3B: B0 65    BCS $AAA2
AA3D: 85 62    STA $62
AA3F: A8       TAY
AA40: 8A       TXA
AA41: 65 61    ADC $61
AA43: 90 03    BCC $AA48
AA45: C8       INY
AA46: F0 5A    BEQ $AAA2
AA48: 20 6C 67 JSR $676C
AA4B: 8D CB B8 STA $B8CB
AA4E: 8C CC B8 STY $B8CC
AA51: A9 00    LDA #$00
AA53: E6 53    INC $53
AA55: A4 52    LDY $52
AA57: F0 05    BEQ $AA5E
AA59: 88       DEY
AA5A: 91 61    STA ($61),Y
AA5C: D0 FB    BNE $AA59
AA5E: C6 62    DEC $62
AA60: C6 53    DEC $53
AA62: D0 F5    BNE $AA59
AA64: E6 62    INC $62
AA66: 38       SEC
AA67: AD CB B8 LDA $B8CB
AA6A: E5 68    SBC $68
AA6C: A4 58    LDY $58
AA6E: C8       INY
AA6F: C8       INY
AA70: 91 68    STA ($68),Y
AA72: AD CC B8 LDA $B8CC
AA75: C8       INY
AA76: E5 69    SBC $69
AA78: 91 68    STA ($68),Y
AA7A: AD 07 B8 LDA $B807
AA7D: D0 64    BNE $AAE3
AA7F: C8       INY
AA80: B1 68    LDA ($68),Y
AA82: 8D 02 B8 STA $B802
AA85: A9 00    LDA #$00
AA87: 85 52    STA $52
AA89: 85 53    STA $53
AA8B: C8       INY
AA8C: 68       PLA
AA8D: AA       TAX
AA8E: 85 72    STA $72
AA90: 68       PLA
AA91: 85 73    STA $73
AA93: D1 68    CMP ($68),Y
AA95: 90 0E    BCC $AAA5
AA97: D0 06    BNE $AA9F
AA99: C8       INY
AA9A: 8A       TXA
AA9B: D1 68    CMP ($68),Y
AA9D: 90 07    BCC $AAA6
AA9F: 4C 96 99 JMP $9996
AAA2: 4C 9D 67 JMP $679D
AAA5: C8       INY
AAA6: A5 53    LDA $53
AAA8: 05 52    ORA $52
AAAA: 18       CLC
AAAB: F0 0A    BEQ $AAB7
AAAD: 20 F6 9A JSR $9AF6
AAB0: 8A       TXA
AAB1: 65 72    ADC $72
AAB3: AA       TAX
AAB4: 98       TYA
AAB5: A4 44    LDY $44
AAB7: 65 73    ADC $73
AAB9: 86 52    STX $52
AABB: CE 02 B8 DEC $B802
AABE: D0 C9    BNE $AA89
AAC0: 85 53    STA $53
AAC2: A2 05    LDX #$05
AAC4: AD 08 B8 LDA $B808
AAC7: D0 25    BNE $AAEE
AAC9: AD 09 B8 LDA $B809
AACC: 30 24    BMI $AAF2
AACE: 8E 4A B9 STX $B94A
AAD1: A9 00    LDA #$00
AAD3: 20 00 9B JSR $9B00
AAD6: 8A       TXA
AAD7: 65 61    ADC $61
AAD9: 85 58    STA $58
AADB: 98       TYA
AADC: 65 62    ADC $62
AADE: 85 59    STA $59
AAE0: A8       TAY
AAE1: A5 58    LDA $58
AAE3: AE 1A B8 LDX $B81A
AAE6: 86 5E    STX $5E
AAE8: AE 1B B8 LDX $B81B
AAEB: 86 5F    STX $5F
AAED: 60       RTS
AAEE: A2 03    LDX #$03
AAF0: D0 DC    BNE $AACE
AAF2: A2 02    LDX #$02
AAF4: D0 D8    BNE $AACE
AAF6: 84 44    STY $44
AAF8: B1 68    LDA ($68),Y
AAFA: 8D 4A B9 STA $B94A
AAFD: 88       DEY
AAFE: B1 68    LDA ($68),Y
AB00: 8D 4B B9 STA $B94B
AB03: A9 10    LDA #$10
AB05: 85 66    STA $66
AB07: A2 00    LDX #$00
AB09: A0 00    LDY #$00
AB0B: 8A       TXA
AB0C: 0A       ASL
AB0D: AA       TAX
AB0E: 98       TYA
AB0F: 2A       ROL
AB10: A8       TAY
AB11: B0 8F    BCS $AAA2
AB13: 06 52    ASL $52
AB15: 26 53    ROL $53
AB17: 90 10    BCC $AB29
AB19: 18       CLC
AB1A: 8A       TXA
AB1B: 6D 4A B9 ADC $B94A
AB1E: AA       TAX
AB1F: 98       TYA
AB20: 6D 4B B9 ADC $B94B
AB23: A8       TAY
AB24: 90 03    BCC $AB29
AB26: 4C A2 9A JMP $9AA2
AB29: C6 66    DEC $66
AB2B: D0 DE    BNE $AB0B
AB2D: 60       RTS
AB2E: A6 5E    LDX $5E
AB30: AD 1A B8 LDA $B81A
AB33: 8E 1A B8 STX $B81A
AB36: 85 5E    STA $5E
AB38: A6 5F    LDX $5F
AB3A: AD 1B B8 LDA $B81B
AB3D: 8E 1B B8 STX $B81B
AB40: 85 5F    STA $5F
AB42: 60       RTS
AB43: C9 41    CMP #$41
AB45: 90 05    BCC $AB4C
AB47: E9 5B    SBC #$5B
AB49: 38       SEC
AB4A: E9 A5    SBC #$A5
AB4C: 60       RTS
AB4D: C9 3A    CMP #$3A
AB4F: B0 06    BCS $AB57
AB51: 38       SEC
AB52: E9 30    SBC #$30
AB54: 38       SEC
AB55: E9 D0    SBC #$D0
AB57: 60       RTS
AB58: A0 00    LDY #$00
AB5A: A5 5E    LDA $5E
AB5C: D0 02    BNE $AB60
AB5E: C6 5F    DEC $5F
AB60: C6 5E    DEC $5E
AB62: 4C 68 9B JMP $9B68
AB65: 99 DB B8 STA $B8DB,Y
AB68: C8       INY
AB69: C0 11    CPY #$11
AB6B: F0 0C    BEQ $AB79
AB6D: B1 5E    LDA ($5E),Y
AB6F: 20 4D 9B JSR $9B4D
AB72: 90 F1    BCC $AB65
AB74: 20 43 9B JSR $9B43
AB77: B0 EC    BCS $AB65
AB79: 60       RTS
AB7A: A6 5E    LDX $5E
AB7C: D0 02    BNE $AB80
AB7E: C6 5F    DEC $5F
AB80: C6 5E    DEC $5E
AB82: A2 00    LDX #$00
AB84: 24 48    BIT $48
AB86: 8A       TXA
AB87: 48       PHA
AB88: A9 09    LDA #$09
AB8A: 20 5F 67 JSR $675F
AB8D: 20 82 9C JSR $9C82
AB90: A9 00    LDA #$00
AB92: 8D 03 B8 STA $B803
AB95: 20 3A 66 JSR $663A
AB98: 38       SEC
AB99: E9 D0    SBC #$D0
AB9B: 90 30    BCC $ABCD
AB9D: C9 03    CMP #$03
AB9F: B0 2C    BCS $ABCD
ABA1: AA       TAX
ABA2: AD 03 B8 LDA $B803
ABA5: 29 02    AND #$02
ABA7: D0 18    BNE $ABC1
ABA9: AD 03 B8 LDA $B803
ABAC: 4A       LSR
ABAD: 90 04    BCC $ABB3
ABAF: E0 02    CPX #$02
ABB1: F0 0E    BEQ $ABC1
ABB3: 8A       TXA
ABB4: C9 01    CMP #$01
ABB6: 2A       ROL
ABB7: 49 01    EOR #$01
ABB9: 4D 03 B8 EOR $B803
ABBC: CD 03 B8 CMP $B803
ABBF: B0 03    BCS $ABC4
ABC1: 4C FD 9C JMP $9CFD
ABC4: 8D 03 B8 STA $B803
ABC7: 20 34 66 JSR $6634
ABCA: 4C 98 9B JMP $9B98
ABCD: AE 03 B8 LDX $B803
ABD0: D0 32    BNE $AC04
ABD2: 90 03    BCC $ABD7
ABD4: 4C 55 9C JMP $9C55
ABD7: 69 07    ADC #$07
ABD9: 90 7A    BCC $AC55
ABDB: 6D 08 B8 ADC $B808
ABDE: D0 03    BNE $ABE3
ABE0: 4C 4D 84 JMP $844D
ABE3: 69 FF    ADC #$FF
ABE5: 85 44    STA $44
ABE7: 0A       ASL
ABE8: 65 44    ADC $44
ABEA: A8       TAY
ABEB: 68       PLA
ABEC: D9 71 9D CMP $9D71,Y
ABEF: B0 69    BCS $AC5A
ABF1: 20 2F 7D JSR $7D2F
ABF4: 48       PHA
ABF5: 20 1F 9C JSR $9C1F
ABF8: 68       PLA
ABF9: AC 05 B8 LDY $B805
ABFC: 10 1A    BPL $AC18
ABFE: AA       TAX
ABFF: D0 63    BNE $AC64
AC01: 4C 7F 9C JMP $9C7F
AC04: 4E 08 B8 LSR $B808
AC07: 8A       TXA
AC08: 2A       ROL
AC09: A6 5E    LDX $5E
AC0B: D0 02    BNE $AC0F
AC0D: C6 5F    DEC $5F
AC0F: C6 5E    DEC $5E
AC11: A0 1B    LDY #$1B
AC13: 8D 03 B8 STA $B803
AC16: D0 D3    BNE $ABEB
AC18: D9 71 9D CMP $9D71,Y
AC1B: B0 47    BCS $AC64
AC1D: 90 D5    BCC $ABF4
AC1F: B9 73 9D LDA $9D73,Y
AC22: 48       PHA
AC23: B9 72 9D LDA $9D72,Y
AC26: 48       PHA
AC27: 20 30 9C JSR $9C30
AC2A: AD 03 B8 LDA $B803
AC2D: 4C 85 9B JMP $9B85
AC30: A5 74    LDA $74
AC32: BE 71 9D LDX $9D71,Y
AC35: A8       TAY
AC36: 68       PLA
AC37: 85 44    STA $44
AC39: E6 44    INC $44
AC3B: 68       PLA
AC3C: 85 45    STA $45
AC3E: 98       TYA
AC3F: 48       PHA
AC40: 20 E3 A1 JSR $A1E3
AC43: A5 73    LDA $73
AC45: 48       PHA
AC46: A5 72    LDA $72
AC48: 48       PHA
AC49: A5 71    LDA $71
AC4B: 48       PHA
AC4C: A5 70    LDA $70
AC4E: 48       PHA
AC4F: A5 6F    LDA $6F
AC51: 48       PHA
AC52: 6C 44 00 JMP ($0044)
AC55: A0 FF    LDY #$FF
AC57: 68       PLA
AC58: F0 25    BEQ $AC7F
AC5A: C9 64    CMP #$64
AC5C: F0 03    BEQ $AC61
AC5E: 20 2F 7D JSR $7D2F
AC61: 8C 05 B8 STY $B805
AC64: 68       PLA
AC65: 4A       LSR
AC66: 8D 0D B8 STA $B80D
AC69: 68       PLA
AC6A: 85 77    STA $77
AC6C: 68       PLA
AC6D: 85 78    STA $78
AC6F: 68       PLA
AC70: 85 79    STA $79
AC72: 68       PLA
AC73: 85 7A    STA $7A
AC75: 68       PLA
AC76: 85 7B    STA $7B
AC78: 68       PLA
AC79: 85 7C    STA $7C
AC7B: 45 74    EOR $74
AC7D: 85 7D    STA $7D
AC7F: A5 6F    LDA $6F
AC81: 60       RTS
AC82: A9 00    LDA #$00
AC84: 8D 08 B8 STA $B808
AC87: 20 34 66 JSR $6634
AC8A: B0 04    BCS $AC90
AC8C: 20 93 A3 JSR $A393
AC8F: 60       RTS
AC90: 20 43 9B JSR $9B43
AC93: 90 03    BCC $AC98
AC95: 4C 09 9D JMP $9D09
AC98: C9 2E    CMP #$2E
AC9A: F0 F0    BEQ $AC8C
AC9C: C9 CA    CMP #$CA
AC9E: D0 03    BNE $ACA3
ACA0: 4C 02 9D JMP $9D02
ACA3: C9 C9    CMP #$C9
ACA5: F0 E0    BEQ $AC87
ACA7: C9 22    CMP #$22
ACA9: D0 0F    BNE $ACBA
ACAB: A5 5E    LDA $5E
ACAD: A4 5F    LDY $5F
ACAF: 69 00    ADC #$00
ACB1: 90 01    BCC $ACB4
ACB3: C8       INY
ACB4: 20 D0 7E JSR $7ED0
ACB7: 4C 02 86 JMP $8602
ACBA: C9 C7    CMP #$C7
ACBC: D0 10    BNE $ACCE
ACBE: A0 18    LDY #$18
ACC0: D0 42    BNE $AD04
ACC2: A5 6F    LDA $6F
ACC4: D0 03    BNE $ACC9
ACC6: A0 01    LDY #$01
ACC8: 2C A0 00 BIT $00A0
ACCB: 4C E0 7D JMP $7DE0
ACCE: C9 A5    CMP #$A5
ACD0: D0 06    BNE $ACD8
ACD2: 20 34 66 JSR $6634
ACD5: 4C 01 85 JMP $8501
ACD8: C9 C2    CMP #$C2
ACDA: D0 03    BNE $ACDF
ACDC: 4C 3D 7E JMP $7E3D
ACDF: C9 D3    CMP #$D3
ACE1: 90 03    BCC $ACE6
ACE3: 4C 30 9D JMP $9D30
ACE6: 20 EF 9C JSR $9CEF
ACE9: 20 7A 9B JSR $9B7A
ACEC: A9 29    LDA #$29
ACEE: 2C A9 28 BIT $28A9
ACF1: 2C A9 2C BIT $2CA9
ACF4: A0 00    LDY #$00
ACF6: D1 5E    CMP ($5E),Y
ACF8: D0 03    BNE $ACFD
ACFA: 4C 34 66 JMP $6634
ACFD: A2 01    LDX #$01
ACFF: 4C 9F 67 JMP $679F
AD02: A0 15    LDY #$15
AD04: 68       PLA
AD05: 68       PLA
AD06: 4C F5 9B JMP $9BF5
AD09: 20 D8 96 JSR $96D8
AD0C: 85 72    STA $72
AD0E: 84 73    STY $73
AD10: AE 08 B8 LDX $B808
AD13: F0 06    BEQ $AD1B
AD15: A2 00    LDX #$00
AD17: 8E 0E B8 STX $B80E
AD1A: 60       RTS
AD1B: AE 09 B8 LDX $B809
AD1E: 30 03    BMI $AD23
AD20: 4C 66 A1 JMP $A166
AD23: A0 00    LDY #$00
AD25: B1 72    LDA ($72),Y
AD27: AA       TAX
AD28: C8       INY
AD29: B1 72    LDA ($72),Y
AD2B: A8       TAY
AD2C: 8A       TXA
AD2D: 4C CF 7D JMP $7DCF
AD30: 0A       ASL
AD31: 48       PHA
AD32: AA       TAX
AD33: 20 34 66 JSR $6634
AD36: E0 D5    CPX #$D5
AD38: 90 20    BCC $AD5A
AD3A: 20 EF 9C JSR $9CEF
AD3D: 20 7A 9B JSR $9B7A
AD40: 20 F2 9C JSR $9CF2
AD43: 20 31 7D JSR $7D31
AD46: 68       PLA
AD47: AA       TAX
AD48: A5 73    LDA $73
AD4A: 48       PHA
AD4B: A5 72    LDA $72
AD4D: 48       PHA
AD4E: 8A       TXA
AD4F: 48       PHA
AD50: 20 C7 85 JSR $85C7
AD53: 68       PLA
AD54: A8       TAY
AD55: 8A       TXA
AD56: 48       PHA
AD57: 4C 5F 9D JMP $9D5F
AD5A: 20 E6 9C JSR $9CE6
AD5D: 68       PLA
AD5E: A8       TAY
AD5F: B9 9D 61 LDA $619D,Y
AD62: 8D 5F B9 STA $B95F
AD65: B9 9E 61 LDA $619E,Y
AD68: 8D 60 B9 STA $B960
AD6B: 20 5E B9 JSR $B95E
AD6E: 4C 2F 7D JMP $7D2F
AD71: 79 AF 9D ADC $9DAF,Y
AD74: 79 98 9D ADC $9D98,Y
AD77: 7B       ??
AD78: CB       ??
AD79: 9F       ??
AD7A: 7B       ??
AD7B: C4 A0    CPY $A0
AD7D: 7D F0 A5 ADC $A5F0,X
AD80: 50 46    BVC $ADC8
AD82: 7D 46 40 ADC $4046,X
AD85: 7D 7F 2A ADC $2A7F,X
AD88: A6 7F    LDX $7F
AD8A: C1 9C    CMP ($9C,X)
AD8C: 64       ??
AD8D: 56 7D    LSR $7D,X
AD8F: A9 BE    LDA #$BE
AD91: A0 A5    LDY #$A5
AD93: 4C AD 9D JMP $9DAD
AD96: 20 3F A0 JSR $A03F
AD99: A5 74    LDA $74
AD9B: 49 FF    EOR #$FF
AD9D: 85 74    STA $74
AD9F: 45 7C    EOR $7C
ADA1: 85 7D    STA $7D
ADA3: A5 6F    LDA $6F
ADA5: 4C B0 9D JMP $9DB0
ADA8: 20 39 9F JSR $9F39
ADAB: 90 42    BCC $ADEF
ADAD: 20 3F A0 JSR $A03F
ADB0: D0 03    BNE $ADB5
ADB2: 4C C2 A1 JMP $A1C2
ADB5: AE 0E B8 LDX $B80E
ADB8: 8E 60 B9 STX $B960
ADBB: A2 77    LDX #$77
ADBD: A5 77    LDA $77
ADBF: A8       TAY
ADC0: D0 01    BNE $ADC3
ADC2: 60       RTS
ADC3: 38       SEC
ADC4: E5 6F    SBC $6F
ADC6: F0 27    BEQ $ADEF
ADC8: 90 13    BCC $ADDD
ADCA: 84 6F    STY $6F
ADCC: A4 7C    LDY $7C
ADCE: 84 74    STY $74
ADD0: 49 FF    EOR #$FF
ADD2: 69 00    ADC #$00
ADD4: A0 00    LDY #$00
ADD6: 8C 60 B9 STY $B960
ADD9: A2 6F    LDX #$6F
ADDB: D0 05    BNE $ADE2
ADDD: A0 00    LDY #$00
ADDF: 8C 0E B8 STY $B80E
ADE2: C9 F9    CMP #$F9
ADE4: 30 C2    BMI $ADA8
ADE6: A8       TAY
ADE7: AD 0E B8 LDA $B80E
ADEA: 56 01    LSR $01,X
ADEC: 20 51 9F JSR $9F51
ADEF: 24 7D    BIT $7D
ADF1: 10 5B    BPL $AE4E
ADF3: A0 6F    LDY #$6F
ADF5: E0 77    CPX #$77
ADF7: F0 02    BEQ $ADFB
ADF9: A0 77    LDY #$77
ADFB: 38       SEC
ADFC: 49 FF    EOR #$FF
ADFE: 6D 60 B9 ADC $B960
AE01: 8D 0E B8 STA $B80E
AE04: B9 04 00 LDA $0004,Y
AE07: F5 04    SBC $04,X
AE09: 85 73    STA $73
AE0B: B9 03 00 LDA $0003,Y
AE0E: F5 03    SBC $03,X
AE10: 85 72    STA $72
AE12: B9 02 00 LDA $0002,Y
AE15: F5 02    SBC $02,X
AE17: 85 71    STA $71
AE19: B9 01 00 LDA $0001,Y
AE1C: F5 01    SBC $01,X
AE1E: 85 70    STA $70
AE20: B0 03    BCS $AE25
AE22: 20 9B 9E JSR $9E9B
AE25: A0 00    LDY #$00
AE27: 98       TYA
AE28: 18       CLC
AE29: A6 70    LDX $70
AE2B: D0 4F    BNE $AE7C
AE2D: A6 71    LDX $71
AE2F: 86 70    STX $70
AE31: A6 72    LDX $72
AE33: 86 71    STX $71
AE35: A6 73    LDX $73
AE37: 86 72    STX $72
AE39: AE 0E B8 LDX $B80E
AE3C: 86 73    STX $73
AE3E: 8C 0E B8 STY $B80E
AE41: 69 08    ADC #$08
AE43: C9 20    CMP #$20
AE45: D0 E2    BNE $AE29
AE47: A9 00    LDA #$00
AE49: 85 6F    STA $6F
AE4B: 85 74    STA $74
AE4D: 60       RTS
AE4E: 6D 60 B9 ADC $B960
AE51: 8D 0E B8 STA $B80E
AE54: A5 73    LDA $73
AE56: 65 7B    ADC $7B
AE58: 85 73    STA $73
AE5A: A5 72    LDA $72
AE5C: 65 7A    ADC $7A
AE5E: 85 72    STA $72
AE60: A5 71    LDA $71
AE62: 65 79    ADC $79
AE64: 85 71    STA $71
AE66: A5 70    LDA $70
AE68: 65 78    ADC $78
AE6A: 85 70    STA $70
AE6C: 4C 89 9E JMP $9E89
AE6F: 69 01    ADC #$01
AE71: 0E 0E B8 ASL $B80E
AE74: 26 73    ROL $73
AE76: 26 72    ROL $72
AE78: 26 71    ROL $71
AE7A: 26 70    ROL $70
AE7C: 10 F1    BPL $AE6F
AE7E: 38       SEC
AE7F: E5 6F    SBC $6F
AE81: B0 C4    BCS $AE47
AE83: 49 FF    EOR #$FF
AE85: 69 01    ADC #$01
AE87: 85 6F    STA $6F
AE89: 90 0F    BCC $AE9A
AE8B: E6 6F    INC $6F
AE8D: F0 46    BEQ $AED5
AE8F: 66 70    ROR $70
AE91: 66 71    ROR $71
AE93: 66 72    ROR $72
AE95: 66 73    ROR $73
AE97: 6E 0E B8 ROR $B80E
AE9A: 60       RTS
AE9B: A5 74    LDA $74
AE9D: 49 FF    EOR #$FF
AE9F: 85 74    STA $74
AEA1: A5 70    LDA $70
AEA3: 49 FF    EOR #$FF
AEA5: 85 70    STA $70
AEA7: A5 71    LDA $71
AEA9: 49 FF    EOR #$FF
AEAB: 85 71    STA $71
AEAD: A5 72    LDA $72
AEAF: 49 FF    EOR #$FF
AEB1: 85 72    STA $72
AEB3: A5 73    LDA $73
AEB5: 49 FF    EOR #$FF
AEB7: 85 73    STA $73
AEB9: AD 0E B8 LDA $B80E
AEBC: 49 FF    EOR #$FF
AEBE: 8D 0E B8 STA $B80E
AEC1: EE 0E B8 INC $B80E
AEC4: D0 0E    BNE $AED4
AEC6: E6 73    INC $73
AEC8: D0 0A    BNE $AED4
AECA: E6 72    INC $72
AECC: D0 06    BNE $AED4
AECE: E6 71    INC $71
AED0: D0 02    BNE $AED4
AED2: E6 70    INC $70
AED4: 60       RTS
AED5: A2 05    LDX #$05
AED7: 4C 9F 67 JMP $679F
AEDA: AC 4B B9 LDY $B94B
AEDD: 8C 0E B8 STY $B80E
AEE0: AC 4A B9 LDY $B94A
AEE3: 8C 4B B9 STY $B94B
AEE6: AC 49 B9 LDY $B949
AEE9: 8C 4A B9 STY $B94A
AEEC: AC 48 B9 LDY $B948
AEEF: 8C 49 B9 STY $B949
AEF2: AC 4D B9 LDY $B94D
AEF5: 8C 48 B9 STY $B948
AEF8: 69 08    ADC #$08
AEFA: 30 DE    BMI $AEDA
AEFC: F0 DC    BEQ $AEDA
AEFE: E9 08    SBC #$08
AF00: A8       TAY
AF01: AD 0E B8 LDA $B80E
AF04: B0 1B    BCS $AF21
AF06: 0E 48 B9 ASL $B948
AF09: 90 03    BCC $AF0E
AF0B: EE 48 B9 INC $B948
AF0E: 6E 48 B9 ROR $B948
AF11: 6E 48 B9 ROR $B948
AF14: 6E 49 B9 ROR $B949
AF17: 6E 4A B9 ROR $B94A
AF1A: 6E 4B B9 ROR $B94B
AF1D: 6A       ROR
AF1E: C8       INY
AF1F: D0 E5    BNE $AF06
AF21: 18       CLC
AF22: 60       RTS
AF23: B4 04    LDY $04,X
AF25: 8C 0E B8 STY $B80E
AF28: B4 03    LDY $03,X
AF2A: 94 04    STY $04,X
AF2C: B4 02    LDY $02,X
AF2E: 94 03    STY $03,X
AF30: B4 01    LDY $01,X
AF32: 94 02    STY $02,X
AF34: AC 4D B9 LDY $B94D
AF37: 94 01    STY $01,X
AF39: 69 08    ADC #$08
AF3B: 30 E6    BMI $AF23
AF3D: F0 E4    BEQ $AF23
AF3F: E9 08    SBC #$08
AF41: A8       TAY
AF42: AD 0E B8 LDA $B80E
AF45: B0 14    BCS $AF5B
AF47: 16 01    ASL $01,X
AF49: 90 02    BCC $AF4D
AF4B: F6 01    INC $01,X
AF4D: 76 01    ROR $01,X
AF4F: 76 01    ROR $01,X
AF51: 76 02    ROR $02,X
AF53: 76 03    ROR $03,X
AF55: 76 04    ROR $04,X
AF57: 6A       ROR
AF58: C8       INY
AF59: D0 EC    BNE $AF47
AF5B: 18       CLC
AF5C: 60       RTS
AF5D: 81 00    STA ($00,X)
AF5F: 00 00 00 INT $0000
AF62: 03       ??
AF63: 7F       ??
AF64: 5E 56 CB LSR $CB56,X
AF67: 79 80 13 ADC $1380,Y
AF6A: 9B       ??
AF6B: 0B       ??
AF6C: 64       ??
AF6D: 80       ??
AF6E: 76 38    ROR $38,X
AF70: 93       ??
AF71: 16 82    ASL $82,X
AF73: 38       SEC
AF74: AA       TAX
AF75: 3B       ??
AF76: 20 80 35 JSR $3580
AF79: 04       ??
AF7A: F3       ??
AF7B: 34       ??
AF7C: 81 35    STA ($35,X)
AF7E: 04       ??
AF7F: F3       ??
AF80: 34       ??
AF81: 80       ??
AF82: 80       ??
AF83: 00 00 00 INT $0000
AF86: 80       ??
AF87: 31 72    AND ($72),Y
AF89: 17       ??
AF8A: F8       SED
AF8B: 20 F4 A1 JSR $A1F4
AF8E: F0 02    BEQ $AF92
AF90: 10 03    BPL $AF95
AF92: 4C 99 99 JMP $9999
AF95: A5 6F    LDA $6F
AF97: E9 7F    SBC #$7F
AF99: 48       PHA
AF9A: A9 80    LDA #$80
AF9C: 85 6F    STA $6F
AF9E: A9 77    LDA #$77
AFA0: A0 9F    LDY #$9F
AFA2: 20 AD 9D JSR $9DAD
AFA5: A9 7C    LDA #$7C
AFA7: A0 9F    LDY #$9F
AFA9: 20 C2 A0 JSR $A0C2
AFAC: A9 5D    LDA #$5D
AFAE: A0 9F    LDY #$9F
AFB0: 20 96 9D JSR $9D96
AFB3: A9 62    LDA #$62
AFB5: A0 9F    LDY #$9F
AFB7: 20 BC A6 JSR $A6BC
AFBA: A9 81    LDA #$81
AFBC: A0 9F    LDY #$9F
AFBE: 20 AD 9D JSR $9DAD
AFC1: 68       PLA
AFC2: 20 2D A4 JSR $A42D
AFC5: A9 86    LDA #$86
AFC7: A0 9F    LDY #$9F
AFC9: 20 3F A0 JSR $A03F
AFCC: D0 03    BNE $AFD1
AFCE: 4C 3E A0 JMP $A03E
AFD1: 20 6A A0 JSR $A06A
AFD4: A9 00    LDA #$00
AFD6: 8D 48 B9 STA $B948
AFD9: 8D 49 B9 STA $B949
AFDC: 8D 4A B9 STA $B94A
AFDF: 8D 4B B9 STA $B94B
AFE2: AD 0E B8 LDA $B80E
AFE5: 20 FF 9F JSR $9FFF
AFE8: A5 73    LDA $73
AFEA: 20 FF 9F JSR $9FFF
AFED: A5 72    LDA $72
AFEF: 20 FF 9F JSR $9FFF
AFF2: A5 71    LDA $71
AFF4: 20 FF 9F JSR $9FFF
AFF7: A5 70    LDA $70
AFF9: 20 04 A0 JSR $A004
AFFC: 4C 4F A1 JMP $A14F
AFFF: D0 03    BNE $B004
B001: 4C DA 9E JMP $9EDA
B004: 4A       LSR
B005: 09 80    ORA #$80
B007: A8       TAY
B008: 90 21    BCC $B02B
B00A: 18       CLC
B00B: AD 4B B9 LDA $B94B
B00E: 65 7B    ADC $7B
B010: 8D 4B B9 STA $B94B
B013: AD 4A B9 LDA $B94A
B016: 65 7A    ADC $7A
B018: 8D 4A B9 STA $B94A
B01B: AD 49 B9 LDA $B949
B01E: 65 79    ADC $79
B020: 8D 49 B9 STA $B949
B023: AD 48 B9 LDA $B948
B026: 65 78    ADC $78
B028: 8D 48 B9 STA $B948
B02B: 6E 48 B9 ROR $B948
B02E: 6E 49 B9 ROR $B949
B031: 6E 4A B9 ROR $B94A
B034: 6E 4B B9 ROR $B94B
B037: 6E 0E B8 ROR $B80E
B03A: 98       TYA
B03B: 4A       LSR
B03C: D0 C9    BNE $B007
B03E: 60       RTS
B03F: 85 44    STA $44
B041: 84 45    STY $45
B043: A0 04    LDY #$04
B045: B1 44    LDA ($44),Y
B047: 85 7B    STA $7B
B049: 88       DEY
B04A: B1 44    LDA ($44),Y
B04C: 85 7A    STA $7A
B04E: 88       DEY
B04F: B1 44    LDA ($44),Y
B051: 85 79    STA $79
B053: 88       DEY
B054: B1 44    LDA ($44),Y
B056: 85 7C    STA $7C
B058: 45 74    EOR $74
B05A: 85 7D    STA $7D
B05C: A5 7C    LDA $7C
B05E: 09 80    ORA #$80
B060: 85 78    STA $78
B062: 88       DEY
B063: B1 44    LDA ($44),Y
B065: 85 77    STA $77
B067: A5 6F    LDA $6F
B069: 60       RTS
B06A: A5 77    LDA $77
B06C: F0 1F    BEQ $B08D
B06E: 18       CLC
B06F: 65 6F    ADC $6F
B071: 90 04    BCC $B077
B073: 30 1D    BMI $B092
B075: 18       CLC
B076: 2C 10 14 BIT $1410
B079: 69 80    ADC #$80
B07B: 85 6F    STA $6F
B07D: D0 03    BNE $B082
B07F: 4C 4B 9E JMP $9E4B
B082: A5 7D    LDA $7D
B084: 85 74    STA $74
B086: 60       RTS
B087: A5 74    LDA $74
B089: 49 FF    EOR #$FF
B08B: 30 05    BMI $B092
B08D: 68       PLA
B08E: 68       PLA
B08F: 4C 47 9E JMP $9E47
B092: 4C D5 9E JMP $9ED5
B095: 20 D3 A1 JSR $A1D3
B098: AA       TAX
B099: F0 10    BEQ $B0AB
B09B: 18       CLC
B09C: 69 02    ADC #$02
B09E: B0 F2    BCS $B092
B0A0: A2 00    LDX #$00
B0A2: 86 7D    STX $7D
B0A4: 20 BF 9D JSR $9DBF
B0A7: E6 6F    INC $6F
B0A9: F0 E7    BEQ $B092
B0AB: 60       RTS
B0AC: 84 20    STY $20
B0AE: 00 00 00 INT $0000
B0B1: 20 D3 A1 JSR $A1D3
B0B4: A9 AC    LDA #$AC
B0B6: A0 A0    LDY #$A0
B0B8: A2 00    LDX #$00
B0BA: 86 7D    STX $7D
B0BC: 20 66 A1 JSR $A166
B0BF: 4C C5 A0 JMP $A0C5
B0C2: 20 3F A0 JSR $A03F
B0C5: D0 03    BNE $B0CA
B0C7: 4C 4A A1 JMP $A14A
B0CA: 20 E3 A1 JSR $A1E3
B0CD: A9 00    LDA #$00
B0CF: 38       SEC
B0D0: E5 6F    SBC $6F
B0D2: 85 6F    STA $6F
B0D4: 20 6A A0 JSR $A06A
B0D7: E6 6F    INC $6F
B0D9: F0 B7    BEQ $B092
B0DB: A2 FC    LDX #$FC
B0DD: A9 01    LDA #$01
B0DF: A4 78    LDY $78
B0E1: C4 70    CPY $70
B0E3: D0 10    BNE $B0F5
B0E5: A4 79    LDY $79
B0E7: C4 71    CPY $71
B0E9: D0 0A    BNE $B0F5
B0EB: A4 7A    LDY $7A
B0ED: C4 72    CPY $72
B0EF: D0 04    BNE $B0F5
B0F1: A4 7B    LDY $7B
B0F3: C4 73    CPY $73
B0F5: 08       PHP
B0F6: 2A       ROL
B0F7: 90 12    BCC $B10B
B0F9: E8       INX
B0FA: 10 06    BPL $B102
B0FC: 9D 4B B8 STA $B84B,X
B0FF: 4C 05 A1 JMP $A105
B102: 9D 4B B9 STA $B94B,X
B105: F0 32    BEQ $B139
B107: 10 34    BPL $B13D
B109: A9 01    LDA #$01
B10B: 28       PLP
B10C: B0 0E    BCS $B11C
B10E: 06 7B    ASL $7B
B110: 26 7A    ROL $7A
B112: 26 79    ROL $79
B114: 26 78    ROL $78
B116: B0 DD    BCS $B0F5
B118: 30 C5    BMI $B0DF
B11A: 10 D9    BPL $B0F5
B11C: A8       TAY
B11D: A5 7B    LDA $7B
B11F: E5 73    SBC $73
B121: 85 7B    STA $7B
B123: A5 7A    LDA $7A
B125: E5 72    SBC $72
B127: 85 7A    STA $7A
B129: A5 79    LDA $79
B12B: E5 71    SBC $71
B12D: 85 79    STA $79
B12F: A5 78    LDA $78
B131: E5 70    SBC $70
B133: 85 78    STA $78
B135: 98       TYA
B136: 4C 0E A1 JMP $A10E
B139: A9 40    LDA #$40
B13B: D0 CE    BNE $B10B
B13D: 0A       ASL
B13E: 0A       ASL
B13F: 0A       ASL
B140: 0A       ASL
B141: 0A       ASL
B142: 0A       ASL
B143: 8D 0E B8 STA $B80E
B146: 28       PLP
B147: 4C 4F A1 JMP $A14F
B14A: A2 0A    LDX #$0A
B14C: 4C 9F 67 JMP $679F
B14F: AD 48 B9 LDA $B948
B152: 85 70    STA $70
B154: AD 49 B9 LDA $B949
B157: 85 71    STA $71
B159: AD 4A B9 LDA $B94A
B15C: 85 72    STA $72
B15E: AD 4B B9 LDA $B94B
B161: 85 73    STA $73
B163: 4C 25 9E JMP $9E25
B166: 85 44    STA $44
B168: 84 45    STY $45
B16A: A0 04    LDY #$04
B16C: B1 44    LDA ($44),Y
B16E: 85 73    STA $73
B170: 88       DEY
B171: B1 44    LDA ($44),Y
B173: 85 72    STA $72
B175: 88       DEY
B176: B1 44    LDA ($44),Y
B178: 85 71    STA $71
B17A: 88       DEY
B17B: B1 44    LDA ($44),Y
B17D: 85 74    STA $74
B17F: 09 80    ORA #$80
B181: 85 70    STA $70
B183: 88       DEY
B184: B1 44    LDA ($44),Y
B186: 85 6F    STA $6F
B188: 8C 0E B8 STY $B80E
B18B: 60       RTS
B18C: A2 65    LDX #$65
B18E: 2C A2 60 BIT $60A2
B191: A0 00    LDY #$00
B193: F0 04    BEQ $B199
B195: A6 5C    LDX $5C
B197: A4 5D    LDY $5D
B199: 20 E3 A1 JSR $A1E3
B19C: 86 44    STX $44
B19E: 84 45    STY $45
B1A0: A0 04    LDY #$04
B1A2: A5 73    LDA $73
B1A4: 91 44    STA ($44),Y
B1A6: 88       DEY
B1A7: A5 72    LDA $72
B1A9: 91 44    STA ($44),Y
B1AB: 88       DEY
B1AC: A5 71    LDA $71
B1AE: 91 44    STA ($44),Y
B1B0: 88       DEY
B1B1: A5 74    LDA $74
B1B3: 09 7F    ORA #$7F
B1B5: 25 70    AND $70
B1B7: 91 44    STA ($44),Y
B1B9: 88       DEY
B1BA: A5 6F    LDA $6F
B1BC: 91 44    STA ($44),Y
B1BE: 8C 0E B8 STY $B80E
B1C1: 60       RTS
B1C2: A5 7C    LDA $7C
B1C4: 85 74    STA $74
B1C6: A2 05    LDX #$05
B1C8: B5 76    LDA $76,X
B1CA: 95 6E    STA $6E,X
B1CC: CA       DEX
B1CD: D0 F9    BNE $B1C8
B1CF: 8E 0E B8 STX $B80E
B1D2: 60       RTS
B1D3: 20 E3 A1 JSR $A1E3
B1D6: A2 06    LDX #$06
B1D8: B5 6E    LDA $6E,X
B1DA: 95 76    STA $76,X
B1DC: CA       DEX
B1DD: D0 F9    BNE $B1D8
B1DF: 8E 0E B8 STX $B80E
B1E2: 60       RTS
B1E3: A5 6F    LDA $6F
B1E5: F0 FB    BEQ $B1E2
B1E7: 0E 0E B8 ASL $B80E
B1EA: 90 F6    BCC $B1E2
B1EC: 20 C6 9E JSR $9EC6
B1EF: D0 F1    BNE $B1E2
B1F1: 4C 8B 9E JMP $9E8B
B1F4: A5 6F    LDA $6F
B1F6: F0 09    BEQ $B201
B1F8: A5 74    LDA $74
B1FA: 2A       ROL
B1FB: A9 FF    LDA #$FF
B1FD: B0 02    BCS $B201
B1FF: A9 01    LDA #$01
B201: 60       RTS
B202: 20 F4 A1 JSR $A1F4
B205: 85 70    STA $70
B207: A9 00    LDA #$00
B209: 85 71    STA $71
B20B: A2 88    LDX #$88
B20D: A5 70    LDA $70
B20F: 49 FF    EOR #$FF
B211: 2A       ROL
B212: A9 00    LDA #$00
B214: 85 73    STA $73
B216: 85 72    STA $72
B218: 86 6F    STX $6F
B21A: 8D 0E B8 STA $B80E
B21D: 85 74    STA $74
B21F: 4C 20 9E JMP $9E20
B222: A9 91    LDA #$91
B224: 85 6F    STA $6F
B226: A9 00    LDA #$00
B228: 85 72    STA $72
B22A: 85 73    STA $73
B22C: 85 74    STA $74
B22E: 46 70    LSR $70
B230: 66 71    ROR $71
B232: 66 72    ROR $72
B234: 4C 25 9E JMP $9E25
B237: 46 74    LSR $74
B239: 60       RTS
B23A: 85 46    STA $46
B23C: 84 47    STY $47
B23E: A0 00    LDY #$00
B240: B1 46    LDA ($46),Y
B242: C8       INY
B243: AA       TAX
B244: F0 AE    BEQ $B1F4
B246: B1 46    LDA ($46),Y
B248: 45 74    EOR $74
B24A: 30 AC    BMI $B1F8
B24C: E4 6F    CPX $6F
B24E: D0 22    BNE $B272
B250: B1 46    LDA ($46),Y
B252: 09 80    ORA #$80
B254: C5 70    CMP $70
B256: D0 1A    BNE $B272
B258: C8       INY
B259: B1 46    LDA ($46),Y
B25B: C5 71    CMP $71
B25D: D0 13    BNE $B272
B25F: C8       INY
B260: B1 46    LDA ($46),Y
B262: C5 72    CMP $72
B264: D0 0C    BNE $B272
B266: C8       INY
B267: A9 7F    LDA #$7F
B269: CD 0E B8 CMP $B80E
B26C: B1 46    LDA ($46),Y
B26E: E5 73    SBC $73
B270: F0 2A    BEQ $B29C
B272: A5 74    LDA $74
B274: 90 02    BCC $B278
B276: 49 FF    EOR #$FF
B278: 4C FA A1 JMP $A1FA
B27B: A5 6F    LDA $6F
B27D: F0 4F    BEQ $B2CE
B27F: 38       SEC
B280: E9 A0    SBC #$A0
B282: 24 74    BIT $74
B284: 10 0A    BPL $B290
B286: AA       TAX
B287: A9 FF    LDA #$FF
B289: 8D 4D B9 STA $B94D
B28C: 20 A1 9E JSR $9EA1
B28F: 8A       TXA
B290: A2 6F    LDX #$6F
B292: C9 F9    CMP #$F9
B294: 10 07    BPL $B29D
B296: 20 39 9F JSR $9F39
B299: 8C 4D B9 STY $B94D
B29C: 60       RTS
B29D: A8       TAY
B29E: A5 74    LDA $74
B2A0: 29 80    AND #$80
B2A2: 46 70    LSR $70
B2A4: 05 70    ORA $70
B2A6: 85 70    STA $70
B2A8: 20 51 9F JSR $9F51
B2AB: 8C 4D B9 STY $B94D
B2AE: 60       RTS
B2AF: A5 6F    LDA $6F
B2B1: C9 A0    CMP #$A0
B2B3: B0 22    BCS $B2D7
B2B5: 20 7B A2 JSR $A27B
B2B8: 8C 0E B8 STY $B80E
B2BB: A5 74    LDA $74
B2BD: 84 74    STY $74
B2BF: 49 80    EOR #$80
B2C1: 2A       ROL
B2C2: A9 A0    LDA #$A0
B2C4: 85 6F    STA $6F
B2C6: A5 73    LDA $73
B2C8: 8D 00 B8 STA $B800
B2CB: 4C 20 9E JMP $9E20
B2CE: 85 70    STA $70
B2D0: 85 71    STA $71
B2D2: 85 72    STA $72
B2D4: 85 73    STA $73
B2D6: A8       TAY
B2D7: 60       RTS
B2D8: A0 00    LDY #$00
B2DA: A2 03    LDX #$03
B2DC: 94 66    STY $66,X
B2DE: CA       DEX
B2DF: 10 FB    BPL $B2DC
B2E1: A2 06    LDX #$06
B2E3: 94 6F    STY $6F,X
B2E5: CA       DEX
B2E6: 10 FB    BPL $B2E3
B2E8: 90 17    BCC $B301
B2EA: C9 2D    CMP #$2D
B2EC: F0 04    BEQ $B2F2
B2EE: C9 CA    CMP #$CA
B2F0: D0 04    BNE $B2F6
B2F2: 86 75    STX $75
B2F4: F0 08    BEQ $B2FE
B2F6: C9 2B    CMP #$2B
B2F8: F0 04    BEQ $B2FE
B2FA: C9 C9    CMP #$C9
B2FC: D0 05    BNE $B303
B2FE: 20 1A 96 JSR $961A
B301: 90 5B    BCC $B35E
B303: C9 2E    CMP #$2E
B305: F0 2E    BEQ $B335
B307: C9 45    CMP #$45
B309: D0 30    BNE $B33B
B30B: 20 1A 96 JSR $961A
B30E: 90 17    BCC $B327
B310: C9 CA    CMP #$CA
B312: F0 0E    BEQ $B322
B314: C9 2D    CMP #$2D
B316: F0 0A    BEQ $B322
B318: C9 C9    CMP #$C9
B31A: F0 08    BEQ $B324
B31C: C9 2B    CMP #$2B
B31E: F0 04    BEQ $B324
B320: D0 07    BNE $B329
B322: 66 69    ROR $69
B324: 20 1A 96 JSR $961A
B327: 90 49    BCC $B372
B329: 24 69    BIT $69
B32B: 10 0E    BPL $B33B
B32D: A9 00    LDA #$00
B32F: 38       SEC
B330: E5 67    SBC $67
B332: 4C 3D A3 JMP $A33D
B335: 66 68    ROR $68
B337: 24 68    BIT $68
B339: 50 C3    BVC $B2FE
B33B: A5 67    LDA $67
B33D: 38       SEC
B33E: E5 66    SBC $66
B340: 85 67    STA $67
B342: F0 12    BEQ $B356
B344: 10 09    BPL $B34F
B346: 20 B1 A0 JSR $A0B1
B349: E6 67    INC $67
B34B: D0 F9    BNE $B346
B34D: F0 07    BEQ $B356
B34F: 20 95 A0 JSR $A095
B352: C6 67    DEC $67
B354: D0 F9    BNE $B34F
B356: A5 75    LDA $75
B358: 30 01    BMI $B35B
B35A: 60       RTS
B35B: 4C 2B A6 JMP $A62B
B35E: 48       PHA
B35F: 24 68    BIT $68
B361: 10 02    BPL $B365
B363: E6 66    INC $66
B365: 20 95 A0 JSR $A095
B368: 68       PLA
B369: 38       SEC
B36A: E9 30    SBC #$30
B36C: 20 2D A4 JSR $A42D
B36F: 4C FE A2 JMP $A2FE
B372: A5 67    LDA $67
B374: C9 0A    CMP #$0A
B376: 90 09    BCC $B381
B378: A9 64    LDA #$64
B37A: 24 69    BIT $69
B37C: 30 10    BMI $B38E
B37E: 4C D5 9E JMP $9ED5
B381: 0A       ASL
B382: 0A       ASL
B383: 18       CLC
B384: 65 67    ADC $67
B386: 0A       ASL
B387: 18       CLC
B388: 6D 2A B9 ADC $B92A
B38B: 38       SEC
B38C: E9 30    SBC #$30
B38E: 85 67    STA $67
B390: 4C 24 A3 JMP $A324
B393: A0 00    LDY #$00
B395: A2 03    LDX #$03
B397: 94 66    STY $66,X
B399: CA       DEX
B39A: 10 FB    BPL $B397
B39C: A2 06    LDX #$06
B39E: 94 6F    STY $6F,X
B3A0: CA       DEX
B3A1: 10 FB    BPL $B39E
B3A3: 90 17    BCC $B3BC
B3A5: C9 2D    CMP #$2D
B3A7: F0 04    BEQ $B3AD
B3A9: C9 CA    CMP #$CA
B3AB: D0 04    BNE $B3B1
B3AD: 86 75    STX $75
B3AF: F0 08    BEQ $B3B9
B3B1: C9 2B    CMP #$2B
B3B3: F0 04    BEQ $B3B9
B3B5: C9 C9    CMP #$C9
B3B7: D0 05    BNE $B3BE
B3B9: 20 34 66 JSR $6634
B3BC: 90 5B    BCC $B419
B3BE: C9 2E    CMP #$2E
B3C0: F0 2E    BEQ $B3F0
B3C2: C9 45    CMP #$45
B3C4: D0 30    BNE $B3F6
B3C6: 20 34 66 JSR $6634
B3C9: 90 17    BCC $B3E2
B3CB: C9 CA    CMP #$CA
B3CD: F0 0E    BEQ $B3DD
B3CF: C9 2D    CMP #$2D
B3D1: F0 0A    BEQ $B3DD
B3D3: C9 C9    CMP #$C9
B3D5: F0 08    BEQ $B3DF
B3D7: C9 2B    CMP #$2B
B3D9: F0 04    BEQ $B3DF
B3DB: D0 07    BNE $B3E4
B3DD: 66 69    ROR $69
B3DF: 20 34 66 JSR $6634
B3E2: 90 5C    BCC $B440
B3E4: 24 69    BIT $69
B3E6: 10 0E    BPL $B3F6
B3E8: A9 00    LDA #$00
B3EA: 38       SEC
B3EB: E5 67    SBC $67
B3ED: 4C F8 A3 JMP $A3F8
B3F0: 66 68    ROR $68
B3F2: 24 68    BIT $68
B3F4: 50 C3    BVC $B3B9
B3F6: A5 67    LDA $67
B3F8: 38       SEC
B3F9: E5 66    SBC $66
B3FB: 85 67    STA $67
B3FD: F0 12    BEQ $B411
B3FF: 10 09    BPL $B40A
B401: 20 B1 A0 JSR $A0B1
B404: E6 67    INC $67
B406: D0 F9    BNE $B401
B408: F0 07    BEQ $B411
B40A: 20 95 A0 JSR $A095
B40D: C6 67    DEC $67
B40F: D0 F9    BNE $B40A
B411: A5 75    LDA $75
B413: 30 01    BMI $B416
B415: 60       RTS
B416: 4C 2B A6 JMP $A62B
B419: 48       PHA
B41A: 24 68    BIT $68
B41C: 10 02    BPL $B420
B41E: E6 66    INC $66
B420: 20 95 A0 JSR $A095
B423: 68       PLA
B424: 38       SEC
B425: E9 30    SBC #$30
B427: 20 2D A4 JSR $A42D
B42A: 4C B9 A3 JMP $A3B9
B42D: 48       PHA
B42E: 20 D3 A1 JSR $A1D3
B431: 68       PLA
B432: 20 05 A2 JSR $A205
B435: A5 7C    LDA $7C
B437: 45 74    EOR $74
B439: 85 7D    STA $7D
B43B: A6 6F    LDX $6F
B43D: 4C B0 9D JMP $9DB0
B440: A5 67    LDA $67
B442: C9 0A    CMP #$0A
B444: 90 09    BCC $B44F
B446: A9 64    LDA #$64
B448: 24 69    BIT $69
B44A: 30 11    BMI $B45D
B44C: 4C D5 9E JMP $9ED5
B44F: 0A       ASL
B450: 0A       ASL
B451: 18       CLC
B452: 65 67    ADC $67
B454: 0A       ASL
B455: 18       CLC
B456: A0 00    LDY #$00
B458: 71 5E    ADC ($5E),Y
B45A: 38       SEC
B45B: E9 30    SBC #$30
B45D: 85 67    STA $67
B45F: 4C DF A3 JMP $A3DF
B462: 9B       ??
B463: 3E BC 1F ROL $1FBC,X
B466: FD 9E 6E SBC $6E9E,X
B469: 6B       ??
B46A: 27       ??
B46B: FD 9E 6E SBC $6E9E,X
B46E: 6B       ??
B46F: 28       PLP
B470: 00 A9 29 INT $29A9
B473: A0 66    LDY #$66
B475: 20 8B A4 JSR $A48B
B478: AD 15 B8 LDA $B815
B47B: AE 14 B8 LDX $B814
B47E: 85 70    STA $70
B480: 86 71    STX $71
B482: A2 90    LDX #$90
B484: 38       SEC
B485: 20 12 A2 JSR $A212
B488: 20 8E A4 JSR $A48E
B48B: 4C 2D 79 JMP $792D
B48E: A0 01    LDY #$01
B490: A9 2D    LDA #$2D
B492: 88       DEY
B493: 24 74    BIT $74
B495: 10 04    BPL $B49B
B497: C8       INY
B498: 99 98 B9 STA $B998,Y
B49B: 85 74    STA $74
B49D: 84 52    STY $52
B49F: C8       INY
B4A0: A9 30    LDA #$30
B4A2: A6 6F    LDX $6F
B4A4: D0 03    BNE $B4A9
B4A6: 4C B1 A5 JMP $A5B1
B4A9: A9 00    LDA #$00
B4AB: E0 80    CPX #$80
B4AD: F0 02    BEQ $B4B1
B4AF: B0 09    BCS $B4BA
B4B1: A9 6C    LDA #$6C
B4B3: A0 A4    LDY #$A4
B4B5: 20 C9 9F JSR $9FC9
B4B8: A9 F7    LDA #$F7
B4BA: 85 66    STA $66
B4BC: A9 67    LDA #$67
B4BE: A0 A4    LDY #$A4
B4C0: 20 3A A2 JSR $A23A
B4C3: F0 1E    BEQ $B4E3
B4C5: 10 12    BPL $B4D9
B4C7: A9 62    LDA #$62
B4C9: A0 A4    LDY #$A4
B4CB: 20 3A A2 JSR $A23A
B4CE: F0 02    BEQ $B4D2
B4D0: 10 0E    BPL $B4E0
B4D2: 20 95 A0 JSR $A095
B4D5: C6 66    DEC $66
B4D7: D0 EE    BNE $B4C7
B4D9: 20 B1 A0 JSR $A0B1
B4DC: E6 66    INC $66
B4DE: D0 DC    BNE $B4BC
B4E0: 20 8F 9D JSR $9D8F
B4E3: 20 7B A2 JSR $A27B
B4E6: A2 01    LDX #$01
B4E8: A5 66    LDA $66
B4EA: 18       CLC
B4EB: 69 0A    ADC #$0A
B4ED: 30 09    BMI $B4F8
B4EF: C9 0B    CMP #$0B
B4F1: B0 06    BCS $B4F9
B4F3: 69 FF    ADC #$FF
B4F5: AA       TAX
B4F6: A9 02    LDA #$02
B4F8: 38       SEC
B4F9: E9 02    SBC #$02
B4FB: 85 67    STA $67
B4FD: 86 66    STX $66
B4FF: 8A       TXA
B500: F0 02    BEQ $B504
B502: 10 13    BPL $B517
B504: A4 52    LDY $52
B506: A9 2E    LDA #$2E
B508: C8       INY
B509: 99 98 B9 STA $B998,Y
B50C: 8A       TXA
B50D: F0 06    BEQ $B515
B50F: A9 30    LDA #$30
B511: C8       INY
B512: 99 98 B9 STA $B998,Y
B515: 84 52    STY $52
B517: A0 00    LDY #$00
B519: A2 80    LDX #$80
B51B: A5 73    LDA $73
B51D: 18       CLC
B51E: 79 C6 A5 ADC $A5C6,Y
B521: 85 73    STA $73
B523: A5 72    LDA $72
B525: 79 C5 A5 ADC $A5C5,Y
B528: 85 72    STA $72
B52A: A5 71    LDA $71
B52C: 79 C4 A5 ADC $A5C4,Y
B52F: 85 71    STA $71
B531: A5 70    LDA $70
B533: 79 C3 A5 ADC $A5C3,Y
B536: 85 70    STA $70
B538: E8       INX
B539: B0 04    BCS $B53F
B53B: 10 DE    BPL $B51B
B53D: 30 02    BMI $B541
B53F: 30 DA    BMI $B51B
B541: 8A       TXA
B542: 90 04    BCC $B548
B544: 49 FF    EOR #$FF
B546: 69 0A    ADC #$0A
B548: 69 2F    ADC #$2F
B54A: C8       INY
B54B: C8       INY
B54C: C8       INY
B54D: C8       INY
B54E: 84 58    STY $58
B550: A4 52    LDY $52
B552: C8       INY
B553: AA       TAX
B554: 29 7F    AND #$7F
B556: 99 98 B9 STA $B998,Y
B559: C6 66    DEC $66
B55B: D0 06    BNE $B563
B55D: A9 2E    LDA #$2E
B55F: C8       INY
B560: 99 98 B9 STA $B998,Y
B563: 84 52    STY $52
B565: A4 58    LDY $58
B567: 8A       TXA
B568: 49 FF    EOR #$FF
B56A: 29 80    AND #$80
B56C: AA       TAX
B56D: C0 24    CPY #$24
B56F: D0 AA    BNE $B51B
B571: A4 52    LDY $52
B573: B9 98 B9 LDA $B998,Y
B576: 88       DEY
B577: C9 30    CMP #$30
B579: F0 F8    BEQ $B573
B57B: C9 2E    CMP #$2E
B57D: F0 01    BEQ $B580
B57F: C8       INY
B580: A9 2B    LDA #$2B
B582: A6 67    LDX $67
B584: F0 2E    BEQ $B5B4
B586: 10 08    BPL $B590
B588: A9 00    LDA #$00
B58A: 38       SEC
B58B: E5 67    SBC $67
B58D: AA       TAX
B58E: A9 2D    LDA #$2D
B590: 99 9A B9 STA $B99A,Y
B593: A9 45    LDA #$45
B595: 99 99 B9 STA $B999,Y
B598: 8A       TXA
B599: A2 2F    LDX #$2F
B59B: 38       SEC
B59C: E8       INX
B59D: E9 0A    SBC #$0A
B59F: B0 FB    BCS $B59C
B5A1: 69 3A    ADC #$3A
B5A3: 99 9C B9 STA $B99C,Y
B5A6: 8A       TXA
B5A7: 99 9B B9 STA $B99B,Y
B5AA: A9 00    LDA #$00
B5AC: 99 9D B9 STA $B99D,Y
B5AF: F0 08    BEQ $B5B9
B5B1: 99 98 B9 STA $B998,Y
B5B4: A9 00    LDA #$00
B5B6: 99 99 B9 STA $B999,Y
B5B9: A9 99    LDA #$99
B5BB: A0 B9    LDY #$B9
B5BD: 60       RTS
B5BE: 80       ??
B5BF: 00 00 00 INT $0000
B5C2: 00 FA 0A INT $0AFA
B5C5: 1F       ??
B5C6: 00 00 98 INT $9800
B5C9: 96 80    STX $80,Y
B5CB: FF       ??
B5CC: F0 BD    BEQ $B58B
B5CE: C0 00    CPY #$00
B5D0: 01 86    ORA ($86,X)
B5D2: A0 FF    LDY #$FF
B5D4: FF       ??
B5D5: D8       CLD
B5D6: F0 00    BEQ $B5D8
B5D8: 00 03 E8 INT $E803
B5DB: FF       ??
B5DC: FF       ??
B5DD: FF       ??
B5DE: 9C       ??
B5DF: 00 00 00 INT $0000
B5E2: 0A       ASL
B5E3: FF       ??
B5E4: FF       ??
B5E5: FF       ??
B5E6: FF       ??
B5E7: 20 D3 A1 JSR $A1D3
B5EA: A9 BE    LDA #$BE
B5EC: A0 A5    LDY #$A5
B5EE: 20 66 A1 JSR $A166
B5F1: F0 71    BEQ $B664
B5F3: A5 77    LDA $77
B5F5: D0 03    BNE $B5FA
B5F7: 4C 49 9E JMP $9E49
B5FA: A2 6A    LDX #$6A
B5FC: A0 00    LDY #$00
B5FE: 20 99 A1 JSR $A199
B601: A5 7C    LDA $7C
B603: 10 10    BPL $B615
B605: 20 AF A2 JSR $A2AF
B608: A9 6A    LDA #$6A
B60A: A0 00    LDY #$00
B60C: 20 3A A2 JSR $A23A
B60F: D0 04    BNE $B615
B611: 98       TYA
B612: AC 00 B8 LDY $B800
B615: 20 C4 A1 JSR $A1C4
B618: 98       TYA
B619: 48       PHA
B61A: 20 8B 9F JSR $9F8B
B61D: A9 6A    LDA #$6A
B61F: A0 00    LDY #$00
B621: 20 C9 9F JSR $9FC9
B624: 20 64 A6 JSR $A664
B627: 68       PLA
B628: 4A       LSR
B629: 90 0A    BCC $B635
B62B: A5 6F    LDA $6F
B62D: F0 06    BEQ $B635
B62F: A5 74    LDA $74
B631: 49 FF    EOR #$FF
B633: 85 74    STA $74
B635: 60       RTS
B636: 81 38    STA ($38,X)
B638: AA       TAX
B639: 3B       ??
B63A: 29 07    AND #$07
B63C: 71 34    ADC ($34),Y
B63E: 58       CLI
B63F: 3E 56 74 ROL $7456,X
B642: 16 7E    ASL $7E,X
B644: B3       ??
B645: 1B       ??
B646: 77       ??
B647: 2F       ??
B648: EE E3 85 INC $85E3
B64B: 7A       ??
B64C: 1D 84 1C ORA $1C84,X
B64F: 2A       ROL
B650: 7C       ??
B651: 63       ??
B652: 59 58 0A EOR $0A58,Y
B655: 7E 75 FD ROR $FD75,X
B658: E7       ??
B659: C6 80    DEC $80
B65B: 31 72    AND ($72),Y
B65D: 18       CLC
B65E: 10 81    BPL $B5E1
B660: 00 00 00 INT $0000
B663: 00 A9 36 INT $36A9
B666: A0 A6    LDY #$A6
B668: 20 C9 9F JSR $9FC9
B66B: AD 0E B8 LDA $B80E
B66E: 69 50    ADC #$50
B670: 90 03    BCC $B675
B672: 20 EC A1 JSR $A1EC
B675: 8D 60 B9 STA $B960
B678: 20 D6 A1 JSR $A1D6
B67B: A5 6F    LDA $6F
B67D: C9 88    CMP #$88
B67F: 90 03    BCC $B684
B681: 20 87 A0 JSR $A087
B684: 20 AF A2 JSR $A2AF
B687: AD 00 B8 LDA $B800
B68A: 18       CLC
B68B: 69 81    ADC #$81
B68D: F0 F2    BEQ $B681
B68F: 38       SEC
B690: E9 01    SBC #$01
B692: 48       PHA
B693: A2 05    LDX #$05
B695: B5 77    LDA $77,X
B697: B4 6F    LDY $6F,X
B699: 95 6F    STA $6F,X
B69B: 94 77    STY $77,X
B69D: CA       DEX
B69E: 10 F5    BPL $B695
B6A0: AD 60 B9 LDA $B960
B6A3: 8D 0E B8 STA $B80E
B6A6: 20 99 9D JSR $9D99
B6A9: 20 2B A6 JSR $A62B
B6AC: A9 3B    LDA #$3B
B6AE: A0 A6    LDY #$A6
B6B0: 20 D4 A6 JSR $A6D4
B6B3: A9 00    LDA #$00
B6B5: 85 7D    STA $7D
B6B7: 68       PLA
B6B8: 20 6C A0 JSR $A06C
B6BB: 60       RTS
B6BC: 85 52    STA $52
B6BE: 84 53    STY $53
B6C0: 20 8F A1 JSR $A18F
B6C3: A9 60    LDA #$60
B6C5: A0 00    LDY #$00
B6C7: 20 C9 9F JSR $9FC9
B6CA: 20 D8 A6 JSR $A6D8
B6CD: A9 60    LDA #$60
B6CF: A0 00    LDY #$00
B6D1: 4C C9 9F JMP $9FC9
B6D4: 85 52    STA $52
B6D6: 84 53    STY $53
B6D8: 20 8C A1 JSR $A18C
B6DB: B1 52    LDA ($52),Y
B6DD: 85 75    STA $75
B6DF: A4 52    LDY $52
B6E1: C8       INY
B6E2: 98       TYA
B6E3: D0 02    BNE $B6E7
B6E5: E6 53    INC $53
B6E7: 85 52    STA $52
B6E9: A4 53    LDY $53
B6EB: 20 C9 9F JSR $9FC9
B6EE: A5 52    LDA $52
B6F0: A4 53    LDY $53
B6F2: 18       CLC
B6F3: 69 05    ADC #$05
B6F5: 90 01    BCC $B6F8
B6F7: C8       INY
B6F8: 85 52    STA $52
B6FA: 84 53    STY $53
B6FC: 20 AD 9D JSR $9DAD
B6FF: A9 65    LDA #$65
B701: A0 00    LDY #$00
B703: C6 75    DEC $75
B705: D0 E4    BNE $B6EB
B707: 60       RTS

; float numbers for RND
B708: .DB 0x98, 0x35, 0x44, 0x7a
B70C: .DB 0x68, 0x28, 0xb1, 0x46

; RND function
B710: 20 F4 A1 JSR $A1F4
B713: AA       TAX
B714: 30 18    BMI $B72E
B716: A9 BB    LDA #$BB
B718: A0 B8    LDY #$B8
B71A: 20 66 A1 JSR $A166
B71D: 8A       TXA
B71E: F0 E7    BEQ $B707
B720: A9 08    LDA #$08
B722: A0 A7    LDY #$A7
B724: 20 C9 9F JSR $9FC9
B727: A9 0C    LDA #$0C
B729: A0 A7    LDY #$A7
B72B: 20 AD 9D JSR $9DAD
B72E: A6 73    LDX $73
B730: A5 70    LDA $70
B732: 85 73    STA $73
B734: 86 70    STX $70
B736: A9 00    LDA #$00
B738: 85 74    STA $74
B73A: A5 6F    LDA $6F
B73C: 8D 0E B8 STA $B80E
B73F: A9 80    LDA #$80
B741: 85 6F    STA $6F
B743: 20 25 9E JSR $9E25
B746: A2 BB    LDX #$BB
B748: A0 B8    LDY #$B8
B74A: 4C 99 A1 JMP $A199
B74D: A9 CD    LDA #$CD
B74F: A0 A7    LDY #$A7
B751: 20 AD 9D JSR $9DAD
B754: 20 D3 A1 JSR $A1D3
B757: A9 D2    LDA #$D2
B759: A0 A7    LDY #$A7
B75B: A6 7C    LDX $7C
B75D: 20 BA A0 JSR $A0BA
B760: 20 D3 A1 JSR $A1D3
B763: 20 AF A2 JSR $A2AF
B766: A9 00    LDA #$00
B768: 85 7D    STA $7D
B76A: 20 99 9D JSR $9D99
B76D: A9 D7    LDA #$D7
B76F: A0 A7    LDY #$A7
B771: 20 96 9D JSR $9D96
B774: A5 74    LDA $74
B776: 48       PHA
B777: 10 0F    BPL $B788
B779: 20 8F 9D JSR $9D8F
B77C: A5 74    LDA $74
B77E: 30 0B    BMI $B78B
B780: AD 0D B8 LDA $B80D
B783: 49 FF    EOR #$FF
B785: 8D 0D B8 STA $B80D
B788: 20 2B A6 JSR $A62B
B78B: A9 D7    LDA #$D7
B78D: A0 A7    LDY #$A7
B78F: 20 AD 9D JSR $9DAD
B792: 68       PLA
B793: 10 03    BPL $B798
B795: 20 2B A6 JSR $A62B
B798: A9 DC    LDA #$DC
B79A: A0 A7    LDY #$A7
B79C: 4C BC A6 JMP $A6BC
B79F: 20 8F A1 JSR $A18F
B7A2: A9 00    LDA #$00
B7A4: 8D 0D B8 STA $B80D
B7A7: 20 54 A7 JSR $A754
B7AA: A2 6A    LDX #$6A
B7AC: A0 00    LDY #$00
B7AE: 20 4A A7 JSR $A74A
B7B1: A9 60    LDA #$60
B7B3: A0 00    LDY #$00
B7B5: 20 66 A1 JSR $A166
B7B8: A9 00    LDA #$00
B7BA: 85 74    STA $74
B7BC: AD 0D B8 LDA $B80D
B7BF: 20 C9 A7 JSR $A7C9
B7C2: A9 6A    LDA #$6A
B7C4: A0 00    LDY #$00
B7C6: 4C C2 A0 JMP $A0C2
B7C9: 48       PHA
B7CA: 4C 88 A7 JMP $A788
B7CD: 81 49    STA ($49,X)
B7CF: 0F       ??
B7D0: DA       ??
B7D1: A2 83    LDX #$83
B7D3: 49 0F    EOR #$0F
B7D5: DA       ??
B7D6: A2 7F    LDX #$7F
B7D8: 00 00 00 INT $0000
B7DB: 00 05 84 INT $8405
B7DE: E6 1A    INC $1A
B7E0: 2D 1B 86 AND $861B
B7E3: 28       PLP
B7E4: 07       ??
B7E5: FB       ??
B7E6: F8       SED
B7E7: 87       ??
B7E8: 99 68 89 STA $8968,Y
B7EB: 01 87    ORA ($87,X)
B7ED: 23       ??
B7EE: 35 DF    AND $DF,X
B7F0: E1 86    SBC ($86,X)
B7F2: A5 5D    LDA $5D
B7F4: E7       ??
B7F5: 28       PLP
B7F6: 83       ??
B7F7: 49 0F    EOR #$0F
B7F9: DA       ??
B7FA: A2 A6    LDX #$A6
B7FC: D3       ??
B7FD: C1 C8    CMP ($C8,X)
B7FF: D4       ??
B800: C8       INY
B801: D5 C4    CMP $C4,X
B803: CE CA A5 DEC $A5CA
B806: 74       ??
B807: 48       PHA
B808: 10 03    BPL $B80D
B80A: 20 2B A6 JSR $A62B
B80D: A5 6F    LDA $6F
B80F: 48       PHA
B810: C9 81    CMP #$81
B812: 90 07    BCC $B81B
B814: A9 5D    LDA #$5D
B816: A0 9F    LDY #$9F
B818: 20 C2 A0 JSR $A0C2
B81B: A9 35    LDA #$35
B81D: A0 A8    LDY #$A8
B81F: 20 BC A6 JSR $A6BC
B822: 68       PLA
B823: C9 81    CMP #$81
B825: 90 07    BCC $B82E
B827: A9 CD    LDA #$CD
B829: A0 A7    LDY #$A7
B82B: 20 96 9D JSR $9D96
B82E: 68       PLA
B82F: 10 03    BPL $B834
B831: 4C 2B A6 JMP $A62B
B834: 60       RTS
B835: 0B       ??
B836: 76 B3    ROR $B3,X
B838: 83       ??
B839: BD D3 79 LDA $79D3,X
B83C: 1E F4 A6 ASL $A6F4,X
B83F: F5 7B    SBC $7B,X
B841: 83       ??
B842: FC       ??
B843: B0 10    BCS $B855
B845: 7C       ??
B846: 0C       ??
B847: 1F       ??
B848: 67       ??
B849: CA       DEX
B84A: 7C       ??
B84B: DE 53 CB DEC $CB53,X
B84E: C1 7D    CMP ($7D,X)
B850: 14       ??
B851: 64       ??
B852: 70 4C    BVS $B8A0
B854: 7D B7 EA ADC $EAB7,X
B857: 51 7A    EOR ($7A),Y
B859: 7D 63 30 ADC $3063,X
B85C: 88       DEY
B85D: 7E 7E 92 ROR $927E,X
B860: 44       ??
B861: 99 3A 7E STA $7E3A,Y
B864: 4C CC 91 JMP $91CC
B867: C7       ??
B868: 7F       ??
B869: AA       TAX
B86A: AA       TAX
B86B: AA       TAX
B86C: 13       ??
B86D: 81 00    STA ($00,X)
B86F: 00 00 00 INT $0000
B872: 20 C7 85 JSR $85C7
B875: E0 30    CPX #$30
B877: B0 11    BCS $B88A
B879: A9 2C    LDA #$2C
B87B: 20 F4 9C JSR $9CF4
B87E: 20 C7 85 JSR $85C7
B881: E0 30    CPX #$30
B883: B0 05    BCS $B88A
B885: 86 FD    STX $FD
B887: 86 FE    STX $FE
B889: 60       RTS
B88A: 4C 99 99 JMP $9999
B88D: A5 84    LDA $84
B88F: 05 85    ORA $85
B891: D0 05    BNE $B898
B893: A9 7F    LDA #$7F
B895: 69 08    ADC #$08
B897: 60       RTS
B898: 20 0D A9 JSR $A90D
B89B: A5 81    LDA $81
B89D: C5 85    CMP $85
B89F: D0 04    BNE $B8A5
B8A1: A5 80    LDA $80
B8A3: C5 84    CMP $84
B8A5: B0 12    BCS $B8B9
B8A7: A5 81    LDA $81
B8A9: 85 83    STA $83
B8AB: A5 80    LDA $80
B8AD: 85 82    STA $82
B8AF: A9 00    LDA #$00
B8B1: 85 80    STA $80
B8B3: A9 00    LDA #$00
B8B5: 85 81    STA $81
B8B7: B8       CLV
B8B8: 60       RTS
B8B9: A5 81    LDA $81
B8BB: 05 85    ORA $85
B8BD: F0 21    BEQ $B8E0
B8BF: A0 10    LDY #$10
B8C1: 06 80    ASL $80
B8C3: 26 81    ROL $81
B8C5: 26 82    ROL $82
B8C7: 26 83    ROL $83
B8C9: 38       SEC
B8CA: A5 82    LDA $82
B8CC: E5 84    SBC $84
B8CE: AA       TAX
B8CF: A5 83    LDA $83
B8D1: E5 85    SBC $85
B8D3: 90 06    BCC $B8DB
B8D5: 86 82    STX $82
B8D7: 85 83    STA $83
B8D9: E6 80    INC $80
B8DB: 88       DEY
B8DC: D0 E3    BNE $B8C1
B8DE: F0 1A    BEQ $B8FA
B8E0: A9 00    LDA #$00
B8E2: A0 08    LDY #$08
B8E4: 06 80    ASL $80
B8E6: 2A       ROL
B8E7: 38       SEC
B8E8: E5 84    SBC $84
B8EA: B0 07    BCS $B8F3
B8EC: 65 84    ADC $84
B8EE: 88       DEY
B8EF: D0 F3    BNE $B8E4
B8F1: F0 05    BEQ $B8F8
B8F3: E6 80    INC $80
B8F5: 88       DEY
B8F6: D0 EC    BNE $B8E4
B8F8: 85 82    STA $82
B8FA: A5 86    LDA $86
B8FC: F0 0D    BEQ $B90B
B8FE: 38       SEC
B8FF: A9 00    LDA #$00
B901: E5 80    SBC $80
B903: 85 80    STA $80
B905: A9 00    LDA #$00
B907: E5 81    SBC $81
B909: 85 81    STA $81
B90B: B8       CLV
B90C: 60       RTS
B90D: A0 00    LDY #$00
B90F: 84 82    STY $82
B911: 84 83    STY $83
B913: A5 81    LDA $81
B915: 45 85    EOR $85
B917: 29 80    AND #$80
B919: 85 86    STA $86
B91B: A5 81    LDA $81
B91D: 10 0D    BPL $B92C
B91F: 38       SEC
B920: A9 00    LDA #$00
B922: E5 80    SBC $80
B924: 85 80    STA $80
B926: A9 00    LDA #$00
B928: E5 81    SBC $81
B92A: 85 81    STA $81
B92C: A5 85    LDA $85
B92E: 30 01    BMI $B931
B930: 60       RTS
B931: 38       SEC
B932: A9 00    LDA #$00
B934: E5 84    SBC $84
B936: 85 84    STA $84
B938: A9 00    LDA #$00
B93A: E5 85    SBC $85
B93C: 85 85    STA $85
B93E: 60       RTS
B93F: A9 00    LDA #$00
B941: 85 83    STA $83
B943: 85 84    STA $84
B945: 85 85    STA $85
B947: A5 80    LDA $80
B949: 05 81    ORA $81
B94B: D0 01    BNE $B94E
B94D: 60       RTS
B94E: A5 82    LDA $82
B950: F0 FB    BEQ $B94D
B952: A2 08    LDX #$08
B954: 18       CLC
B955: 06 83    ASL $83
B957: 26 84    ROL $84
B959: 26 85    ROL $85
B95B: 18       CLC
B95C: 06 82    ASL $82
B95E: 90 11    BCC $B971
B960: 18       CLC
B961: A5 83    LDA $83
B963: 65 80    ADC $80
B965: 85 83    STA $83
B967: A5 84    LDA $84
B969: 65 81    ADC $81
B96B: 85 84    STA $84
B96D: 90 02    BCC $B971
B96F: E6 85    INC $85
B971: CA       DEX
B972: D0 E0    BNE $B954
B974: 60       RTS
B975: A9 3F    LDA #$3F
B977: 8D B8 B8 STA $B8B8
B97A: A9 02    LDA #$02
B97C: 8D B7 B8 STA $B8B7
B97F: 20 5E AC JSR $AC5E
B982: AD 05 04 LDA $0405
B985: 29 D2    AND #$D2
B987: F0 14    BEQ $B99D
B989: 78       SEI
B98A: A9 00    LDA #$00
B98C: 8D E2 03 STA $03E2
B98F: 8D 40 0B STA $0B40
B992: A9 80    LDA #$80
B994: 8D 41 0B STA $0B41
B997: 58       CLI
B998: 00 08 C0 INT $C008
B99B: 18       CLC
B99C: 60       RTS
B99D: AD 40 0B LDA $0B40
B9A0: 10 0B    BPL $B9AD
B9A2: 20 1B AA JSR $AA1B
B9A5: A9 00    LDA #$00
B9A7: 8D F6 03 STA $03F6
B9AA: 4C 82 A9 JMP $A982
B9AD: A2 00    LDX #$00
B9AF: A0 00    LDY #$00
B9B1: B1 60    LDA ($60),Y
B9B3: DD C8 AC CMP $ACC8,X
B9B6: F0 0B    BEQ $B9C3
B9B8: E8       INX
B9B9: E0 0E    CPX #$0E
B9BB: D0 03    BNE $B9C0
B9BD: 4C 19 AA JMP $AA19
B9C0: 4C B3 A9 JMP $A9B3
B9C3: 8A       TXA
B9C4: A8       TAY
B9C5: 0A       ASL
B9C6: AA       TAX
B9C7: BD AC AC LDA $ACAC,X
B9CA: 85 81    STA $81
B9CC: BD AD AC LDA $ACAD,X
B9CF: 85 82    STA $82
B9D1: A9 4C    LDA #$4C
B9D3: 85 80    STA $80
B9D5: 98       TYA
B9D6: 20 80 00 JSR $0080
B9D9: B0 3E    BCS $BA19
B9DB: A0 00    LDY #$00
B9DD: B1 60    LDA ($60),Y
B9DF: F0 03    BEQ $B9E4
B9E1: 4C 82 A9 JMP $A982
B9E4: AD 40 0B LDA $0B40
B9E7: 10 17    BPL $BA00
B9E9: 2C 41 0B BIT $0B41
B9EC: 70 0B    BVS $B9F9
B9EE: AD 41 0B LDA $0B41
B9F1: 09 40    ORA #$40
B9F3: 8D 41 0B STA $0B41
B9F6: 00 BD FF INT $FFBD
B9F9: A9 00    LDA #$00
B9FB: 8D F6 03 STA $03F6
B9FE: F0 E4    BEQ $B9E4
BA00: A9 FF    LDA #$FF
BA02: A0 FF    LDY #$FF
BA04: 20 E4 AB JSR $ABE4
BA07: 2C 41 0B BIT $0B41
BA0A: 70 0B    BVS $BA17
BA0C: AD 41 0B LDA $0B41
BA0F: 09 40    ORA #$40
BA11: 8D 41 0B STA $0B41
BA14: 00 BD FF INT $FFBD
BA17: 18       CLC
BA18: 60       RTS
BA19: 38       SEC
BA1A: 60       RTS
BA1B: AD 41 0B LDA $0B41
BA1E: 29 40    AND #$40
BA20: D0 0B    BNE $BA2D
BA22: AD 41 0B LDA $0B41
BA25: 09 40    ORA #$40
BA27: 8D 41 0B STA $0B41
BA2A: 00 BD FF INT $FFBD
BA2D: 60       RTS
BA2E: 48       PHA
BA2F: E6 60    INC $60
BA31: D0 02    BNE $BA35
BA33: E6 61    INC $61
BA35: 20 7F AB JSR $AB7F
BA38: 68       PLA
BA39: B0 57    BCS $BA92
BA3B: AA       TAX
BA3C: A8       TAY
BA3D: BD DB AC LDA $ACDB,X
BA40: 8D BA B8 STA $B8BA
BA43: AE B7 B8 LDX $B8B7
BA46: BD D6 AC LDA $ACD6,X
BA49: 18       CLC
BA4A: 6D BA B8 ADC $B8BA
BA4D: 8D BA B8 STA $B8BA
BA50: AD B9 B8 LDA $B8B9
BA53: 29 01    AND #$01
BA55: F0 0A    BEQ $BA61
BA57: C0 03    CPY #$03
BA59: F0 14    BEQ $BA6F
BA5B: CE BA B8 DEC $B8BA
BA5E: 4C 6F AA JMP $AA6F
BA61: AD B9 B8 LDA $B8B9
BA64: 29 02    AND #$02
BA66: F0 07    BEQ $BA6F
BA68: C0 02    CPY #$02
BA6A: F0 03    BEQ $BA6F
BA6C: EE BA B8 INC $B8BA
BA6F: AD BA B8 LDA $B8BA
BA72: 09 C0    ORA #$C0
BA74: 8D BA B8 STA $B8BA
BA77: AC B8 B8 LDY $B8B8
BA7A: AD B9 B8 LDA $B8B9
BA7D: 29 04    AND #$04
BA7F: F0 09    BEQ $BA8A
BA81: AD B8 B8 LDA $B8B8
BA84: 4A       LSR
BA85: 18       CLC
BA86: 6D B8 B8 ADC $B8B8
BA89: A8       TAY
BA8A: AD BA B8 LDA $B8BA
BA8D: 20 E4 AB JSR $ABE4
BA90: 18       CLC
BA91: 60       RTS
BA92: 38       SEC
BA93: 60       RTS
BA94: E6 60    INC $60
BA96: D0 02    BNE $BA9A
BA98: E6 61    INC $61
BA9A: 20 33 AB JSR $AB33
BA9D: B0 0A    BCS $BAA9
BA9F: 20 95 AC JSR $AC95
BAA2: B0 05    BCS $BAA9
BAA4: 8D B8 B8 STA $B8B8
BAA7: 18       CLC
BAA8: 60       RTS
BAA9: 38       SEC
BAAA: 60       RTS
BAAB: E6 60    INC $60
BAAD: D0 02    BNE $BAB1
BAAF: E6 61    INC $61
BAB1: 20 33 AB JSR $AB33
BAB4: B0 0B    BCS $BAC1
BAB6: C9 08    CMP #$08
BAB8: F0 02    BEQ $BABC
BABA: B0 05    BCS $BAC1
BABC: 8D 66 B9 STA $B966
BABF: 18       CLC
BAC0: 60       RTS
BAC1: 38       SEC
BAC2: 60       RTS
BAC3: E6 60    INC $60
BAC5: D0 02    BNE $BAC9
BAC7: E6 61    INC $61
BAC9: 20 33 AB JSR $AB33
BACC: B0 2C    BCS $BAFA
BACE: 20 95 AC JSR $AC95
BAD1: B0 27    BCS $BAFA
BAD3: 8D B9 B8 STA $B8B9
BAD6: A0 00    LDY #$00
BAD8: B1 60    LDA ($60),Y
BADA: C9 2E    CMP #$2E
BADC: D0 12    BNE $BAF0
BADE: AD B9 B8 LDA $B8B9
BAE1: 0A       ASL
BAE2: 18       CLC
BAE3: 6D B9 B8 ADC $B8B9
BAE6: 6A       ROR
BAE7: 8D B9 B8 STA $B8B9
BAEA: E6 60    INC $60
BAEC: D0 02    BNE $BAF0
BAEE: E6 61    INC $61
BAF0: A9 00    LDA #$00
BAF2: AC B9 B8 LDY $B8B9
BAF5: 20 E4 AB JSR $ABE4
BAF8: 18       CLC
BAF9: 60       RTS
BAFA: 38       SEC
BAFB: 60       RTS
BAFC: E6 60    INC $60
BAFE: D0 02    BNE $BB02
BB00: E6 61    INC $61
BB02: 20 33 AB JSR $AB33
BB05: B0 09    BCS $BB10
BB07: C9 05    CMP #$05
BB09: B0 05    BCS $BB10
BB0B: 8D B7 B8 STA $B8B7
BB0E: 18       CLC
BB0F: 60       RTS
BB10: 38       SEC
BB11: 60       RTS
BB12: C9 3E    CMP #$3E
BB14: D0 0D    BNE $BB23
BB16: EE B7 B8 INC $B8B7
BB19: AE B7 B8 LDX $B8B7
BB1C: E0 05    CPX #$05
BB1E: B0 0A    BCS $BB2A
BB20: 4C 28 AB JMP $AB28
BB23: CE B7 B8 DEC $B8B7
BB26: 30 02    BMI $BB2A
BB28: 18       CLC
BB29: 60       RTS
BB2A: 38       SEC
BB2B: 60       RTS
BB2C: E6 60    INC $60
BB2E: D0 02    BNE $BB32
BB30: E6 61    INC $61
BB32: 60       RTS
BB33: A2 00    LDX #$00
BB35: A9 00    LDA #$00
BB37: 95 80    STA $80,X
BB39: E8       INX
BB3A: E0 09    CPX #$09
BB3C: D0 F9    BNE $BB37
BB3E: A2 00    LDX #$00
BB40: A0 FF    LDY #$FF
BB42: C8       INY
BB43: B1 60    LDA ($60),Y
BB45: C9 20    CMP #$20
BB47: F0 F9    BEQ $BB42
BB49: 20 30 E0 JSR $E030
BB4C: 90 0A    BCC $BB58
BB4E: 95 86    STA $86,X
BB50: E8       INX
BB51: E0 04    CPX #$04
BB53: F0 28    BEQ $BB7D
BB55: 4C 42 AB JMP $AB42
BB58: C0 00    CPY #$00
BB5A: F0 21    BEQ $BB7D
BB5C: 98       TYA
BB5D: 18       CLC
BB5E: 65 60    ADC $60
BB60: 85 60    STA $60
BB62: 90 02    BCC $BB66
BB64: E6 61    INC $61
BB66: CA       DEX
BB67: A0 03    LDY #$03
BB69: B5 86    LDA $86,X
BB6B: 99 82 00 STA $0082,Y
BB6E: 88       DEY
BB6F: CA       DEX
BB70: 10 F7    BPL $BB69
BB72: 00 34 C7 INT $C734
BB75: A5 81    LDA $81
BB77: D0 04    BNE $BB7D
BB79: A5 80    LDA $80
BB7B: 18       CLC
BB7C: 60       RTS
BB7D: 38       SEC
BB7E: 60       RTS
BB7F: A9 00    LDA #$00
BB81: 8D B9 B8 STA $B8B9
BB84: A0 FF    LDY #$FF
BB86: C8       INY
BB87: B1 60    LDA ($60),Y
BB89: C9 20    CMP #$20
BB8B: F0 F9    BEQ $BB86
BB8D: C9 23    CMP #$23
BB8F: F0 0F    BEQ $BBA0
BB91: C9 2B    CMP #$2B
BB93: F0 0B    BEQ $BBA0
BB95: C9 2D    CMP #$2D
BB97: F0 19    BEQ $BBB2
BB99: C9 2E    CMP #$2E
BB9B: F0 27    BEQ $BBC4
BB9D: 4C D6 AB JMP $ABD6
BBA0: AD B9 B8 LDA $B8B9
BBA3: 29 03    AND #$03
BBA5: D0 3B    BNE $BBE2
BBA7: AD B9 B8 LDA $B8B9
BBAA: 09 02    ORA #$02
BBAC: 8D B9 B8 STA $B8B9
BBAF: 4C 86 AB JMP $AB86
BBB2: AD B9 B8 LDA $B8B9
BBB5: 29 03    AND #$03
BBB7: D0 29    BNE $BBE2
BBB9: AD B9 B8 LDA $B8B9
BBBC: 09 01    ORA #$01
BBBE: 8D B9 B8 STA $B8B9
BBC1: 4C 86 AB JMP $AB86
BBC4: AD B9 B8 LDA $B8B9
BBC7: 29 04    AND #$04
BBC9: D0 17    BNE $BBE2
BBCB: AD B9 B8 LDA $B8B9
BBCE: 09 04    ORA #$04
BBD0: 8D B9 B8 STA $B8B9
BBD3: 4C 86 AB JMP $AB86
BBD6: 98       TYA
BBD7: 18       CLC
BBD8: 65 60    ADC $60
BBDA: 85 60    STA $60
BBDC: 90 02    BCC $BBE0
BBDE: E6 61    INC $61
BBE0: 18       CLC
BBE1: 60       RTS
BBE2: 38       SEC
BBE3: 60       RTS
BBE4: 48       PHA
BBE5: AD 40 0B LDA $0B40
BBE8: 29 3F    AND #$3F
BBEA: 0A       ASL
BBEB: AA       TAX
BBEC: 68       PLA
BBED: 9D 00 0B STA $0B00,X
BBF0: E8       INX
BBF1: 98       TYA
BBF2: 9D 00 0B STA $0B00,X
BBF5: EE 40 0B INC $0B40
BBF8: 20 FC AB JSR $ABFC
BBFB: 60       RTS
BBFC: AD 40 0B LDA $0B40
BBFF: 29 3F    AND #$3F
BC01: 8D B9 B8 STA $B8B9
BC04: AD 41 0B LDA $0B41
BC07: 29 3F    AND #$3F
BC09: 8D BA B8 STA $B8BA
BC0C: AD 41 0B LDA $0B41
BC0F: 29 80    AND #$80
BC11: F0 17    BEQ $BC2A
BC13: 38       SEC
BC14: AD B9 B8 LDA $B8B9
BC17: ED BA B8 SBC $B8BA
BC1A: 0A       ASL
BC1B: C9 40    CMP #$40
BC1D: D0 1E    BNE $BC3D
BC1F: AD 40 0B LDA $0B40
BC22: 09 80    ORA #$80
BC24: 8D 40 0B STA $0B40
BC27: 4C 3D AC JMP $AC3D
BC2A: 38       SEC
BC2B: AD BA B8 LDA $B8BA
BC2E: ED B9 B8 SBC $B8B9
BC31: C9 00    CMP #$00
BC33: D0 08    BNE $BC3D
BC35: AD 40 0B LDA $0B40
BC38: 09 80    ORA #$80
BC3A: 8D 40 0B STA $0B40
BC3D: AD 40 0B LDA $0B40
BC40: 29 3F    AND #$3F
BC42: 0A       ASL
BC43: C9 40    CMP #$40
BC45: D0 10    BNE $BC57
BC47: AD 40 0B LDA $0B40
BC4A: 29 C0    AND #$C0
BC4C: 8D 40 0B STA $0B40
BC4F: AD 41 0B LDA $0B41
BC52: 29 7F    AND #$7F
BC54: 8D 41 0B STA $0B41
BC57: 60       RTS
BC58: A6 FF    LDX $FF
BC5A: CA       DEX
BC5B: D0 FD    BNE $BC5A
BC5D: 60       RTS
BC5E: 2C 41 0B BIT $0B41
BC61: 50 31    BVC $BC94
BC63: AD 40 0B LDA $0B40
BC66: 10 07    BPL $BC6F
BC68: A9 00    LDA #$00
BC6A: 8D F6 03 STA $03F6
BC6D: F0 F4    BEQ $BC63
BC6F: 29 3F    AND #$3F
BC71: AA       TAX
BC72: CE 40 0B DEC $0B40
BC75: CA       DEX
BC76: 10 15    BPL $BC8D
BC78: EE 40 0B INC $0B40
BC7B: AD 40 0B LDA $0B40
BC7E: 29 C0    AND #$C0
BC80: 09 1F    ORA #$1F
BC82: 8D 40 0B STA $0B40
BC85: AD 41 0B LDA $0B41
BC88: 09 80    ORA #$80
BC8A: 8D 41 0B STA $0B41
BC8D: A9 FF    LDA #$FF
BC8F: A0 00    LDY #$00
BC91: 20 E4 AB JSR $ABE4
BC94: 60       RTS
BC95: 85 84    STA $84
BC97: A9 00    LDA #$00
BC99: 85 85    STA $85
BC9B: 85 81    STA $81
BC9D: A9 FF    LDA #$FF
BC9F: 85 80    STA $80
BCA1: 20 8D A8 JSR $A88D
BCA4: 70 04    BVS $BCAA
BCA6: A5 80    LDA $80
BCA8: 18       CLC
BCA9: 60       RTS
BCAA: 38       SEC
BCAB: 60       RTS
BCAC: 2E AA 2E ROL $2EAA
BCAF: AA       TAX
BCB0: 2E AA 2E ROL $2EAA
BCB3: AA       TAX
BCB4: 2E AA 2E ROL $2EAA
BCB7: AA       TAX
BCB8: 2E AA 94 ROL $94AA
BCBB: AA       TAX
BCBC: AB       ??
BCBD: AA       TAX
BCBE: C3       ??
BCBF: AA       TAX
BCC0: FC       ??
BCC1: AA       TAX
BCC2: 12       ??
BCC3: AB       ??
BCC4: 12       ??
BCC5: AB       ??
BCC6: 2C AB 43 BIT $43AB
BCC9: 44       ??
BCCA: 45 46    EOR $46
BCCC: 47       ??
BCCD: 41 42    EOR ($42,X)
BCCF: 4C 4D 50 JMP $504D
BCD2: 4F       ??
BCD3: 3C       ??
BCD4: 3E 20 00 ROL $0020,X
BCD7: 0C       ??
BCD8: 18       CLC
BCD9: 24 30    BIT $30
BCDB: 00 02 04 INT $0402
BCDE: 05 07    ORA $07
BCE0: 09 0A    ORA #$0A
BCE2: 20 06 AD JSR $AD06
BCE5: A2 00    LDX #$00
BCE7: A0 64    LDY #$64
BCE9: D0 0E    BNE $BCF9
BCEB: 20 26 AD JSR $AD26
BCEE: A2 3C    LDX #$3C
BCF0: D0 05    BNE $BCF7
BCF2: 20 32 AD JSR $AD32
BCF5: A2 50    LDX #$50
BCF7: A0 14    LDY #$14
BCF9: A9 00    LDA #$00
BCFB: 9D C0 02 STA $02C0,X
BCFE: E8       INX
BCFF: 88       DEY
BD00: D0 F9    BNE $BCFB
BD02: 00 1A C7 INT $C71A
BD05: 60       RTS
BD06: A9 00    LDA #$00
BD08: A0 C0    LDY #$C0
BD0A: 99 00 19 STA $1900,Y
BD0D: C8       INY
BD0E: D0 FA    BNE $BD0A
BD10: 99 00 1A STA $1A00,Y
BD13: 99 00 1B STA $1B00,Y
BD16: 99 00 1C STA $1C00,Y
BD19: 99 00 1D STA $1D00,Y
BD1C: 99 00 1E STA $1E00,Y
BD1F: 99 00 1F STA $1F00,Y
BD22: C8       INY
BD23: D0 EB    BNE $BD10
BD25: 60       RTS
BD26: A9 80    LDA #$80
BD28: 85 80    STA $80
BD2A: A9 1D    LDA #$1D
BD2C: 85 81    STA $81
BD2E: A2 00    LDX #$00
BD30: F0 16    BEQ $BD48
BD32: A9 C0    LDA #$C0
BD34: 85 80    STA $80
BD36: A9 1E    LDA #$1E
BD38: 85 81    STA $81
BD3A: A2 00    LDX #$00
BD3C: F0 0A    BEQ $BD48
BD3E: A5 80    LDA $80
BD40: 69 14    ADC #$14
BD42: 85 80    STA $80
BD44: 90 02    BCC $BD48
BD46: E6 81    INC $81
BD48: A9 00    LDA #$00
BD4A: A0 13    LDY #$13
BD4C: 91 80    STA ($80),Y
BD4E: 88       DEY
BD4F: D0 FB    BNE $BD4C
BD51: A9 80    LDA #$80
BD53: 31 80    AND ($80),Y
BD55: 91 80    STA ($80),Y
BD57: E8       INX
BD58: E0 10    CPX #$10
BD5A: 90 E2    BCC $BD3E
BD5C: 60       RTS
BD5D: 8D 02 B8 STA $B802
BD60: A2 00    LDX #$00
BD62: 8A       TXA
BD63: 0A       ASL
BD64: A8       TAY
BD65: B9 CC AD LDA $ADCC,Y
BD68: 85 80    STA $80
BD6A: B9 CD AD LDA $ADCD,Y
BD6D: 85 81    STA $81
BD6F: B9 EC AD LDA $ADEC,Y
BD72: 85 82    STA $82
BD74: B9 ED AD LDA $ADED,Y
BD77: 85 83    STA $83
BD79: A0 00    LDY #$00
BD7B: B1 80    LDA ($80),Y
BD7D: 29 80    AND #$80
BD7F: 91 80    STA ($80),Y
BD81: B1 82    LDA ($82),Y
BD83: 29 7F    AND #$7F
BD85: 11 80    ORA ($80),Y
BD87: 91 80    STA ($80),Y
BD89: C8       INY
BD8A: B1 82    LDA ($82),Y
BD8C: 91 80    STA ($80),Y
BD8E: C8       INY
BD8F: C0 14    CPY #$14
BD91: 90 F7    BCC $BD8A
BD93: E8       INX
BD94: EC 02 B8 CPX $B802
BD97: 90 C9    BCC $BD62
BD99: 60       RTS
BD9A: A0 0C    LDY #$0C
BD9C: B9 2B B9 LDA $B92B,Y
BD9F: 99 96 03 STA $0396,Y
BDA2: 88       DEY
BDA3: 10 F7    BPL $BD9C
BDA5: AD 68 B9 LDA $B968
BDA8: D0 1F    BNE $BDC9
BDAA: A9 00    LDA #$00
BDAC: 8D B1 03 STA $03B1
BDAF: AE 47 04 LDX $0447
BDB2: E0 02    CPX #$02
BDB4: D0 02    BNE $BDB8
BDB6: A9 08    LDA #$08
BDB8: 8D B2 03 STA $03B2
BDBB: A9 FF    LDA #$FF
BDBD: 8D AF 03 STA $03AF
BDC0: A9 FF    LDA #$FF
BDC2: 8D B0 03 STA $03B0
BDC5: 00 19 C7 INT $C719
BDC8: 60       RTS
BDC9: 4C 6C AE JMP $AE6C
BDCC: C0 19    CPY #$19
BDCE: D4       ??
BDCF: 19 E8 19 ORA $19E8,Y
BDD2: FC       ??
BDD3: 19 10 1A ORA $1A10,Y
BDD6: 24 1A    BIT $1A
BDD8: 38       SEC
BDD9: 1A       ??
BDDA: 4C 1A 60 JMP $601A
BDDD: 1A       ??
BDDE: 74       ??
BDDF: 1A       ??
BDE0: 88       DEY
BDE1: 1A       ??
BDE2: 9C       ??
BDE3: 1A       ??
BDE4: B0 1A    BCS $BE00
BDE6: C4 1A    CPY $1A
BDE8: D8       CLD
BDE9: 1A       ??
BDEA: EC 1A 00 CPX $001A
BDED: 1B       ??
BDEE: 14       ??
BDEF: 1B       ??
BDF0: 28       PLP
BDF1: 1B       ??
BDF2: 3C       ??
BDF3: 1B       ??
BDF4: 50 1B    BVC $BE11
BDF6: 64       ??
BDF7: 1B       ??
BDF8: 78       SEI
BDF9: 1B       ??
BDFA: 8C 1B A0 STY $A01B
BDFD: 1B       ??
BDFE: B4 1B    LDY $1B,X
BE00: C8       INY
BE01: 1B       ??
BE02: DC       ??
BE03: 1B       ??
BE04: F0 1B    BEQ $BE21
BE06: 04       ??
BE07: 1C       ??
BE08: 18       CLC
BE09: 1C       ??
BE0A: 2C 1C 40 BIT $401C
BE0D: 1C       ??
BE0E: 54       ??
BE0F: 1C       ??
BE10: 68       PLA
BE11: 1C       ??
BE12: 7C       ??
BE13: 1C       ??
BE14: 90 1C    BCC $BE32
BE16: A4 1C    LDY $1C
BE18: B8       CLV
BE19: 1C       ??
BE1A: CC 1C E0 CPY $E01C
BE1D: 1C       ??
BE1E: F4       ??
BE1F: 1C       ??
BE20: 08       PHP
BE21: 1D 1C 1D ORA $1D1C,X
BE24: 30 1D    BMI $BE43
BE26: 44       ??
BE27: 1D 58 1D ORA $1D58,X
BE2A: 6C 1D 80 JMP ($801D)
BE2D: 1D 94 1D ORA $1D94,X
BE30: A8       TAY
BE31: 1D BC 1D ORA $1DBC,X
BE34: D0 1D    BNE $BE53
BE36: E4 1D    CPX $1D
BE38: F8       SED
BE39: 1D 0C 1E ORA $1E0C,X
BE3C: 20 1E 34 JSR $341E
BE3F: 1E 48 1E ASL $1E48,X
BE42: 5C       ??
BE43: 1E 70 1E ASL $1E70,X
BE46: 84 1E    STY $1E
BE48: 98       TYA
BE49: 1E AC 1E ASL $1EAC,X
BE4C: C0 1E    CPY #$1E
BE4E: D4       ??
BE4F: 1E E8 1E ASL $1EE8,X
BE52: FC       ??
BE53: 1E 10 1F ASL $1F10,X
BE56: 24 1F    BIT $1F
BE58: 38       SEC
BE59: 1F       ??
BE5A: 4C 1F 60 JMP $601F
BE5D: 1F       ??
BE5E: 74       ??
BE5F: 1F       ??
BE60: 88       DEY
BE61: 1F       ??
BE62: 9C       ??
BE63: 1F       ??
BE64: B0 1F    BCS $BE85
BE66: C4 1F    CPY $1F
BE68: D8       CLD
BE69: 1F       ??
BE6A: EC 1F A9 CPX $A91F
BE6D: 00 85 65 INT $6585
BE70: A5 65    LDA $65
BE72: 0A       ASL
BE73: AA       TAX
BE74: BD E5 AE LDA $AEE5,X
BE77: 85 88    STA $88
BE79: BD E6 AE LDA $AEE6,X
BE7C: 85 89    STA $89
BE7E: A9 FF    LDA #$FF
BE80: 85 66    STA $66
BE82: A4 66    LDY $66
BE84: C8       INY
BE85: C0 14    CPY #$14
BE87: F0 4F    BEQ $BED8
BE89: 84 66    STY $66
BE8B: B1 88    LDA ($88),Y
BE8D: F0 F3    BEQ $BE82
BE8F: 10 26    BPL $BEB7
BE91: 85 92    STA $92
BE93: C8       INY
BE94: B1 88    LDA ($88),Y
BE96: 85 93    STA $93
BE98: A5 65    LDA $65
BE9A: 0A       ASL
BE9B: 8D C2 03 STA $03C2
BE9E: A5 66    LDA $66
BEA0: 8D C0 03 STA $03C0
BEA3: A5 88    LDA $88
BEA5: 48       PHA
BEA6: A5 89    LDA $89
BEA8: 48       PHA
BEA9: 00 0C C7 INT $C70C
BEAC: 68       PLA
BEAD: 85 89    STA $89
BEAF: 68       PLA
BEB0: 85 88    STA $88
BEB2: E6 66    INC $66
BEB4: 4C 82 AE JMP $AE82
BEB7: 85 80    STA $80
BEB9: A5 65    LDA $65
BEBB: 0A       ASL
BEBC: 8D C2 03 STA $03C2
BEBF: A5 66    LDA $66
BEC1: 8D C0 03 STA $03C0
BEC4: A5 88    LDA $88
BEC6: 48       PHA
BEC7: A5 89    LDA $89
BEC9: 48       PHA
BECA: A5 80    LDA $80
BECC: 00 13 C7 INT $C713
BECF: 68       PLA
BED0: 85 89    STA $89
BED2: 68       PLA
BED3: 85 88    STA $88
BED5: 4C 82 AE JMP $AE82
BED8: A6 65    LDX $65
BEDA: E8       INX
BEDB: E0 05    CPX #$05
BEDD: 86 65    STX $65
BEDF: B0 03    BCS $BEE4
BEE1: 4C 70 AE JMP $AE70
BEE4: 60       RTS
BEE5: C0 02    CPY #$02
BEE7: D4       ??
BEE8: 02       ??
BEE9: E8       INX
BEEA: 02       ??
BEEB: FC       ??
BEEC: 02       ??
BEED: 10 03    BPL $BEF2
BEEF: A9 00    LDA #$00
BEF1: 85 80    STA $80
BEF3: A9 20    LDA #$20
BEF5: 85 81    STA $81
BEF7: A0 00    LDY #$00
BEF9: A2 20    LDX #$20
BEFB: A9 00    LDA #$00
BEFD: 91 80    STA ($80),Y
BEFF: C8       INY
BF00: D0 FB    BNE $BEFD
BF02: E6 81    INC $81
BF04: CA       DEX
BF05: D0 F6    BNE $BEFD
BF07: 60       RTS
BF08: A9 01    LDA #$01
BF0A: 85 80    STA $80
BF0C: A9 70    LDA #$70
BF0E: 85 81    STA $81
BF10: 20 3B AF JSR $AF3B
BF13: A9 00    LDA #$00
BF15: 85 82    STA $82
BF17: A9 70    LDA #$70
BF19: 85 83    STA $83
BF1B: 98       TYA
BF1C: D0 01    BNE $BF1F
BF1E: 60       RTS
BF1F: C8       INY
BF20: 84 57    STY $57
BF22: A0 00    LDY #$00
BF24: B1 80    LDA ($80),Y
BF26: 85 82    STA $82
BF28: C8       INY
BF29: B1 80    LDA ($80),Y
BF2B: 85 83    STA $83
BF2D: 38       SEC
BF2E: A5 82    LDA $82
BF30: E5 57    SBC $57
BF32: 85 82    STA $82
BF34: A5 83    LDA $83
BF36: E9 00    SBC #$00
BF38: 85 83    STA $83
BF3A: 60       RTS
BF3B: A0 01    LDY #$01
BF3D: B1 80    LDA ($80),Y
BF3F: 88       DEY
BF40: 11 80    ORA ($80),Y
BF42: D0 01    BNE $BF45
BF44: 60       RTS
BF45: A0 03    LDY #$03
BF47: C8       INY
BF48: B1 80    LDA ($80),Y
BF4A: D0 FB    BNE $BF47
BF4C: C8       INY
BF4D: 60       RTS
BF4E: 20 2C 7D JSR $7D2C
BF51: 20 17 86 JSR $8617
BF54: 6C 40 00 JMP ($0040)
BF57: 20 60 AF JSR $AF60
BF5A: 8A       TXA
BF5B: A0 00    LDY #$00
BF5D: 91 40    STA ($40),Y
BF5F: 60       RTS
BF60: 20 2C 7D JSR $7D2C
BF63: 20 17 86 JSR $8617
BF66: 20 F2 9C JSR $9CF2
BF69: 4C C7 85 JMP $85C7