; nc3000 GVBASIC+.bin disassembled
; entry = $4060
4010: 00 17 05 INT $0517
4013: A2 39    LDX #$39
4015: BD 37 40 LDA $4037,X
4018: 9D 8C 08 STA $088C,X
401B: CA       DEX
401C: D0 F7    BNE $4015
401E: A9 00    LDA #$00
4020: 8D CC 08 STA $08CC
4023: A9 25    LDA #$25
4025: 85 E0    STA $E0
4027: A9 06    LDA #$06
4029: 85 E1    STA $E1
402B: 00 25 05 INT $0525
402E: 20 50 40 JSR $4050
4031: 4C 00 44 JMP $4400

4038: .db "/应用程序"
4041: .db "/GVBASIC+.bin"

404F: 00 FF

4050: A9 00    LDA #$00
4052: A2 10    LDX #$10
4054: 9D 8C 08 STA $088C,X
4057: CA       DEX
4058: D0 FA    BNE $4054
405A: 60       RTS

4060: A2 0D    LDX #$0D
4062: BD 8C 08 LDA $088C,X
4065: 9D 41 40 STA $4041,X
4068: CA       DEX
4069: D0 F7    BNE $4062
406B: 4C 10 40 JMP $4010

4400: 4C 03 44 JMP $4403
4403: BA       TSX
4404: 86 5F    STX $5F
4406: A5 0A    LDA $0A
4408: 8D 28 B8 STA $B828
440B: 20 81 4C JSR $4C81
440E: 90 0D    BCC $441D

; 切换 /BASIC文件 工作目录失败，报错退出
4410: AD CC 08 LDA $08CC
4413: C9 0E    CMP #$0E
4415: D0 03    BNE $441A
4417: 20 8F 4D JSR $4D8F
441A: 4C B7 47 JMP $47B7

441D: 00 2A C7 INT $C72A
4420: A9 FF    LDA #$FF
4422: 8D AF 03 STA $03AF
4425: A9 FF    LDA #$FF
4427: 8D B0 03 STA $03B0
442A: 00 19 C7 INT $C719
442D: A9 00    LDA #$00
442F: 85 64    STA $64
4431: 85 62    STA $62
4433: 85 63    STA $63
4435: 20 A1 4C JSR $4CA1
4438: A5 60    LDA $60
443A: 05 61    ORA $61
443C: F0 0E    BEQ $444C
443E: A5 62    LDA $62
4440: 85 80    STA $80
4442: A5 63    LDA $63
4444: 85 81    STA $81
4446: 20 E9 47 JSR $47E9
4449: 20 54 49 JSR $4954
444C: A5 60    LDA $60
444E: 05 61    ORA $61
4450: D0 22    BNE $4474
4452: 8A       TXA
4453: 48       PHA
4454: A9 00    LDA #$00
4456: A2 09    LDX #$09
4458: 9D 88 03 STA $0388,X
445B: CA       DEX
445C: D0 FA    BNE $4458
445E: 68       PLA
445F: AA       TAX
4460: 00 2A C7 INT $C72A
4463: A9 FF    LDA #$FF
4465: 8D AF 03 STA $03AF
4468: A9 FF    LDA #$FF
446A: 8D B0 03 STA $03B0
446D: 00 19 C7 INT $C719
4470: A9 1C    LDA #$1C
4472: D0 2B    BNE $449F

4474: A4 64    LDY $64
4476: A2 00    LDX #$00
4478: 00 1D C7 INT $C71D
447B: 20 BA 49 JSR $49BA
447E: A9 00    LDA #$00
4480: 8D B1 03 STA $03B1
4483: A9 00    LDA #$00
4485: 8D B2 03 STA $03B2
4488: A9 80    LDA #$80
448A: 8D B3 03 STA $03B3
448D: A9 FF    LDA #$FF
448F: 8D AF 03 STA $03AF
4492: A9 FF    LDA #$FF
4494: 8D B0 03 STA $03B0
4497: 00 19 C7 INT $C719
449A: 00 06 C0 INT $C006
449D: F0 FB    BEQ $449A

; 显示完basic文件列表，读取按键
449F: AA       TAX
44A0: A0 0D    LDY #$0D
44A2: A9 B0    LDA #$B0
44A4: 85 80    STA $80
44A6: A9 44    LDA #$44
44A8: 85 81    STA $81
44AA: 20 3C E0 JSR $E03C
44AD: 4C 4C 44 JMP $444C

44B0: .db 21, 22, 14, 20, 23, 19, 13, 28, 29, 30, 31, 25, 27
44BD: .dw $44D7 ; 下
44BF: .dw $44D7 ; 右
44C1: .dw $4501 ; 下翻页
44C3: .dw $455A ; 上
44C5: .dw $455A ; 左
44C7: .dw $458A ; 上翻页
44C9: .dw $45E3 ; 输入
44CB: .dw $465E ; f1 新建
44CD: .dw $4661 ; f2 删除
44CF: .dw $46CF ; f3 帮助
44D1: .dw $46D3 ; f4 修改
44D3: .dw $46CF ; 帮助
44D5: .dw $47B7 ; 跳出

; 下移
44D7: E6 62    INC $62
44D9: D0 02    BNE $44DD
44DB: E6 63    INC $63
44DD: A5 63    LDA $63
44DF: C5 61    CMP $61
44E1: D0 04    BNE $44E7
44E3: A5 62    LDA $62
44E5: C5 60    CMP $60
44E7: 90 0B    BCC $44F4
44E9: A5 62    LDA $62
44EB: D0 02    BNE $44EF
44ED: C6 63    DEC $63
44EF: C6 62    DEC $62
44F1: 4C 12 E0 JMP $E012
44F4: A6 64    LDX $64
44F6: E8       INX
44F7: E0 05    CPX #$05
44F9: 90 03    BCC $44FE
44FB: 4C CB 47 JMP $47CB
44FE: 86 64    STX $64
4500: 60       RTS

; 下翻页
4501: A5 62    LDA $62
4503: 85 80    STA $80
4505: A5 63    LDA $63
4507: 85 81    STA $81
4509: 18       CLC
450A: A5 80    LDA $80
450C: 69 05    ADC #$05
450E: 85 80    STA $80
4510: 90 02    BCC $4514
4512: E6 81    INC $81
4514: A5 81    LDA $81
4516: C5 61    CMP $61
4518: D0 04    BNE $451E
451A: A5 80    LDA $80
451C: C5 60    CMP $60
451E: 90 2F    BCC $454F
4520: 38       SEC
4521: A5 80    LDA $80
4523: E5 60    SBC $60
4525: 85 80    STA $80
4527: A5 81    LDA $81
4529: E5 61    SBC $61
452B: 85 81    STA $81
452D: A5 64    LDA $64
452F: E5 80    SBC $80
4531: B0 03    BCS $4536
4533: 4C 12 E0 JMP $E012
4536: D0 03    BNE $453B
4538: 4C 12 E0 JMP $E012
453B: 85 64    STA $64
453D: C6 64    DEC $64
453F: A5 60    LDA $60
4541: 85 80    STA $80
4543: A5 61    LDA $61
4545: 85 81    STA $81
4547: A5 80    LDA $80
4549: D0 02    BNE $454D
454B: C6 81    DEC $81
454D: C6 80    DEC $80
454F: A5 80    LDA $80
4551: 85 62    STA $62
4553: A5 81    LDA $81
4555: 85 63    STA $63
4557: 4C CB 47 JMP $47CB

; 上移
455A: A5 62    LDA $62
455C: 85 80    STA $80
455E: A5 63    LDA $63
4560: 85 81    STA $81
4562: A5 80    LDA $80
4564: D0 02    BNE $4568
4566: C6 81    DEC $81
4568: C6 80    DEC $80
456A: A5 80    LDA $80
456C: 25 81    AND $81
456E: C9 FF    CMP #$FF
4570: D0 03    BNE $4575
4572: 4C 12 E0 JMP $E012
4575: A5 80    LDA $80
4577: 85 62    STA $62
4579: A5 81    LDA $81
457B: 85 63    STA $63
457D: A6 64    LDX $64
457F: E0 00    CPX #$00
4581: D0 03    BNE $4586
4583: 4C CB 47 JMP $47CB
4586: CA       DEX
4587: 86 64    STX $64
4589: 60       RTS

; 上翻页
458A: A5 62    LDA $62
458C: 85 80    STA $80
458E: A5 63    LDA $63
4590: 85 81    STA $81
4592: 38       SEC
4593: A5 80    LDA $80
4595: E5 64    SBC $64
4597: 85 80    STA $80
4599: A5 81    LDA $81
459B: E9 00    SBC #$00
459D: 85 81    STA $81
459F: B0 03    BCS $45A4
45A1: 4C 12 E0 JMP $E012
45A4: A5 80    LDA $80
45A6: 05 81    ORA $81
45A8: D0 03    BNE $45AD
45AA: 4C 12 E0 JMP $E012
45AD: 38       SEC
45AE: A5 80    LDA $80
45B0: E9 05    SBC #$05
45B2: 85 80    STA $80
45B4: A5 81    LDA $81
45B6: E9 00    SBC #$00
45B8: 85 81    STA $81
45BA: A5 80    LDA $80
45BC: 05 81    ORA $81
45BE: F0 02    BEQ $45C2
45C0: B0 13    BCS $45D5
45C2: A5 64    LDA $64
45C4: 85 80    STA $80
45C6: A9 00    LDA #$00
45C8: 85 81    STA $81
45CA: A5 80    LDA $80
45CC: 85 62    STA $62
45CE: A5 81    LDA $81
45D0: 85 63    STA $63
45D2: 4C CB 47 JMP $47CB
45D5: 18       CLC
45D6: A5 80    LDA $80
45D8: 65 64    ADC $64
45DA: 85 80    STA $80
45DC: 90 02    BCC $45E0
45DE: E6 81    INC $81
45E0: 4C CA 45 JMP $45CA

; 输入
45E3: 20 3B 4C JSR $4C3B
45E6: F0 14    BEQ $45FC

; 显示 非BAS文件
45E8: A9 00    LDA #$00
45EA: 8D 32 0A STA $0A32
45ED: A2 1B    LDX #$1B
45EF: A0 4E    LDY #$4E
45F1: A9 00    LDA #$00
45F3: 00 12 CA INT $CA12
45F6: 20 2A E0 JSR $E02A
45F9: 4C CB 47 JMP $47CB

45FC: 20 38 49 JSR $4938
45FF: A5 5F    LDA $5F
4601: 48       PHA
4602: AD 73 BA LDA $BA73
4605: 48       PHA
4606: AD 74 BA LDA $BA74
4609: 48       PHA
460A: A5 62    LDA $62
460C: 48       PHA
460D: A5 63    LDA $63
460F: 48       PHA
4610: A5 64    LDA $64
4612: 48       PHA
4613: 20 D7 51 JSR $51D7   ; 运行bas文件
4616: 68       PLA
4617: 85 64    STA $64
4619: 68       PLA
461A: 85 63    STA $63
461C: 68       PLA
461D: 85 62    STA $62
461F: 68       PLA
4620: 8D 74 BA STA $BA74
4623: 68       PLA
4624: 8D 73 BA STA $BA73
4627: 68       PLA
4628: 85 5F    STA $5F
462A: A5 62    LDA $62
462C: 85 80    STA $80
462E: A5 63    LDA $63
4630: 85 81    STA $81
4632: 38       SEC
4633: A5 80    LDA $80
4635: E5 64    SBC $64
4637: 85 80    STA $80
4639: A5 81    LDA $81
463B: E9 00    SBC #$00
463D: 85 81    STA $81
463F: 20 E9 47 JSR $47E9
4642: 20 A1 4C JSR $4CA1
4645: 20 54 49 JSR $4954
4648: 20 5A 46 JSR $465A
464B: 8A       TXA
464C: 48       PHA
464D: A9 00    LDA #$00
464F: A2 09    LDX #$09
4651: 9D 88 03 STA $0388,X
4654: CA       DEX
4655: D0 FA    BNE $4651
4657: 68       PLA
4658: AA       TAX
4659: 60       RTS

465A: 00 27 04 INT $0427
465D: 60       RTS

465E: 4C F2 49 JMP $49F2

4661: A9 00    LDA #$00
4663: 8D 32 0A STA $0A32
4666: A2 07    LDX #$07
4668: A0 4E    LDY #$4E
466A: A9 02    LDA #$02
466C: 00 12 CA INT $CA12
466F: C9 79    CMP #$79
4671: F0 03    BEQ $4676
4673: 4C CB 47 JMP $47CB
4676: 20 38 49 JSR $4938
4679: 00 0E 05 INT $050E
467C: 90 03    BCC $4681
467E: 4C B8 4D JMP $4DB8
4681: A5 60    LDA $60
4683: 85 80    STA $80
4685: A5 61    LDA $61
4687: 85 81    STA $81
4689: A5 80    LDA $80
468B: D0 02    BNE $468F
468D: C6 81    DEC $81
468F: C6 80    DEC $80
4691: A5 63    LDA $63
4693: C5 81    CMP $81
4695: D0 04    BNE $469B
4697: A5 62    LDA $62
4699: C5 80    CMP $80
469B: D0 10    BNE $46AD
469D: C6 64    DEC $64
469F: 10 04    BPL $46A5
46A1: A9 00    LDA #$00
46A3: 85 64    STA $64
46A5: A5 62    LDA $62
46A7: D0 02    BNE $46AB
46A9: C6 63    DEC $63
46AB: C6 62    DEC $62
46AD: A5 60    LDA $60
46AF: D0 02    BNE $46B3
46B1: C6 61    DEC $61
46B3: C6 60    DEC $60
46B5: A5 60    LDA $60
46B7: 05 61    ORA $61
46B9: D0 10    BNE $46CB
46BB: 00 2A C7 INT $C72A
46BE: A9 FF    LDA #$FF
46C0: 8D AF 03 STA $03AF
46C3: A9 FF    LDA #$FF
46C5: 8D B0 03 STA $03B0
46C8: 00 19 C7 INT $C719
46CB: 20 CB 47 JSR $47CB
46CE: 60       RTS

46CF: 20 12 E0 JSR $E012
46D2: 60       RTS

46D3: 20 3B 4C JSR $4C3B
46D6: F0 14    BEQ $46EC

; 显示 非BAS文件
46D8: A9 00    LDA #$00
46DA: 8D 32 0A STA $0A32
46DD: A2 1B    LDX #$1B
46DF: A0 4E    LDY #$4E
46E1: A9 00    LDA #$00
46E3: 00 12 CA INT $CA12
46E6: 20 2A E0 JSR $E02A
46E9: 4C CB 47 JMP $47CB

46EC: 20 38 49 JSR $4938
46EF: A9 C0    LDA #$C0
46F1: 8D C9 08 STA $08C9
46F4: 00 15 05 INT $0515
46F7: 90 03    BCC $46FC
46F9: 4C B8 4D JMP $4DB8
46FC: AD C8 08 LDA $08C8
46FF: 8D 75 BA STA $BA75
4702: 00 14 05 INT $0514
4705: AD FD 08 LDA $08FD
4708: F0 03    BEQ $470D
470A: 4C B8 4D JMP $4DB8
470D: AD FB 08 LDA $08FB
4710: 8D 77 BA STA $BA77
4713: AD FC 08 LDA $08FC
4716: 8D 78 BA STA $BA78
4719: A9 A0    LDA #$A0
471B: 85 52    STA $52
471D: AD 78 BA LDA $BA78
4720: C9 40    CMP #$40
4722: D0 05    BNE $4729
4724: AD 77 BA LDA $BA77
4727: C9 00    CMP #$00
4729: 90 2A    BCC $4755
472B: F0 28    BEQ $4755
472D: A9 20    LDA #$20
472F: 85 52    STA $52
4731: A9 00    LDA #$00
4733: 8D 32 0A STA $0A32
4736: A2 11    LDX #$11
4738: A0 4E    LDY #$4E
473A: A9 00    LDA #$00
473C: 00 12 CA INT $CA12
473F: 20 2A E0 JSR $E02A
4742: 20 A5 53 JSR $53A5
4745: AD 75 BA LDA $BA75
4748: 8D C8 08 STA $08C8
474B: 00 17 05 INT $0517
474E: 20 5A 46 JSR $465A
4751: 20 CB 47 JSR $47CB
4754: 60       RTS
4755: 20 57 53 JSR $5357
4758: 4C 2E 4A JMP $4A2E
475B: 60       RTS
475C: FF       ??
475D: FF       ??
475E: FF       ??
475F: FF       ??
4760: 47       ??
4761: 56 42    LSR $42,X
4763: 61 73    ADC ($73,X)
4765: 69 63    ADC #$63
4767: 2B       ??
4768: 20 6D 61 JSR $616D
476B: 64       ??
476C: 65 20    ADC $20
476E: 62       ??
476F: 79 20 44 ADC $4420,Y
4772: 65 6E    ADC $6E
4774: 7A       ??
4775: 68       PLA
4776: FF       ??
4777: FF       ??
4778: FF       ??
4779: FF       ??
477A: FF       ??
477B: FF       ??
477C: FF       ??
477D: FF       ??
477E: FF       ??
477F: FF       ??
4780: FF       ??
4781: FF       ??
4782: FF       ??
4783: FF       ??
4784: FF       ??
4785: FF       ??
4786: FF       ??
4787: FF       ??
4788: FF       ??
4789: FF       ??
478A: FF       ??
478B: FF       ??
478C: FF       ??
478D: FF       ??
478E: FF       ??
478F: FF       ??
4790: FF       ??
4791: FF       ??
4792: FF       ??
4793: FF       ??
4794: FF       ??
4795: FF       ??
4796: FF       ??
4797: FF       ??
4798: 60       RTS
4799: A2 64    LDX #$64
479B: BD 2E 4E LDA $4E2E,X
479E: 9D BF 02 STA $02BF,X
47A1: CA       DEX
47A2: D0 F7    BNE $479B
47A4: A9 FF    LDA #$FF
47A6: 8D AF 03 STA $03AF
47A9: A9 FF    LDA #$FF
47AB: 8D B0 03 STA $03B0
47AE: 00 19 C7 INT $C719
47B1: 00 06 C0 INT $C006
47B4: 4C B1 47 JMP $47B1

47B7: 00 12 03 INT $0312

47BA: 00 A2 09 INT $09A2
47BD: 9D 88 03 STA $0388,X
47C0: CA       DEX
47C1: D0 FA    BNE $47BD
47C3: 68       PLA
47C4: AA       TAX
47C5: A6 5F    LDX $5F
47C7: 9A       TXS
47C8: 4C 6C 52 JMP $526C

47CB: A5 62    LDA $62
47CD: 85 80    STA $80
47CF: A5 63    LDA $63
47D1: 85 81    STA $81
47D3: 38       SEC
47D4: A5 80    LDA $80
47D6: E5 64    SBC $64
47D8: 85 80    STA $80
47DA: A5 81    LDA $81
47DC: E9 00    SBC #$00
47DE: 85 81    STA $81
47E0: 20 E9 47 JSR $47E9
47E3: 20 54 49 JSR $4954
47E6: 60       RTS

47E7: 60       RTS
47E8: EA       NOP

47E9: A5 0A    LDA $0A
47EB: 48       PHA
47EC: A5 0A    LDA $0A
47EE: 29 F0    AND #$F0
47F0: 09 01    ORA #$01
47F2: 85 0A    STA $0A
47F4: A5 80    LDA $80
47F6: 8D 05 09 STA $0905
47F9: A5 81    LDA $81
47FB: 8D 06 09 STA $0906
47FE: A9 00    LDA #$00
4800: 85 65    STA $65
4802: AD D2 08 LDA $08D2
4805: 8D F6 08 STA $08F6
4808: AD D3 08 LDA $08D3
480B: 8D F7 08 STA $08F7
480E: A9 C0    LDA #$C0
4810: 8D 00 09 STA $0900
4813: 00 1A 05 INT $051A
4816: 90 03    BCC $481B
4818: 4C 33 49 JMP $4933
481B: 00 1B 05 INT $051B
481E: 90 03    BCC $4823
4820: 4C 33 49 JMP $4933
4823: A2 12    LDX #$12
4825: BD D4 08 LDA $08D4,X
4828: 8D F8 08 STA $08F8
482B: BD D5 08 LDA $08D5,X
482E: 8D F9 08 STA $08F9
4831: A9 00    LDA #$00
4833: 8D 18 09 STA $0918
4836: A9 00    LDA #$00
4838: 8D 19 09 STA $0919
483B: AD 05 09 LDA $0905
483E: 8D 09 CC STA $CC09
4841: AD 06 09 LDA $0906
4844: 8D 0A CC STA $CC0A
4847: A9 00    LDA #$00
4849: 8D 0B CC STA $CC0B
484C: A9 00    LDA #$00
484E: 8D 0C CC STA $CC0C
4851: A9 56    LDA #$56
4853: 85 EA    STA $EA
4855: A9 C8    LDA #$C8
4857: 85 EB    STA $EB
4859: A9 56    LDA #$56
485B: 85 E2    STA $E2
485D: A9 C8    LDA #$C8
485F: 85 E3    STA $E3
4861: 00 06 05 INT $0506
4864: 90 03    BCC $4869
4866: 4C 33 49 JMP $4933
4869: AD 19 09 LDA $0919
486C: C9 00    CMP #$00
486E: D0 05    BNE $4875
4870: AD 18 09 LDA $0918
4873: C9 00    CMP #$00
4875: D0 03    BNE $487A
4877: 4C E6 48 JMP $48E6
487A: A9 00    LDA #$00
487C: 8D F6 03 STA $03F6
487F: A0 00    LDY #$00
4881: B1 E2    LDA ($E2),Y
4883: 8D F6 08 STA $08F6
4886: C8       INY
4887: B1 E2    LDA ($E2),Y
4889: 8D F7 08 STA $08F7
488C: AD F7 08 LDA $08F7
488F: C9 FF    CMP #$FF
4891: D0 05    BNE $4898
4893: AD F6 08 LDA $08F6
4896: C9 FF    CMP #$FF
4898: D0 03    BNE $489D
489A: 4C 2E 49 JMP $492E
489D: 00 20 05 INT $0520
48A0: B0 44    BCS $48E6
48A2: AD 0C CC LDA $CC0C
48A5: CD 0A CC CMP $CC0A
48A8: D0 06    BNE $48B0
48AA: AD 0B CC LDA $CC0B
48AD: CD 09 CC CMP $CC09
48B0: F0 0B    BEQ $48BD
48B2: EE 0B CC INC $CC0B
48B5: D0 03    BNE $48BA
48B7: EE 0C CC INC $CC0C
48BA: 4C E6 48 JMP $48E6
48BD: A5 65    LDA $65
48BF: 0A       ASL
48C0: AA       TAX
48CB: 38       SEC
48CC: A5 82    LDA $82
48CE: E9 02    SBC #$02
48D0: 85 82    STA $82
48D2: B0 02    BCS $48D6
48D4: C6 83    DEC $83
48D6: A0 02    LDY #$02
48D8: B1 E2    LDA ($E2),Y
48DA: 91 82    STA ($82),Y
48DC: F0 44    BEQ $4922
48DE: C8       INY
48DF: C0 10    CPY #$10
48E1: 90 F5    BCC $48D8
48E3: 4C 22 49 JMP $4922
48E6: 18       CLC
48E7: A5 E2    LDA $E2
48E9: 69 10    ADC #$10
48EB: 85 E2    STA $E2
48ED: 90 02    BCC $48F1
48EF: E6 E3    INC $E3
48F1: A5 E3    LDA $E3
48F3: C9 CA    CMP #$CA
48F5: D0 04    BNE $48FB
48F7: A5 E2    LDA $E2
48F9: C9 56    CMP #$56
48FB: B0 03    BCS $4900
48FD: 4C 7A 48 JMP $487A
4900: 18       CLC
4901: AD 18 09 LDA $0918
4904: 69 00    ADC #$00
4906: 8D 18 09 STA $0918
4909: AD 19 09 LDA $0919
490C: 69 02    ADC #$02
490E: 8D 19 09 STA $0919
4911: AD 19 09 LDA $0919
4914: C9 40    CMP #$40
4916: D0 05    BNE $491D
4918: AD 18 09 LDA $0918
491B: C9 00    CMP #$00
491D: B0 14    BCS $4933
491F: 4C 51 48 JMP $4851
4922: E6 65    INC $65
4924: A5 65    LDA $65
4926: C9 05    CMP #$05
4928: 90 BC    BCC $48E6
492A: 18       CLC
492B: 4C 34 49 JMP $4934
492E: A9 02    LDA #$02
4930: 8D CC 08 STA $08CC
4933: 38       SEC
4934: 68       PLA
4935: 85 0A    STA $0A
4937: 60       RTS

4938: A5 64    LDA $64
493A: 0A       ASL
493B: AA       TAX
493C: BD DA 4D LDA $4DDA,X
493F: 85 80    STA $80
4941: BD DB 4D LDA $4DDB,X
4944: 85 81    STA $81
4946: A0 0D    LDY #$0D
4948: B1 80    LDA ($80),Y
494A: 99 8D 08 STA $088D,Y
494D: 99 61 BA STA $BA61,Y
4950: 88       DEY
4951: 10 F5    BPL $4948
4953: 60       RTS

4954: A9 00    LDA #$00
4956: 85 57    STA $57
4958: A5 65    LDA $65
495A: D0 03    BNE $495F
495C: 4C 95 49 JMP $4995
495F: A5 57    LDA $57
4961: 0A       ASL
4962: AA       TAX
4963: BD DA 4D LDA $4DDA,X
4966: 85 80    STA $80
4968: BD DB 4D LDA $4DDB,X
496B: 85 81    STA $81
496D: BD E4 4D LDA $4DE4,X
4970: 85 82    STA $82
4972: BD E5 4D LDA $4DE5,X
4975: 85 83    STA $83
4977: A0 00    LDY #$00
4979: B1 80    LDA ($80),Y
497B: F0 07    BEQ $4984
497D: 91 82    STA ($82),Y
497F: C8       INY
4980: C0 0E    CPY #$0E
4982: 90 F5    BCC $4979
4984: A9 00    LDA #$00
4986: 91 82    STA ($82),Y
4988: C8       INY
4989: C0 14    CPY #$14
498B: 90 F7    BCC $4984
498D: E6 57    INC $57
498F: A5 57    LDA $57
4991: C5 65    CMP $65
4993: D0 CC    BNE $4961

4995: C9 05    CMP #$05
4997: D0 01    BNE $499A
4999: 60       RTS
499A: 0A       ASL
499B: AA       TAX
499C: BD E4 4D LDA $4DE4,X
499F: 85 80    STA $80
49A1: BD E5 4D LDA $4DE5,X
49A4: 85 81    STA $81
49A6: 20 B0 49 JSR $49B0
49A9: E6 57    INC $57
49AB: A5 57    LDA $57
49AD: 4C 95 49 JMP $4995
49B0: A9 00    LDA #$00
49B2: A0 13    LDY #$13
49B4: 91 80    STA ($80),Y
49B6: 88       DEY
49B7: 10 FB    BPL $49B4
49B9: 60       RTS
49BA: A5 62    LDA $62
49BC: 85 82    STA $82
49BE: A5 63    LDA $63
49C0: 85 83    STA $83
49C2: A5 60    LDA $60
49C4: 85 80    STA $80
49C6: A5 61    LDA $61
49C8: 85 81    STA $81
49CA: A5 80    LDA $80
49CC: D0 02    BNE $49D0
49CE: C6 81    DEC $81
49D0: C6 80    DEC $80
49D2: 00 2C C7 INT $C72C
49D5: A5 62    LDA $62
49D7: 85 80    STA $80
49D9: A5 63    LDA $63
49DB: 85 81    STA $81
49DD: E6 80    INC $80
49DF: D0 02    BNE $49E3
49E1: E6 81    INC $81
49E3: 00 2D C7 INT $C72D
49E6: 60       RTS
49E7: A9 00    LDA #$00
49E9: A0 63    LDY #$63
49EB: 99 2A B8 STA $B82A,Y
49EE: 88       DEY
49EF: 10 FA    BPL $49EB
49F1: 60       RTS

49F2: 8A       TXA
49F3: 48       PHA
49F4: A9 00    LDA #$00
49F6: A2 09    LDX #$09
49F8: 9D 88 03 STA $0388,X ; clear icons
49FB: CA       DEX
49FC: D0 FA    BNE $49F8
49FE: 68       PLA
49FF: AA       TAX

4A00: A9 00    LDA #$00
4A02: 8D 32 0A STA $0A32
4A05: A2 F3    LDX #$F3
4A07: A0 4D    LDY #$4D
4A09: A9 02    LDA #$02
4A0B: 00 12 CA INT $CA12 ; 询问是否 创建文件
4A0E: C9 79    CMP #$79 ; 选择 yes ?
4A10: F0 0F    BEQ $4A21
4A12: A5 60    LDA $60
4A14: 05 61    ORA $61
4A16: D0 03    BNE $4A1B
4A18: 4C B8 4D JMP $4DB8
4A1B: 20 5A 46 JSR $465A
4A1E: 4C CB 47 JMP $47CB

4A21: A2 12    LDX #$12
4A23: A9 00    LDA #$00
4A25: 9D 60 BA STA $BA60,X
4A28: CA       DEX
4A29: D0 F8    BNE $4A23
4A2B: 20 11 53 JSR $5311
4A2E: AD B4 03 LDA $03B4
4A31: 48       PHA
4A32: AD B5 03 LDA $03B5
4A35: 48       PHA
4A36: AD 91 03 LDA $0391
4A39: 48       PHA
4A3A: AD B3 03 LDA $03B3
4A3D: 48       PHA
4A3E: 20 87 4A JSR $4A87 ; ESC 菜单
4A41: 68       PLA
4A42: 8D B3 03 STA $03B3
4A45: 68       PLA
4A46: 8D 91 03 STA $0391
4A49: 68       PLA
4A4A: 8D B5 03 STA $03B5
4A4D: 68       PLA
4A4E: 8D B4 03 STA $03B4
4A51: A6 57    LDX $57
4A53: F0 1B    BEQ $4A70
4A55: E0 01    CPX #$01
4A57: D0 06    BNE $4A5F
4A59: 20 2E 55 JSR $552E
4A5C: 4C 2E 4A JMP $4A2E
4A5F: 8A       TXA
4A60: 48       PHA
4A61: A9 00    LDA #$00
4A63: A2 09    LDX #$09
4A65: 9D 88 03 STA $0388,X
4A68: CA       DEX
4A69: D0 FA    BNE $4A65
4A6B: 68       PLA
4A6C: AA       TAX
4A6D: 4C 12 4A JMP $4A12
4A70: 90 BC    BCC $4A2E
4A72: 20 CB 47 JSR $47CB
4A75: 20 5A 46 JSR $465A
4A78: 8A       TXA
4A79: 48       PHA
4A7A: A9 00    LDA #$00
4A7C: A2 09    LDX #$09
4A7E: 9D 88 03 STA $0388,X
4A81: CA       DEX
4A82: D0 FA    BNE $4A7E
4A84: 68       PLA
4A85: AA       TAX
4A86: 60       RTS

4A87: BA       TSX
4A88: 86 57    STX $57
4A8A: A2 2B    LDX #$2B
4A8C: A0 4F    LDY #$4F
4A8E: 00 02 CB INT $CB02
4A91: 60       RTS

4A92: 00 2A C7 INT $C72A
4A95: A2 0D    LDX #$0D
4A97: BD BD 4E LDA $4EBD,X
4A9A: 9D BF 02 STA $02BF,X
4A9D: CA       DEX
4A9E: D0 F7    BNE $4A97
4AA0: A9 0C    LDA #$0C
4AA2: 8D 4A 04 STA $044A
4AA5: AD 91 03 LDA $0391
4AA8: 09 01    ORA #$01
4AAA: 8D 91 03 STA $0391
4AAD: A9 00    LDA #$00
4AAF: 8D 47 04 STA $0447
4AB2: A9 00    LDA #$00
4AB4: 8D B3 03 STA $03B3
4AB7: A9 FF    LDA #$FF
4AB9: 8D AF 03 STA $03AF
4ABC: A9 FF    LDA #$FF
4ABE: 8D B0 03 STA $03B0
4AC1: 00 19 C7 INT $C719
4AC4: 60       RTS

4AC5: 20 92 4A JSR $4A92
4AC8: AC 61 BA LDY $BA61
4ACB: F0 13    BEQ $4AE0
4ACD: A0 00    LDY #$00
4ACF: B9 61 BA LDA $BA61,Y
4AD2: F0 0C    BEQ $4AE0
4AD4: C9 2E    CMP #$2E
4AD6: F0 08    BEQ $4AE0
4AD8: 99 D4 02 STA $02D4,Y
4ADB: C8       INY
4ADC: C0 0E    CPY #$0E
4ADE: 90 EF    BCC $4ACF
4AE0: 98       TYA
4AE1: A2 EE    LDX #$EE
4AE3: A0 4D    LDY #$4D
4AE5: 20 19 4C JSR $4C19
4AE8: 00 07 CB INT $CB07
4AEB: 4C F8 4A JMP $4AF8

4AEE: 20 92 4A JSR $4A92
4AF1: A2 EE    LDX #$EE
4AF3: A0 4D    LDY #$4D
4AF5: 00 06 CB INT $CB06 ; 输入法
4AF8: C9 1B    CMP #$1B
4AFA: F0 11    BEQ $4B0D
4AFC: C9 0D    CMP #$0D
4AFE: F0 1E    BEQ $4B1E ; 确定
4B00: C9 19    CMP #$19
4B02: D0 03    BNE $4B07
4B04: 4C EE 4A JMP $4AEE
4B07: 00 07 CB INT $CB07
4B0A: 4C F8 4A JMP $4AF8
4B0D: 18       CLC

4B0E: A9 00    LDA #$00
4B10: F0 06    BEQ $4B18

4B12: A9 01    LDA #$01
4B14: D0 02    BNE $4B18

4B16: A9 02    LDA #$02

4B18: A6 57    LDX $57
4B1A: 85 57    STA $57
4B1C: 9A       TXS
4B1D: 60       RTS

4B1E: AD D4 02 LDA $02D4
4B21: F0 CE    BEQ $4AF1 ; 文件名为空
4B23: A0 00    LDY #$00
4B25: B9 D4 02 LDA $02D4,Y
4B28: F0 11    BEQ $4B3B
4B2A: C9 2E    CMP #$2E
4B2C: F0 C3    BEQ $4AF1
4B2E: C9 2F    CMP #$2F
4B30: F0 BF    BEQ $4AF1
4B32: C9 20    CMP #$20
4B34: F0 BB    BEQ $4AF1
4B36: C8       INY
4B37: C0 0A    CPY #$0A
4B39: 90 EA    BCC $4B25
4B3B: A2 00    LDX #$00
4B3D: BD FB 4B LDA $4BFB,X
4B40: 99 D4 02 STA $02D4,Y
4B43: C8       INY
4B44: E8       INX
4B45: E0 04    CPX #$04
4B47: 90 F4    BCC $4B3D
4B49: A9 00    LDA #$00
4B4B: 99 D4 02 STA $02D4,Y
4B4E: A2 0E    LDX #$0E
4B50: BD D3 02 LDA $02D3,X
4B53: 9D 60 BA STA $BA60,X
4B56: CA       DEX
4B57: D0 F7    BNE $4B50
4B59: A2 0E    LDX #$0E
4B5B: BD 60 BA LDA $BA60,X
4B5E: 9D 8C 08 STA $088C,X
4B61: CA       DEX
4B62: D0 F7    BNE $4B5B
4B64: 20 FF 4B JSR $4BFF ; open or create a file then close it.
4B67: 90 16    BCC $4B7F
4B69: A9 60    LDA #$60
4B6B: 8D C9 08 STA $08C9
4B6E: A9 CF    LDA #$CF
4B70: 8D CA 08 STA $08CA
4B73: A9 FF    LDA #$FF
4B75: 8D CB 08 STA $08CB
4B78: A9 00    LDA #$00
4B7A: 85 59    STA $59
4B7C: 4C 9D 4B JMP $4B9D

; 有同名文件存在，询问是否覆盖
4B7F: A9 00    LDA #$00
4B81: 8D 32 0A STA $0A32
4B84: A2 FD    LDX #$FD
4B86: A0 4D    LDY #$4D
4B88: A9 02    LDA #$02
4B8A: 00 12 CA INT $CA12 ; 弹窗
4B8D: C9 79    CMP #$79
4B8F: F0 03    BEQ $4B94 ; yes
4B91: 4C C5 4A JMP $4AC5

4B94: A9 50    LDA #$50
4B96: 8D C9 08 STA $08C9
4B99: A9 01    LDA #$01
4B9B: 85 59    STA $59

4B9D: 00 15 05 INT $0515
4BA0: 90 14    BCC $4BB6

4BA2: AD CC 08 LDA $08CC
4BA5: C9 0E    CMP #$0E
4BA7: F0 07    BEQ $4BB0
4BA9: C9 19    CMP #$19
4BAB: F0 03    BEQ $4BB0
4BAD: 4C B8 4D JMP $4DB8
4BB0: 20 8F 4D JSR $4D8F
4BB3: 4C 0D 4B JMP $4B0D

4BB6: A9 00    LDA #$00
4BB8: 85 E0    STA $E0
4BBA: A9 70    LDA #$70
4BBC: 85 E1    STA $E1
4BBE: 38       SEC
4BBF: AD 58 BA LDA $BA58
4BC2: E9 00    SBC #$00
4BC4: 8D C6 08 STA $08C6
4BC7: AD 59 BA LDA $BA59
4BCA: E9 70    SBC #$70
4BCC: 8D C7 08 STA $08C7
4BCF: 00 18 05 INT $0518
4BD2: B0 19    BCS $4BED
4BD4: 00 17 05 INT $0517
4BD7: A5 59    LDA $59
4BD9: D0 0E    BNE $4BE9
4BDB: A5 60    LDA $60
4BDD: 85 62    STA $62
4BDF: A5 61    LDA $61
4BE1: 85 63    STA $63
4BE3: E6 60    INC $60
4BE5: D0 02    BNE $4BE9
4BE7: E6 61    INC $61
4BE9: 38       SEC
4BEA: 4C 0E 4B JMP $4B0E

4BED: 48       PHA
4BEE: 00 17 05 INT $0517
4BF1: 00 0E 05 INT $050E
4BF4: 68       PLA
4BF5: 8D CC 08 STA $08CC ; file error code
4BF8: 4C A2 4B JMP $4BA2

4BFB: .db "."
4BFC: .db "BAS"

; open or create a file and close it.
4BFF: A9 80    LDA #$80
4C01: 8D C9 08 STA $08C9
4C04: 00 15 05 INT $0515
4C07: 90 0B    BCC $4C14
4C09: AD CC 08 LDA $08CC
4C0C: C9 02    CMP #$02
4C0E: F0 03    BEQ $4C13
4C10: 4C B8 4D JMP $4DB8
4C13: 60       RTS
4C14: 00 17 05 INT $0517
4C17: 18       CLC
4C18: 60       RTS

4C19: 86 A8    STX $A8
4C1B: 84 A9    STY $A9
4C1D: 8D 13 06 STA $0613
4C20: AD 91 03 LDA $0391
4C23: 09 01    ORA #$01
4C25: 8D 91 03 STA $0391
4C28: A0 00    LDY #$00
4C2A: B1 A8    LDA ($A8),Y
4C2C: 8D 14 06 STA $0614
4C2F: C8       INY
4C30: B1 A8    LDA ($A8),Y
4C32: 85 8A    STA $8A
4C34: C8       INY
4C35: B1 A8    LDA ($A8),Y
4C37: 8D 15 06 STA $0615
4C3A: 60       RTS

; 判断文件名后缀是否是 BAS，若是则 A=0，否则 A!=0
4C3B: A5 64    LDA $64
4C3D: 0A       ASL
4C3E: AA       TAX
4C3F: BD DA 4D LDA $4DDA,X
4C42: 85 80    STA $80
4C44: BD DB 4D LDA $4DDB,X
4C47: 85 81    STA $81
4C49: A0 00    LDY #$00
4C4B: B1 80    LDA ($80),Y
4C4D: F0 09    BEQ $4C58
4C4F: C9 2E    CMP #$2E
4C51: F0 08    BEQ $4C5B
4C53: C8       INY
4C54: C0 0E    CPY #$0E
4C56: 90 F3    BCC $4C4B
4C58: A9 FF    LDA #$FF
4C5A: 60       RTS

4C5B: A2 00    LDX #$00
4C5D: C8       INY
4C5E: C0 0E    CPY #$0E
4C60: B0 F6    BCS $4C58
4C62: B1 80    LDA ($80),Y
4C64: C9 61    CMP #$61
4C66: 90 06    BCC $4C6E
4C68: C9 7B    CMP #$7B
4C6A: B0 02    BCS $4C6E
4C6C: 29 DF    AND #$DF
4C6E: DD FC 4B CMP $4BFC,X
4C71: F0 01    BEQ $4C74
4C73: 60       RTS
4C74: E8       INX
4C75: E0 03    CPX #$03
4C77: D0 E4    BNE $4C5D
4C79: C8       INY
4C7A: C0 0E    CPY #$0E
4C7C: F0 02    BEQ $4C80
4C7E: B1 80    LDA ($80),Y
4C80: 60       RTS

; 切换 /BASIC文件 工作目录
4C81: A2 0B    LDX #$0B
4C83: BD CE 4D LDA $4DCE,X
4C86: 9D 8C 08 STA $088C,X
4C89: CA       DEX
4C8A: D0 F7    BNE $4C83
4C8C: 00 0D 05 INT $050D
4C8F: B0 01    BCS $4C92
4C91: 60       RTS

; 创建 /BASIC文件 目录
4C92: AD CC 08 LDA $08CC
4C95: C9 02    CMP #$02
4C97: F0 02    BEQ $4C9B
4C99: 38       SEC
4C9A: 60       RTS
4C9B: 00 0B 05 INT $050B
4C9E: 90 E1    BCC $4C81
4CA0: 60       RTS

; 读取nand
4CA1: A5 0A    LDA $0A
4CA3: 48       PHA
4CA4: A5 0A    LDA $0A
4CA6: 29 F0    AND #$F0
4CA8: 09 01    ORA #$01
4CAA: 85 0A    STA $0A
4CAC: A9 00    LDA #$00
4CAE: 85 60    STA $60
4CB0: A9 00    LDA #$00
4CB2: 85 61    STA $61
4CB4: AD D2 08 LDA $08D2
4CB7: 8D F6 08 STA $08F6
4CBA: AD D3 08 LDA $08D3
4CBD: 8D F7 08 STA $08F7
4CC0: A9 C0    LDA #$C0
4CC2: 8D 00 09 STA $0900
4CC5: 00 1A 05 INT $051A
4CC8: 00 1B 05 INT $051B
4CCB: A2 12    LDX #$12
4CCD: BD D4 08 LDA $08D4,X
4CD0: 8D F8 08 STA $08F8
4CD3: BD D5 08 LDA $08D5,X
4CD6: 8D F9 08 STA $08F9
4CD9: A9 00    LDA #$00
4CDB: 8D 18 09 STA $0918
4CDE: A9 00    LDA #$00
4CE0: 8D 19 09 STA $0919
4CE3: 20 0B 4D JSR $4D0B
4CE6: B0 1F    BCS $4D07
4CE8: 18       CLC
4CE9: AD 18 09 LDA $0918
4CEC: 69 00    ADC #$00
4CEE: 8D 18 09 STA $0918
4CF1: AD 19 09 LDA $0919
4CF4: 69 02    ADC #$02
4CF6: 8D 19 09 STA $0919
4CF9: AD 19 09 LDA $0919
4CFC: C9 40    CMP #$40
4CFE: D0 05    BNE $4D05
4D00: AD 18 09 LDA $0918
4D03: C9 00    CMP #$00
4D05: 90 DC    BCC $4CE3
4D07: 68       PLA
4D08: 85 0A    STA $0A
4D0A: 60       RTS

4D0B: A9 56    LDA #$56
4D0D: 85 EA    STA $EA
4D0F: A9 C8    LDA #$C8
4D11: 85 EB    STA $EB
4D13: A9 56    LDA #$56
4D15: 85 E2    STA $E2
4D17: A9 C8    LDA #$C8
4D19: 85 E3    STA $E3
4D1B: 00 06 05 INT $0506
4D1E: AD 19 09 LDA $0919
4D21: C9 00    CMP #$00
4D23: D0 05    BNE $4D2A
4D25: AD 18 09 LDA $0918
4D28: C9 00    CMP #$00
4D2A: D0 03    BNE $4D2F
4D2C: 4C 43 4D JMP $4D43
4D2F: A9 00    LDA #$00
4D31: 8D F6 03 STA $03F6
4D34: 20 60 4D JSR $4D60
4D37: B0 0A    BCS $4D43
4D39: C9 FF    CMP #$FF
4D3B: F0 21    BEQ $4D5E
4D3D: E6 60    INC $60
4D3F: D0 02    BNE $4D43
4D41: E6 61    INC $61
4D43: 18       CLC
4D44: A5 E2    LDA $E2
4D46: 69 10    ADC #$10
4D48: 85 E2    STA $E2
4D4A: 90 02    BCC $4D4E
4D4C: E6 E3    INC $E3
4D4E: A5 E3    LDA $E3
4D50: C9 CA    CMP #$CA
4D52: D0 04    BNE $4D58
4D54: A5 E2    LDA $E2
4D56: C9 56    CMP #$56
4D58: 90 D5    BCC $4D2F
4D5A: 18       CLC
4D5B: 4C 5F 4D JMP $4D5F
4D5E: 38       SEC
4D5F: 60       RTS
4D60: A0 00    LDY #$00
4D62: B1 E2    LDA ($E2),Y
4D64: 8D F6 08 STA $08F6
4D67: C8       INY
4D68: B1 E2    LDA ($E2),Y
4D6A: 8D F7 08 STA $08F7
4D6D: AD F7 08 LDA $08F7
4D70: C9 FF    CMP #$FF
4D72: D0 05    BNE $4D79
4D74: AD F6 08 LDA $08F6
4D77: C9 FF    CMP #$FF
4D79: D0 03    BNE $4D7E
4D7B: 4C 8B 4D JMP $4D8B
4D7E: 00 20 05 INT $0520
4D81: B0 04    BCS $4D87
4D83: A9 00    LDA #$00
4D85: 18       CLC
4D86: 60       RTS

4D87: A9 00    LDA #$00
4D89: 38       SEC
4D8A: 60       RTS
4D8B: A9 FF    LDA #$FF
4D8D: 18       CLC
4D8E: 60       RTS

; 显示 空间已满 对话框
4D8F: A9 00    LDA #$00
4D91: 8D 32 0A STA $0A32
4D94: A2 A4    LDX #$A4
4D96: A0 4D    LDY #$4D
4D98: A9 00    LDA #$00
4D9A: 00 12 CA INT $CA12
4D9D: 20 2A E0 JSR $E02A
4DA0: 20 2A E0 JSR $E02A
4DA3: 60       RTS

4DA4: 80       ??
4DA5: AE 4D 20 LDX $204D
4DA8: 19 08 02 ORA $0208,Y
4DAB: AD 4D 02 LDA $024D
4DAE: BF       ??
4DAF: D5 BC    CMP $BC,X
4DB1: E4 D2    CPX $D2
4DB3: D1 C2    CMP ($C2),Y
4DB5: FA       ??
4DB6: 00 00

4DB8: 00 03 12 INT $0312
4DBB: 00

4DBC: A2 09    LDX #$09
4DBE: 9D 88 03 STA $0388,X
4DC1: CA       DEX
4DC2: D0 FA    BNE $4DBE
4DC4: 68       PLA
4DC5: AA       TAX
4DC6: 00 23 05 INT $0523
4DC9: A6 5F    LDX $5F
4DCB: 9A       TXS
4DCC: 4C 6C 52 JMP $526C

4DCF: 2F       ??
4DD0: 42       ??
4DD1: 41 53    EOR ($53,X)
4DD3: 49 43    EOR #$43
4DD5: CE C4 BC DEC $BCC4
4DD8: FE 00 2A INC $2A00,X
4DDB: B8       CLV
4DDC: 3E B8 52 ROL $52B8,X
4DDF: B8       CLV
4DE0: 66 B8    ROR $B8
4DE2: 7A       ??
4DE3: B8       CLV
4DE4: C0 02    CPY #$02
4DE6: D4       ??
4DE7: 02       ??
4DE8: E8       INX
4DE9: 02       ??
4DEA: FC       ??
4DEB: 02       ??
4DEC: 10 03    BPL $4DF1
4DEE: 14       ??
4DEF: 0A       ASL
4DF0: 20 93 4E JSR $4E93

; 调用信息框的参数
; "创建新文件？"
4DF3: 80       ??
4DF4: CB       ??
4DF5: 4E 18 10 LSR $1018
4DF8: 0C       ??
4DF9: 02       ??
4DFA: FC       ??
4DFB: 4D 02

; 调用信息框的参数
; "有同名文件存在，覆盖？"
4DFD: 80
4DFE: D9 4E 1A CMP $1A4E,Y
4E01: 08       PHP
4E02: 0C       ??
4E03: 04       ??
4E04: 06 4E    ASL $4E
4E06: 02       ??

; 调用信息框的参数
; "确实删除？"
4E07: 80       ??
4E08: F4       ??
4E09: 4E 1A 12 LSR $121A
4E0C: 0C       ??
4E0D: 02       ??
4E0E: 10 4E    BPL $4E5E
4E10: 02       ??

; 调用信息框的参数
; "文件超长 不可编辑"
4E11: 80       ??
4E12: 01 4F    ORA ($4F,X)
4E14: 28       PLP
4E15: 12       ??
4E16: 08       PHP
4E17: 04       ??
4E18: 1A       ??
4E19: 4E 02

; 调用信息框的参数
; "非BAS文件"
4E1B: .db $80 ; 固定
4E1C: .dw $4f14 ; 文字地址, 文字以 00 结尾或换行
4E1E: .db $22, $1e ; x, y 坐标
4E20: .db $0A ; 文字长度
4E21: .db $02 ; 行数, 02 是1行， 04 是2行， ... 最大4行
4E22: .dw $4e24 ; 文字模式 所在的地址
4E24: .db $02 ; 文字模式  02 = 8x16正常文字, 04 = 8x8正常文字 82 = 8x16反显文字, 84 = 8x8反显文字

; 调用信息框的参数
; "空间不足"
4E25: .db $80
4E26: .dw $4f20
4e28: .db $26, $1e
4E2A: .db $09
4E2B: .db $02
4E2C: .db $4e2E
4E2E: .db $02

4E2F: 2D 2D 2D AND $2D2D
4E32: 2D 2D 2D AND $2D2D
4E35: 2D 2D 2D AND $2D2D
4E38: 2D 2D 2D AND $2D2D
4E3B: 2D 2D 2D AND $2D2D
4E3E: 2D 2D 2D AND $2D2D
4E41: 2D 2D 20 AND $202D
4E44: 20 20 20 JSR $2020
4E47: CE C4 BC DEC $BCC4
4E4A: FE BC D3 INC $D3BC,X
4E4D: D4       ??
4E4E: D8       CLD
4E4F: B4 ED    LDY $ED,X
4E51: CE F3 20 DEC $20F3
4E54: 20 20 20 JSR $2020
4E57: 20 20 C7 JSR $C720
4E5A: EB       ??
4E5B: D6 D8    DEC $D8,X
4E5D: D0 C2    BNE $4E21
4E5F: C9 FD    CMP #$FD
4E61: BC B6 B4 LDY $B4B6,X
4E64: CB       ??
4E65: CE C4 BC DEC $BCC4
4E68: FE 20 20 INC $2020,X
4E6B: 20 20 20 JSR $2020
4E6E: 20 20 20 JSR $2020
4E71: 20 20 20 JSR $2020
4E74: 20 20 20 JSR $2020
4E77: 20 20 20 JSR $2020
4E7A: 20 20 20 JSR $2020
4E7D: 20 20 2D JSR $2D20
4E80: 2D 2D 2D AND $2D2D
4E83: 2D 2D 2D AND $2D2D
4E86: 2D 2D 2D AND $2D2D
4E89: 2D 2D 2D AND $2D2D
4E8C: 2D 2D 2D AND $2D2D
4E8F: 2D 2D 2D AND $2D2D
4E92: 2D 3D 3D AND $3D3D
4E95: 3D 3D 3D AND $3D3D,X
4E98: 20 47 56 JSR $5647
4E9B: 20 42 41 JSR $4142
4E9E: 53       ??
4E9F: 49 43    EOR #$43
4EA1: 20 3D 3D JSR $3D3D
4EA4: 3D 3D 3D AND $3D3D,X
4EA7: 00 CA E4 INT $E4CA
4EAA: C8       INY
4EAB: EB       ??
4EAC: C4 FA    CPY $FA
4EAE: CB       ??
4EAF: F9 C8 A1 SBC $A1C8,Y
4EB2: B5 C4    LDA $C4,X
4EB4: CE C4 BC DEC $BCC4
4EB7: FE C3 FB INC $FBC3,X
4EBA: A1 A3    LDA ($A3,X)
4EBC: 00 00 C7 INT $C700
4EBF: EB       ??
4EC0: CA       DEX
4EC1: E4 C8    CPX $C8
4EC3: EB       ??
4EC4: CE C4 BC DEC $BCC4
4EC7: FE C3 FB INC $FBC3,X
4ECA: 3A       ??
4F2A: 00

4F2B: 09 INT $0900
4F2C: 03       ??
4F2D: .dw $4ac5 ; 保存文件
4F2F: .dw $4f5A ; 返回编辑
4F31: .dw $4b12 ; 放弃保存

4F33: .dw $4f85 ; 
4F35: 16 4B    ASL $4B,X
4F37: B2       ??
4F38: 4F       ??

4F39: .db "1.保存文件"
4F43: .db $FF
4F44: .db "2.返回编辑"
4F4E: .db $FF
4F4F: .db "3.放弃保存"
4F59: .db $FF

4F5A: .db "===== GV BASIC ====="
4F6E: .db $00
4F71: .db "输入文件名保存文件。"
4F83: .db $00, $00

4F85: .db "===== GV BASIC ====="
4F99: .db $00
4F9A: .db "返回编辑界面继续编辑。"
4FB0: .db $00, $00

4FB2: .db "===== GV BASIC ====="
4FC6: .db $00
4FC9: .db "放弃保存文件返回菜单。"
4FDD: .db $00,$00

4FDF: .db "+-*/^>=<"
4FE8: .db $00

4FE9: .db ":,,\"()"

4FEF: C9    AND #$C9
4FF0: CA       DEX
4FF1: CB       ??
4FF2: CC CD D0 CPY $D0CD
4FF5: D1 D2    CMP ($D2),Y

; table of commands
; each ended with a bit mask $80
4FF7: .DB $45, $4E, $C4 ; end
4FFA: .DB $46, $4f, $d2 ; for
4FFD: .DB $4E, $45, $58, $d4 ; next
5001: .DB $44, $41, $54, $c1 ; data
5005: .DB $49, $4e, $50, $55, $d4 ; input
500A: .DB $44, $45, $cc ; del
500D: .DB $44, $49, $cd ; dim
5010: .DB $52, $45, $41, $c4 ; read
5014: .DB $53, $57, $41, $d0 ; swap
5018: .DB $54, $52, $41, $43, $c5 ; trace
501d: .DB $4E, $4f, $54, $52, $41, $43, $c5 ; notrace
5024: .DB $50, $4f, $d0 ; pop
5027: .DB $4C, $45, $d4 ; let
502A: .DB $47, $4f, $54, $cf ; goto
502E: .DB $52, $55, $ce ; run
5031: .DB $49, $C6 ; if
5033: .DB $52, $45, $53, $54, $4f, $52, $cf ; restore
5039: .DB $47, $4f, $53, $55, $c2 ; gosub
503F: .DB $52, $45, $54, $55, $52, $ce ; return
5045: .DB $52, $45, $cd ; rem
5048: .DB $53, $54, $4f, $d0 ; stop
504C: .DB $4F, $ce ; on
504E: .DB $44, $45, $c6 ; def
5051: .DB $50, $4f, $4b, $c5 ; poke
5055: .DB $50, $52, $49, $4e, $d4 ; print
505A: .DB $43, $4f, $4e, $d4 ; cont
505e: .DB $4C, $49, $53, $d4 ; list
5062: .DB $43, $4c, $45, $41, $d2 ; clear
5067: .DB $4E, $45, $D7 ; new
506A: .db $54, $45, $58, $d4 ; text
506E: .db $47, $52, $41, $50, $c8 ; graph
5073: .db $53, $59, $53, $54, $45, $cd ; system
5079: .db $4E, $4F, $52, $4d, $41, $cc ; normal
507F: .db $49, $4E, $56, $45, $52, $53, $c5 ; inverse
5086: .db $46, $4c, $41, $53, $c8 ; flash
508B: .db $50, $4C, $41, $d9 ; play
508F: .db $42, $45, $45, $d0 ; beep
5093: .db $49, $4e, $4b, $45, $59, $a4 ; inkey$
5099: .db $4C, $4f, $41, $c4 ; load
509D: .db $53, $41, $56, $c5 ; save
50A1: .db $4B, $49, $4c, $cc ; kill
50A5: .db $46, $49, $4c, $45, $d3 ; files
50AA: .db $4F, $50, $45, $ce ; open
50AE: .db $43, $4C, $4f, $53, $c5 ; close
50B2: .db $57, $52, $49, $54, $c5 ; write
50B8: .db $46, $49, $45, $4c, $c4 ; field
50Bd: .db $47, $45, $d4 ; get
50C0: .db $50, $55, $d4 ; put
50C3: .db $4C, $53, $45, $d4 ; lset
50C7: .db $52, $53, $45, $d4 ; rset
50CB: .db $41, $55, $54, $cf ; auto
50CF: .db $4C, $4F, $43, $41, $54, $c5 ; locate
50D5: .db $44, $52, $41, $d7 ; draw
50D9: .db $4C, $49, $4E, $c5 ; line
50DD: .db $42, $4f, $d8 ; box
50E0: .db $43, $49, $52, $43, $4c, $c5 ; circle
50E6: .db $45, $4c, $4c, $49, $50, $53, $c5 ; ellipse
50ED: .db $43, $4c, $d3 ; cls
50f0: .db $45, $44, $49, $d4 ; edit
50F4: .db $57, $48, $49, $4c, $c5 ; while
50F9: .db $57, $45, $4e, $c4 ; wend
50FD: .db $43, $41, $4c, $cc ; call
5101: .db $52, $45, $4e, $41, $4d, $c5 ; rename
5107: .db $43, $4f, $50, $d9 ; copy
510B: .db $54, $41, $c2 ; tab
510E: .db $54, $cf ; to
5110: .db $46, $CE ; fn
5112: .db $53, $50, $c3 ; spc
5116: .db $48, $45, $ce ; then
5119: .db $45, $4C, $53, $c5 ; else
511d: .db $41, $d4 ; at
511F: .db $4E, $4F, $D4 ; not
5122: .db $53, $54, $45, $d0 ; step
5126: .db $AB ; +
5127: .db $AD ; -
5128: .db $AA ; *
5129: .db $AF ; /
512A: .db $DE ; ^
512b: .db $41, $4E, $c4 ; and
512E: .db $4F, $D2 ; or
5130: .db $BE ; >
5131: .db $BD ; =
5132: .db $BC ; <
5133: .db $53, $47, $ce ; sgn
5136: .db $49, $4E, $d4 ; int
5139: .db $41, $42, $d3 ; abs
513C: .db $50, $4F, $d3 ; pos
513F: .db $53, $51, $d2 ; sqr
5142: .db $52, $4e, $c4 ; rnd
5145: .db $4C, $4f, $c7 ; log
5148: .db $45, $58, $d0 ; exp
514V: .db $43, $4f, $d3 ; cos
514E: .db $53, $49, $ce ; sin
5151: .db $54, $41, $ce ; tan
5154: .db $41, $54, $ce ; atn
5157: .db $50, $45, $45, $cb ; peek
515B: .db $4C, $45, $CE ; len
515E: .db $53, $54, $52, $a4 ; str$
5162: .db $56, $41, $cc ; val
5165: .db $41, $53, $c3 ; asc
5168: .db $4D, $4B, $53, $a4 ; mks$
516C: .db $4D, $4b, $49, $a4 ; mki$
5170: .db $43, $56, $53, $a4 ; cvs$
5174: .db $43, $56, $49, $a4 ; cvi$
5178: .db $4C, $4f, $c6 ; lof
517B: .db $45, $4f, $c6 ; eof
517e: .db $43, $48, $52, $a4 ; chr$
5182: .db $4C, $45, $46, $54, $a4 ; left$
5187: .db $52, $49, $47, $48, $54, $a4 ; right$
518d: .db $4D, $49, $44, $a4 ; mid$
5191: .db $00

5192: A2 00    LDX #$00
5194: A0 64    LDY #$64
5196: D0 07    BNE $519F
5198: 20 AC 51 JSR $51AC
519B: A2 50    LDX #$50
519D: A0 14    LDY #$14
519F: A9 00    LDA #$00
51A1: 9D C0 02 STA $02C0,X
51A4: E8       INX
51A5: 88       DEY
51A6: D0 F9    BNE $51A1
51A8: 00 1A C7 INT $C71A
51AB: 60       RTS

51AC: A9 C0    LDA #$C0
51AE: 85 80    STA $80
51B0: A9 23    LDA #$23
51B2: 85 81    STA $81
51B4: A2 00    LDX #$00
51B6: F0 0A    BEQ $51C2
51B8: A5 80    LDA $80
51BA: 69 28    ADC #$28
51BC: 85 80    STA $80
51BE: 90 02    BCC $51C2
51C0: E6 81    INC $81
51C2: A9 00    LDA #$00
51C4: A0 27    LDY #$27
51C6: 91 80    STA ($80),Y
51C8: 88       DEY
51C9: D0 FB    BNE $51C6
51CB: A9 C0    LDA #$C0
51CD: 31 80    AND ($80),Y
51CF: 91 80    STA ($80),Y
51D1: E8       INX
51D2: E0 10    CPX #$10
51D4: 90 E2    BCC $51B8
51D6: 60       RTS

51D7: A0 00    LDY #$00
51D9: B9 E5 51 LDA $51E5,Y
51DC: 99 00 BF STA $BF00,Y
51DF: C8       INY
51E0: D0 F7    BNE $51D9
51E2: 4C 00 BF JMP $BF00

; 把 bin 文件偏移 $3000 （原地址 $7000） 之后的代码读取到 $6000，然后 JSR $6000
51E5: A9 00    LDA #$00
51E7: 8D D1 08 STA $08D1
51EA: A9 00    LDA #$00
51EC: 8D CD 08 STA $08CD
51EF: 8D D0 08 STA $08D0
51F2: A9 30    LDA #$30
51F4: 8D CE 08 STA $08CE
51F7: A9 00    LDA #$00
51F9: 8D CF 08 STA $08CF
51FC: 00 27 05 INT $0527
51FF: B0 4C    BCS $524D
5201: A9 00    LDA #$00
5203: 85 E0    STA $E0
5205: A9 60    LDA #$60
5207: 85 E1    STA $E1
5209: A9 00    LDA #$00
520B: 8D C6 08 STA $08C6
520E: A9 52    LDA #$52
5210: 8D C7 08 STA $08C7
5213: 00 26 05 INT $0526
5216: B0 36    BCS $524E
5218: 20 00 60 JSR $6000
521B: 00 23 05 INT $0523
521E: A9 00    LDA #$00
5220: 8D D1 08 STA $08D1
5223: A9 00    LDA #$00
5225: 8D CD 08 STA $08CD
5228: 8D CF 08 STA $08CF
522B: 8D D0 08 STA $08D0
522E: A9 04    LDA #$04
5230: 8D CE 08 STA $08CE
5233: 00 27 05 INT $0527
5236: A9 00    LDA #$00
5238: 85 E0    STA $E0
523A: A9 44    LDA #$44
523C: 85 E1    STA $E1
523E: A9 00    LDA #$00
5240: 8D C6 08 STA $08C6
5243: A9 6C    LDA #$6C
5245: 8D C7 08 STA $08C7
5248: 00 26 05 INT $0526
524B: B0 01    BCS $524E
524D: 60       RTS

; 显示 文件加载错误，请重新升级此文件
524E: A2 64    LDX #$64
5250: BD AC 52 LDA $52AC,X
5253: 9D BF 02 STA $02BF,X
5256: CA       DEX
5257: D0 F7    BNE $5250
5259: A9 FF    LDA #$FF
525B: 8D AF 03 STA $03AF
525E: A9 FF    LDA #$FF
5260: 8D B0 03 STA $03B0
5263: 00 19 C7 INT $C719
5266: 00 06 C0 INT $C006
5269: 4C 66 52 JMP $5266

526C: A0 00    LDY #$00
526E: B9 7A 52 LDA $527A,Y
5271: 99 00 BF STA $BF00,Y
5274: C8       INY
5275: D0 F7    BNE $526E
5277: 4C 00 BF JMP $BF00

527A: AD 28 B8 LDA $B828
527D: 85 0A    STA $0A
527F: A9 00    LDA #$00
5281: 8D D1 08 STA $08D1
5284: A9 00    LDA #$00
5286: 8D CD 08 STA $08CD
5289: 8D CE 08 STA $08CE
528C: 8D CF 08 STA $08CF
528F: 8D D0 08 STA $08D0
5292: 00 27 05 INT $0527
5295: A9 00    LDA #$00
5297: 85 E0    STA $E0
5299: A9 40    LDA #$40
529B: 85 E1    STA $E1
529D: A9 00    LDA #$00
529F: 8D C6 08 STA $08C6
52A2: A9 7E    LDA #$7E
52A4: 8D C7 08 STA $08C7
52A7: 00 26 05 INT $0526
52AA: B0 A2    BCS $524E
52AC: 60       RTS

; 文件加载错误，请重新升级此文件
52AD: .db "--------------------"
52C1: .db "    文件加载错误      "
52D7: .db "请重新升级此文件    "
52AD: .db "--------------------"

5311: 20 49    JSR $6D49 ; clear $7000-$AFFF
5313: A9 00    LDA #$00
5316: 85 53    STA $53
5318: A9 70    LDA #$70
531A: 85 54    STA $54
531C: A9 03    LDA #$03
531E: 8D 58 BA STA $BA58
5321: A9 70    LDA #$70
5323: 8D 59 BA STA $BA59
5326: A9 80    LDA #$80
5328: 85 52    STA $52
532A: A9 0A    LDA #$0A
532C: 8D 5A BA STA $BA5A
532F: A9 00    LDA #$00
5331: 8D 5B BA STA $BA5B
5334: A9 00    LDA #$00
5336: 8D 79 BA STA $BA79
5339: A9 00    LDA #$00
533B: 8D 7A BA STA $BA7A
533E: AD 91 03 LDA $0391
5341: 09 01    ORA #$01
5343: 8D 91 03 STA $0391
5346: A9 00    LDA #$00
5348: 8D 47 04 STA $0447 ; input mode
534B: A9 20    LDA #$20
534D: 0D 48 04 ORA $0448
5350: 8D 48 04 STA $0448 ; chinese mode
5353: 20 DD 54 JSR $54DD
5356: 60       RTS

5357: 20 49 6D JSR $6D49
535A: A9 0A    LDA #$0A
535C: 8D 5A BA STA $BA5A
535F: A9 00    LDA #$00
5361: 8D 5B BA STA $BA5B
5364: A9 00    LDA #$00
5366: 8D 79 BA STA $BA79
5369: A9 00    LDA #$00
536B: 8D 7A BA STA $BA7A
536E: AD 77 BA LDA $BA77
5371: 85 80    STA $80
5373: AD 78 BA LDA $BA78
5376: 85 81    STA $81
5378: 20 DC 67 JSR $67DC
537B: 00 17 05 INT $0517
537E: 20 FA 68 JSR $68FA
5381: 20 4D 62 JSR $624D
5384: A9 00    LDA #$00
5386: 85 53    STA $53
5388: A9 70    LDA #$70
538A: 85 54    STA $54
538C: AD 91 03 LDA $0391
538F: 09 01    ORA #$01
5391: 8D 91 03 STA $0391
5394: A9 00    LDA #$00
5396: 8D 47 04 STA $0447
5399: A9 20    LDA #$20
539B: 0D 48 04 ORA $0448
539E: 8D 48 04 STA $0448
53A1: 20 DD 54 JSR $54DD
53A4: 60       RTS

53A5: 20 C6 53 JSR $53C6
53A8: A9 00    LDA #$00
53AA: 8D 79 BA STA $BA79
53AD: A9 00    LDA #$00
53AF: 8D 7A BA STA $BA7A
53B2: 8D 5C BA STA $BA5C
53B5: AD 77 BA LDA $BA77
53B8: 85 80    STA $80
53BA: AD 78 BA LDA $BA78
53BD: 85 81    STA $81
53BF: 20 DC 67 JSR $67DC
53C2: 20 DD 54 JSR $54DD
53C5: 60       RTS
53C6: A2 10    LDX #$10
53C8: A9 00    LDA #$00
53CA: 9D 7C BA STA $BA7C,X
53CD: CA       DEX
53CE: D0 F8    BNE $53C8
53D0: A9 00    LDA #$00
53D2: 8D 7C BA STA $BA7C
53D5: 8D 7B BA STA $BA7B
53D8: A9 00    LDA #$00
53DA: 8D 79 BA STA $BA79
53DD: A9 00    LDA #$00
53DF: 8D 7A BA STA $BA7A
53E2: A9 00    LDA #$00
53E4: 85 80    STA $80
53E6: A9 02    LDA #$02
53E8: 85 81    STA $81
53EA: 20 DC 67 JSR $67DC
53ED: 20 80 62 JSR $6280
53F0: A5 82    LDA $82
53F2: 85 53    STA $53
53F4: A5 83    LDA $83
53F6: 85 54    STA $54
53F8: AD 7C BA LDA $BA7C
53FB: 0A       ASL
53FC: AA       TAX
53FD: A5 82    LDA $82
53FF: 9D 7D BA STA $BA7D,X
5402: A5 83    LDA $83
5404: 9D 7E BA STA $BA7E,X
5407: 20 74 54 JSR $5474
540A: 90 67    BCC $5473
540C: A9 00    LDA #$00
540E: 85 80    STA $80
5410: A9 40    LDA #$40
5412: 85 81    STA $81
5414: 20 DC 67 JSR $67DC
5417: E6 82    INC $82
5419: D0 02    BNE $541D
541B: E6 83    INC $83
541D: A5 82    LDA $82
541F: 85 66    STA $66
5421: A5 83    LDA $83
5423: 85 67    STA $67
5425: 20 47 6C JSR $6C47
5428: A5 68    LDA $68
542A: 85 80    STA $80
542C: A5 69    LDA $69
542E: 85 81    STA $81
5430: A0 00    LDY #$00
5432: B1 80    LDA ($80),Y
5434: 85 66    STA $66
5436: C8       INY
5437: B1 80    LDA ($80),Y
5439: 85 67    STA $67
543B: 05 66    ORA $66
543D: F0 34    BEQ $5473
543F: 20 47 6C JSR $6C47
5442: A5 69    LDA $69
5444: C9 AF    CMP #$AF
5446: D0 04    BNE $544C
5448: A5 68    LDA $68
544A: C9 00    CMP #$00
544C: 90 DA    BCC $5428
544E: A5 66    LDA $66
5450: D0 02    BNE $5454
5452: C6 67    DEC $67
5454: C6 66    DEC $66
5456: A5 66    LDA $66
5458: 85 82    STA $82
545A: A5 67    LDA $67
545C: 85 83    STA $83
545E: 38       SEC
545F: A5 66    LDA $66
5461: E5 53    SBC $53
5463: 8D 79 BA STA $BA79
5466: A5 67    LDA $67
5468: E5 54    SBC $54
546A: 8D 7A BA STA $BA7A
546D: EE 7C BA INC $BA7C
5470: 4C F8 53 JMP $53F8
5473: 60       RTS
5474: 00 14 05 INT $0514
5477: 38       SEC
5478: AD FB 08 LDA $08FB
547B: ED 79 BA SBC $BA79
547E: 8D FB 08 STA $08FB
5481: AD FC 08 LDA $08FC
5484: ED 7A BA SBC $BA7A
5487: 8D FC 08 STA $08FC
548A: AD FC 08 LDA $08FC
548D: C9 40    CMP #$40
548F: D0 05    BNE $5496
5491: AD FB 08 LDA $08FB
5494: C9 00    CMP #$00
5496: F0 01    BEQ $5499
5498: 60       RTS
5499: 18       CLC
549A: 60       RTS
549B: 18       CLC
549C: A5 48    LDA $48
549E: 69 14    ADC #$14
54A0: 85 48    STA $48
54A2: 90 02    BCC $54A6
54A4: E6 49    INC $49
54A6: E6 6D    INC $6D
54A8: E6 6F    INC $6F
54AA: A6 6F    LDX $6F
54AC: 8A       TXA
54AD: A6 6D    LDX $6D
54AF: 9D 48 BA STA $BA48,X
54B2: A6 6E    LDX $6E
54B4: 20 BF 68 JSR $68BF
54B7: A2 0A    LDX #$0A
54B9: A9 00    LDA #$00
54BB: 20 2F 6C JSR $6C2F
54BE: A0 FF    LDY #$FF
54C0: C8       INY
54C1: B5 82    LDA $82,X
54C3: 91 4E    STA ($4E),Y
54C5: E8       INX
54C6: E0 05    CPX #$05
54C8: D0 F6    BNE $54C0
54CA: C8       INY
54CB: A9 20    LDA #$20
54CD: 91 4E    STA ($4E),Y
54CF: C8       INY
54D0: 8C B4 03 STY $03B4
54D3: 84 50    STY $50
54D5: 84 70    STY $70
54D7: A9 FF    LDA #$FF
54D9: 8D 5C BA STA $BA5C
54DC: 60       RTS

54DD: 8A       TXA
54DE: 48       PHA
54DF: A9 00    LDA #$00
54E1: A2 09    LDX #$09
54E3: 9D 88 03 STA $0388,X  ; clear icons
54E6: CA       DEX
54E7: D0 FA    BNE $54E3
54E9: 68       PLA
54EA: AA       TAX

54EB: 00 2A C7 INT $C72A  ; clear text buffer
54EE: 20 2B 69 JSR $692B  ; clear $B88E-$B9CF
54F1: A9 00    LDA #$00
54F3: 8D B3 03 STA $03B3  ; cursor mode
54F6: 20 76 68 JSR $6876

54F9: A5 53    LDA $53
54FB: 85 66    STA $66
54FD: A5 54    LDA $54
54FF: 85 67    STA $67
5501: E6 66    INC $66
5503: D0 02    BNE $5507
5505: E6 67    INC $67
5507: 20 47 6C JSR $6C47
550A: A5 68    LDA $68
550C: 85 40    STA $40
550E: A5 69    LDA $69
5510: 85 41    STA $41
5512: 20 31 68 JSR $6831
5515: A5 47    LDA $47
5517: C5 69    CMP $69
5519: D0 04    BNE $551F
551B: A5 46    LDA $46
551D: C5 68    CMP $68
551F: D0 06    BNE $5527
5521: 20 9B 54 JSR $549B
5524: 4C 2E 55 JMP $552E

5527: 20 BF 68 JSR $68BF
552A: A9 00    LDA #$00
552C: 85 50    STA $50
552E: 20 5F 67 JSR $675F
5531: 20 62 6D JSR $6D62
5534: A9 FF    LDA #$FF
5536: 8D AF 03 STA $03AF
5539: A9 FF    LDA #$FF
553B: 8D B0 03 STA $03B0
553E: 00 19 C7 INT $C719  ; 把文字缓冲刷新到屏幕
5541: 24 52    BIT $52
5543: 10 10    BPL $5555
5545: AD B4 03 LDA $03B4  ; caret x
5548: 85 72    STA $72
554A: AD B5 03 LDA $03B5  ; caret y
554D: 85 73    STA $73
554F: 00 01 07 INT $0701
5552: 4C 58 55 JMP $5558

5555: 00 06 C0 INT $C006
5558: AA       TAX
5559: F0 D3    BEQ $552E
555B: 85 55    STA $55
555D: 24 52    BIT $52
555F: 10 1D    BPL $557E
5561: A5 55    LDA $55
5563: 30 13    BMI $5578
5565: C9 1B    CMP #$1B  ; ESC
5567: F0 15    BEQ $557E
5569: A0 FF    LDY #$FF
556B: C8       INY
556C: C0 0F    CPY #$0F
556E: F0 08    BEQ $5578
5570: D9 8F 55 CMP $558F,Y
5573: D0 F6    BNE $556B
5575: 4C 7E 55 JMP $557E
5578: 20 FB 63 JSR $63FB
557B: 4C 2E 55 JMP $552E
557E: AA       TAX
557F: A0 0F    LDY #$0F
5581: A9 8F    LDA #$8F
5583: 85 80    STA $80
5585: A9 55    LDA #$55
5587: 85 81    STA $81
5589: 20 39 E0 JSR $E039
558C: 4C 2E 55 JMP $552E

558F: .db 23, 22, 20, 21, 19, 14, 13, 48, 26, 28, 29, 30, 31, 25, 15
559E: .dw $5682 ; 左
55A0: .dw $56E5 ; 右
55A2: .dw $5723  ; 上
55A4: .dw $578D  ; 下
55A6: .dw $57e3  ; 上翻页
55A8: .dw $57E7  ; 下翻页
55AA: .dw $57EB  ; 输入
55AC: .dw $5cA0  ; '0'
55AE: .dw $5cC3  ; shift
55B0: .dw $55BC  ; F1
55B2: .dw $55D2  ; F2
55B4: .dw $567A  ; F3
55B6: .dw $567E  ; F4
55B8: .dw $5d06  ; 帮助
55BA: .dw $5d44  ; caps

55BC: 24 52    BIT $52
55BE: 30 03    BMI $55C3
55C0: 4C 12 E0 JMP $E012
55C3: A5 52    LDA $52
55C5: 49 40    EOR #$40
55C7: 85 52    STA $52
55C9: AD B3 03 LDA $03B3
55CC: 49 08    EOR #$08
55CE: 8D B3 03 STA $03B3
55D1: 60       RTS
55D2: 24 52    BIT $52
55D4: 30 03    BMI $55D9
55D6: 4C 12 E0 JMP $E012
55D9: A9 FF    LDA #$FF
55DB: 8D 5C BA STA $BA5C
55DE: 8D 57 BA STA $BA57
55E1: A5 70    LDA $70
55E3: D0 2A    BNE $560F
55E5: A6 6E    LDX $6E
55E7: 20 EC 61 JSR $61EC
55EA: 08       PHP
55EB: A5 80    LDA $80
55ED: 85 5D    STA $5D
55EF: A5 81    LDA $81
55F1: 85 5E    STA $5E
55F3: 28       PLP
55F4: F0 13    BEQ $5609
55F6: 20 B3 62 JSR $62B3
55F9: 84 57    STY $57
55FB: 20 0B 5E JSR $5E0B
55FE: 20 FA 68 JSR $68FA
5601: 20 86 5C JSR $5C86
5604: F0 03    BEQ $5609
5606: 4C A2 58 JMP $58A2
5609: 20 46 56 JSR $5646
560C: 4C 8E 56 JMP $568E
560F: C5 50    CMP $50
5611: D0 06    BNE $5619
5613: 20 98 5F JSR $5F98
5616: 4C 2E 56 JMP $562E
5619: A4 50    LDY $50
561B: 88       DEY
561C: B1 4E    LDA ($4E),Y
561E: C9 1E    CMP #$1E
5620: D0 0C    BNE $562E
5622: C8       INY
5623: C8       INY
5624: C8       INY
5625: B1 4E    LDA ($4E),Y
5627: 30 05    BMI $562E
5629: C6 50    DEC $50
562B: 20 BF 67 JSR $67BF
562E: A2 FF    LDX #$FF
5630: A4 50    LDY $50
5632: B1 4E    LDA ($4E),Y
5634: 30 08    BMI $563E
5636: C9 1E    CMP #$1E
5638: D0 06    BNE $5640
563A: A2 FD    LDX #$FD
563C: D0 02    BNE $5640
563E: A2 FE    LDX #$FE
5640: 86 57    STX $57
5642: 20 B1 64 JSR $64B1
5645: 60       RTS
5646: A5 5E    LDA $5E
5648: C9 70    CMP #$70
564A: D0 04    BNE $5650
564C: A5 5D    LDA $5D
564E: C9 01    CMP #$01
5650: D0 01    BNE $5653
5652: 60       RTS
5653: C6 6D    DEC $6D
5655: C6 6F    DEC $6F
5657: A6 6D    LDX $6D
5659: 20 EC 61 JSR $61EC
565C: A5 80    LDA $80
565E: 85 46    STA $46
5660: A5 81    LDA $81
5662: 85 47    STA $47
5664: 38       SEC
5665: A5 48    LDA $48
5667: E9 14    SBC #$14
5669: 85 48    STA $48
566B: A5 49    LDA $49
566D: E9 00    SBC #$00
566F: 85 49    STA $49
5671: 20 AE 63 JSR $63AE
5674: A9 00    LDA #$00
5676: 8D 5C BA STA $BA5C
5679: 60       RTS
567A: 20 12 E0 JSR $E012
567D: 60       RTS
567E: 20 12 E0 JSR $E012
5681: 60       RTS
5682: A5 50    LDA $50
5684: D0 29    BNE $56AF
5686: AD 5C BA LDA $BA5C
5689: F0 03    BEQ $568E
568B: 4C EB 57 JMP $57EB
568E: 20 CF 5F JSR $5FCF
5691: B0 01    BCS $5694
5693: 60       RTS
5694: 38       SEC
5695: A6 6E    LDX $6E
5697: BD 49 BA LDA $BA49,X
569A: FD 48 BA SBC $BA48,X
569D: AA       TAX
569E: 38       SEC
569F: BD C2 6E LDA $6EC2,X
56A2: E5 70    SBC $70
56A4: E9 14    SBC #$14
56A6: 38       SEC
56A7: 49 FF    EOR #$FF
56A9: 69 00    ADC #$00
56AB: 8D B4 03 STA $03B4
56AE: 60       RTS
56AF: AD B4 03 LDA $03B4
56B2: D0 21    BNE $56D5
56B4: AE B5 03 LDX $03B5
56B7: CA       DEX
56B8: 10 05    BPL $56BF
56BA: 20 86 60 JSR $6086
56BD: A2 00    LDX #$00
56BF: 8E B5 03 STX $03B5
56C2: A9 14    LDA #$14
56C4: 8D B4 03 STA $03B4
56C7: A4 50    LDY $50
56C9: 88       DEY
56CA: B1 4E    LDA ($4E),Y
56CC: C9 1E    CMP #$1E
56CE: D0 05    BNE $56D5
56D0: C6 50    DEC $50
56D2: CE B4 03 DEC $03B4
56D5: 20 B7 5F JSR $5FB7
56D8: D0 05    BNE $56DF
56DA: C6 50    DEC $50
56DC: 20 BF 67 JSR $67BF
56DF: C6 50    DEC $50
56E1: 20 BF 67 JSR $67BF
56E4: 60       RTS
56E5: A4 50    LDY $50
56E7: C4 70    CPY $70
56E9: 90 14    BCC $56FF
56EB: AD 5C BA LDA $BA5C
56EE: F0 03    BEQ $56F3
56F0: 4C EB 57 JMP $57EB
56F3: 20 D9 63 JSR $63D9
56F6: B0 01    BCS $56F9
56F8: 60       RTS
56F9: A9 00    LDA #$00
56FB: 8D B4 03 STA $03B4
56FE: 60       RTS
56FF: B1 4E    LDA ($4E),Y
5701: 10 05    BPL $5708
5703: E6 50    INC $50
5705: 20 97 67 JSR $6797
5708: E6 50    INC $50
570A: 20 97 67 JSR $6797
570D: AD B4 03 LDA $03B4
5710: C9 13    CMP #$13
5712: F0 01    BEQ $5715
5714: 60       RTS
5715: A4 50    LDY $50
5717: B1 4E    LDA ($4E),Y
5719: C9 1E    CMP #$1E
571B: F0 01    BEQ $571E
571D: 60       RTS
571E: E6 50    INC $50
5720: 4C 97 67 JMP $6797
5723: A5 50    LDA $50
5725: C9 14    CMP #$14
5727: 90 38    BCC $5761
5729: AE B5 03 LDX $03B5
572C: CA       DEX
572D: 10 05    BPL $5734
572F: 20 86 60 JSR $6086
5732: A2 00    LDX #$00
5734: 8E B5 03 STX $03B5
5737: 38       SEC
5738: A5 50    LDA $50
573A: E9 14    SBC #$14
573C: 85 50    STA $50
573E: AD B4 03 LDA $03B4
5741: D0 01    BNE $5744
5743: 60       RTS
5744: C9 13    CMP #$13
5746: D0 0D    BNE $5755
5748: A4 50    LDY $50
574A: B1 4E    LDA ($4E),Y
574C: C9 1E    CMP #$1E
574E: D0 05    BNE $5755
5750: C6 50    DEC $50
5752: CE B4 03 DEC $03B4
5755: 20 C9 5F JSR $5FC9
5758: D0 01    BNE $575B
575A: 60       RTS
575B: C6 50    DEC $50
575D: CE B4 03 DEC $03B4
5760: 60       RTS
5761: AD 5C BA LDA $BA5C
5764: F0 03    BEQ $5769
5766: 4C EB 57 JMP $57EB
5769: 20 CF 5F JSR $5FCF
576C: B0 01    BCS $576F
576E: 60       RTS
576F: 18       CLC
5770: A5 70    LDA $70
5772: 69 14    ADC #$14
5774: 38       SEC
5775: E5 71    SBC $71
5777: AA       TAX
5778: ED B4 03 SBC $03B4
577B: B0 04    BCS $5781
577D: 8E B4 03 STX $03B4
5780: 60       RTS
5781: 85 57    STA $57
5783: 38       SEC
5784: A5 70    LDA $70
5786: E5 57    SBC $57
5788: 85 50    STA $50
578A: 4C 3E 57 JMP $573E
578D: 38       SEC
578E: A9 14    LDA #$14
5790: ED B4 03 SBC $03B4
5793: 85 57    STA $57
5795: A5 70    LDA $70
5797: E5 50    SBC $50
5799: C5 57    CMP $57
579B: B0 17    BCS $57B4
579D: AD 5C BA LDA $BA5C
57A0: F0 03    BEQ $57A5
57A2: 4C EB 57 JMP $57EB
57A5: 20 D9 63 JSR $63D9
57A8: B0 01    BCS $57AB
57AA: 60       RTS
57AB: AD B4 03 LDA $03B4
57AE: AE B5 03 LDX $03B5
57B1: 4C C7 57 JMP $57C7
57B4: AE B5 03 LDX $03B5
57B7: E8       INX
57B8: E4 51    CPX $51
57BA: 90 06    BCC $57C2
57BC: 20 FE 62 JSR $62FE
57BF: AE B5 03 LDX $03B5
57C2: 18       CLC
57C3: A5 50    LDA $50
57C5: 69 14    ADC #$14
57C7: C5 70    CMP $70
57C9: 90 10    BCC $57DB
57CB: F0 0E    BEQ $57DB
57CD: E5 70    SBC $70
57CF: 85 57    STA $57
57D1: AD B4 03 LDA $03B4
57D4: E5 57    SBC $57
57D6: 8D B4 03 STA $03B4
57D9: A5 70    LDA $70
57DB: 85 50    STA $50
57DD: 8E B5 03 STX $03B5
57E0: 4C 3E 57 JMP $573E
57E3: 20 12 E0 JSR $E012
57E6: 60       RTS
57E7: 20 12 E0 JSR $E012
57EA: 60       RTS

; 编辑器中按 输入
57EB: A5 70    LDA $70
57ED: F0 03    BEQ $57F2
57EF: 4C 40 59 JMP $5940

57F2: A6 6E    LDX $6E
57F4: 20 EC 61 JSR $61EC
57F7: F0 03    BEQ $57FC
57F9: 4C 87 58 JMP $5887

57FC: A5 80    LDA $80
57FE: 85 5D    STA $5D
5800: A5 81    LDA $81
5802: 85 5E    STA $5E
5804: A5 55    LDA $55
5806: C9 17    CMP #$17
5808: D0 03    BNE $580D
580A: 4C 09 56 JMP $5609

580D: C9 14    CMP #$14
580F: D0 3F    BNE $5850
5811: A5 5E    LDA $5E
5813: C9 70    CMP #$70
5815: D0 04    BNE $581B
5817: A5 5D    LDA $5D
5819: C9 01    CMP #$01
581B: D0 01    BNE $581E
581D: 60       RTS

581E: A5 5E    LDA $5E
5820: C5 45    CMP $45
5822: D0 04    BNE $5828
5824: A5 5D    LDA $5D
5826: C5 44    CMP $44
5828: D0 20    BNE $584A
582A: C6 6D    DEC $6D
582C: C6 6F    DEC $6F
582E: C6 6E    DEC $6E
5830: A9 8E    LDA #$8E
5832: 85 48    STA $48
5834: A9 B8    LDA #$B8
5836: 85 49    STA $49
5838: 20 DC 60 JSR $60DC
583B: 20 BF 68 JSR $68BF
583E: A5 70    LDA $70
5840: 85 50    STA $50
5842: A9 00    LDA #$00
5844: 8D 5C BA STA $BA5C
5847: 4C 6F 57 JMP $576F
584A: 20 46 56 JSR $5646
584D: 4C 69 57 JMP $5769
5850: A5 81    LDA $81
5852: C9 70    CMP #$70
5854: D0 04    BNE $585A
5856: A5 80    LDA $80
5858: C9 01    CMP #$01
585A: D0 0B    BNE $5867
585C: A9 0A    LDA #$0A
585E: 85 86    STA $86
5860: A9 00    LDA #$00
5862: 85 87    STA $87
5864: 4C 0C 5C JMP $5C0C
5867: A5 80    LDA $80
5869: 85 82    STA $82
586B: A5 81    LDA $81
586D: 85 83    STA $83
586F: 20 98 61 JSR $6198
5872: 18       CLC
5873: A0 02    LDY #$02
5875: B1 80    LDA ($80),Y
5877: 6D 5A BA ADC $BA5A
587A: 85 86    STA $86
587C: C8       INY
587D: B1 80    LDA ($80),Y
587F: 6D 5B BA ADC $BA5B
5882: 85 87    STA $87
5884: 4C 0C 5C JMP $5C0C
5887: A5 80    LDA $80
5889: 85 5D    STA $5D
588B: A5 81    LDA $81
588D: 85 5E    STA $5E
588F: 20 B3 62 JSR $62B3
5892: 84 57    STY $57
5894: 20 0B 5E JSR $5E0B
5897: 20 FA 68 JSR $68FA
589A: 20 86 5C JSR $5C86
589D: D0 03    BNE $58A2
589F: 4C 04 58 JMP $5804
58A2: A6 6E    LDX $6E
58A4: E8       INX
58A5: BD 48 BA LDA $BA48,X
58A8: 38       SEC
58A9: CA       DEX
58AA: FD 48 BA SBC $BA48,X
58AD: A8       TAY
58AE: 85 57    STA $57
58B0: B9 C2 6E LDA $6EC2,Y
58B3: 85 6A    STA $6A
58B5: A6 6E    LDX $6E
58B7: 20 05 6C JSR $6C05
58BA: 20 89 66 JSR $6689
58BD: 18       CLC
58BE: A5 80    LDA $80
58C0: 65 6A    ADC $6A
58C2: 85 80    STA $80
58C4: 90 02    BCC $58C8
58C6: E6 81    INC $81
58C8: 20 7F 66 JSR $667F
58CB: A5 48    LDA $48
58CD: 85 82    STA $82
58CF: A5 49    LDA $49
58D1: 85 83    STA $83
58D3: A5 81    LDA $81
58D5: C5 83    CMP $83
58D7: D0 04    BNE $58DD
58D9: A5 80    LDA $80
58DB: C5 82    CMP $82
58DD: F0 03    BEQ $58E2
58DF: 20 C1 6C JSR $6CC1
58E2: A6 6E    LDX $6E
58E4: E8       INX
58E5: 38       SEC
58E6: BD 48 BA LDA $BA48,X
58E9: E5 57    SBC $57
58EB: 9D 47 BA STA $BA47,X
58EE: E4 6D    CPX $6D
58F0: 90 F2    BCC $58E4
58F2: A9 00    LDA #$00
58F4: 9D 48 BA STA $BA48,X
58F7: C6 6D    DEC $6D
58F9: A6 6D    LDX $6D
58FB: BD 48 BA LDA $BA48,X
58FE: 85 6F    STA $6F
5900: A6 6D    LDX $6D
5902: 20 EC 61 JSR $61EC
5905: A5 80    LDA $80
5907: 85 46    STA $46
5909: A5 81    LDA $81
590B: 85 47    STA $47
590D: 38       SEC
590E: A5 48    LDA $48
5910: E5 6A    SBC $6A
5912: 85 48    STA $48
5914: A5 49    LDA $49
5916: E9 00    SBC #$00
5918: 85 49    STA $49
591A: 20 AE 63 JSR $63AE
591D: 20 55 63 JSR $6355
5920: 20 BF 68 JSR $68BF
5923: A9 00    LDA #$00
5925: 8D 5C BA STA $BA5C
5928: A5 55    LDA $55
592A: C9 17    CMP #$17
592C: D0 03    BNE $5931
592E: 4C 8E 56 JMP $568E
5931: C9 14    CMP #$14
5933: D0 03    BNE $5938
5935: 4C 69 57 JMP $5769
5938: C9 15    CMP #$15
593A: D0 03    BNE $593F
593C: 4C AB 57 JMP $57AB
593F: 60       RTS

5940: A5 4E    LDA $4E
5942: 85 5B    STA $5B
5944: A5 4F    LDA $4F
5946: 85 5C    STA $5C
5948: A5 5B    LDA $5B
594A: D0 02    BNE $594E
594C: C6 5C    DEC $5C
594E: C6 5B    DEC $5B
5950: 20 48 5D JSR $5D48
5953: B0 44    BCS $5999
5955: 20 5D 5D JSR $5D5D
5958: 90 3F    BCC $5999
595A: C9 20    CMP #$20
595C: F0 30    BEQ $598E
595E: A4 70    LDY $70
5960: C0 5E    CPY #$5E
5962: 90 2A    BCC $598E
5964: 88       DEY
5965: C0 5D    CPY #$5D
5967: F0 06    BEQ $596F
5969: A9 00    LDA #$00
596B: 91 4E    STA ($4E),Y
596D: F0 F5    BEQ $5964
596F: A5 50    LDA $50
5971: 48       PHA
5972: A0 5E    LDY #$5E
5974: 84 50    STY $50
5976: 20 B7 5F JSR $5FB7
5979: D0 0A    BNE $5985
597B: C4 50    CPY $50
597D: D0 06    BNE $5985
597F: A9 00    LDA #$00
5981: A0 5C    LDY #$5C
5983: 91 4E    STA ($4E),Y
5985: 68       PLA
5986: 85 50    STA $50
5988: A9 00    LDA #$00
598A: A0 5D    LDY #$5D
598C: 91 4E    STA ($4E),Y
598E: A5 40    LDA $40
5990: 85 86    STA $86
5992: A5 41    LDA $41
5994: 85 87    STA $87
5996: 4C C3 59 JMP $59C3
5999: AD B5 03 LDA $03B5
599C: 48       PHA
599D: AD B3 03 LDA $03B3
59A0: 48       PHA
59A1: AD 91 03 LDA $0391
59A4: 48       PHA
59A5: A9 00    LDA #$00
59A7: 8D 32 0A STA $0A32
59AA: A2 D9    LDX #$D9
59AC: A0 6E    LDY #$6E
59AE: A9 00    LDA #$00
59B0: 00 12 CA INT $CA12
59B3: 20 2A E0 JSR $E02A
59B6: 68       PLA
59B7: 8D 91 03 STA $0391
59BA: 68       PLA
59BB: 8D B3 03 STA $03B3
59BE: 68       PLA
59BF: 8D B5 03 STA $03B5
59C2: 60       RTS
59C3: AD 5C BA LDA $BA5C
59C6: D0 03    BNE $59CB
59C8: 4C 89 5B JMP $5B89
59CB: AD 91 03 LDA $0391
59CE: 09 01    ORA #$01
59D0: 8D 91 03 STA $0391
59D3: AD 47 04 LDA $0447
59D6: C9 02    CMP #$02
59D8: D0 13    BNE $59ED
59DA: A9 05    LDA #$05
59DC: 85 51    STA $51
59DE: A5 40    LDA $40
59E0: 48       PHA
59E1: A5 41    LDA $41
59E3: 48       PHA
59E4: 20 4A 63 JSR $634A
59E7: 68       PLA
59E8: 85 41    STA $41
59EA: 68       PLA
59EB: 85 40    STA $40
59ED: A9 00    LDA #$00
59EF: 8D 47 04 STA $0447
59F2: A9 20    LDA #$20
59F4: 0D 48 04 ORA $0448
59F7: 8D 48 04 STA $0448
59FA: A9 00    LDA #$00
59FC: 8D BA B9 STA $B9BA
59FF: 20 A1 5D JSR $5DA1
5A02: 20 D9 5D JSR $5DD9
5A05: 90 35    BCC $5A3C
5A07: A5 5D    LDA $5D
5A09: 85 80    STA $80
5A0B: A5 5E    LDA $5E
5A0D: 85 81    STA $81
5A0F: 20 B3 62 JSR $62B3
5A12: 84 57    STY $57
5A14: 98       TYA
5A15: 38       SEC
5A16: E5 59    SBC $59
5A18: B0 1C    BCS $5A36
5A1A: 49 FF    EOR #$FF
5A1C: 69 01    ADC #$01
5A1E: 6D 58 BA ADC $BA58
5A21: 85 80    STA $80
5A23: AD 59 BA LDA $BA59
5A26: 69 00    ADC #$00
5A28: 85 81    STA $81
5A2A: A5 81    LDA $81
5A2C: C9 B0    CMP #$B0
5A2E: D0 04    BNE $5A34
5A30: A5 80    LDA $80
5A32: C9 00    CMP #$00
5A34: B0 21    BCS $5A57
5A36: 20 0B 5E JSR $5E0B
5A39: 4C 58 5A JMP $5A58
5A3C: 18       CLC
5A3D: AD 58 BA LDA $BA58
5A40: 65 59    ADC $59
5A42: 85 80    STA $80
5A44: AD 59 BA LDA $BA59
5A47: 69 00    ADC #$00
5A49: 85 81    STA $81
5A4B: A5 81    LDA $81
5A4D: C9 B0    CMP #$B0
5A4F: D0 04    BNE $5A55
5A51: A5 80    LDA $80
5A53: C9 00    CMP #$00
5A55: 90 01    BCC $5A58
5A57: 60       RTS
5A58: AD BA B9 LDA $B9BA
5A5B: F0 06    BEQ $5A63
5A5D: 20 3B 5E JSR $5E3B
5A60: 20 CF 62 JSR $62CF
5A63: 20 FA 68 JSR $68FA
5A66: A6 6E    LDX $6E
5A68: F0 2F    BEQ $5A99
5A6A: A5 5E    LDA $5E
5A6C: C9 70    CMP #$70
5A6E: D0 04    BNE $5A74
5A70: A5 5D    LDA $5D
5A72: C9 01    CMP #$01
5A74: D0 03    BNE $5A79
5A76: 4C 48 5C JMP $5C48
5A79: CA       DEX
5A7A: 20 15 6C JSR $6C15
5A7D: A5 5D    LDA $5D
5A7F: 85 82    STA $82
5A81: A5 5E    LDA $5E
5A83: 85 83    STA $83
5A85: 20 98 61 JSR $6198
5A88: 20 C6 62 JSR $62C6
5A8B: E4 40    CPX $40
5A8D: F0 03    BEQ $5A92
5A8F: 4C 48 5C JMP $5C48
5A92: C5 41    CMP $41
5A94: F0 03    BEQ $5A99
5A96: 4C 48 5C JMP $5C48
5A99: A6 6E    LDX $6E
5A9B: E8       INX
5A9C: E4 6D    CPX $6D
5A9E: D0 43    BNE $5AE3
5AA0: E0 01    CPX #$01
5AA2: F0 13    BEQ $5AB7
5AA4: 20 86 5C JSR $5C86
5AA7: D0 03    BNE $5AAC
5AA9: 4C 09 5B JMP $5B09
5AAC: 20 8E 5C JSR $5C8E
5AAF: F0 03    BEQ $5AB4
5AB1: 4C 48 5C JMP $5C48
5AB4: 4C 09 5B JMP $5B09
5AB7: A5 5E    LDA $5E
5AB9: C5 45    CMP $45
5ABB: D0 04    BNE $5AC1
5ABD: A5 5D    LDA $5D
5ABF: C5 44    CMP $44
5AC1: B0 03    BCS $5AC6
5AC3: 4C 48 5C JMP $5C48
5AC6: D0 10    BNE $5AD8
5AC8: 20 86 5C JSR $5C86
5ACB: D0 03    BNE $5AD0
5ACD: 4C 09 5B JMP $5B09
5AD0: 20 8E 5C JSR $5C8E
5AD3: F0 03    BEQ $5AD8
5AD5: 4C 48 5C JMP $5C48
5AD8: A5 5D    LDA $5D
5ADA: 85 44    STA $44
5ADC: A5 5E    LDA $5E
5ADE: 85 45    STA $45
5AE0: 4C 09 5B JMP $5B09
5AE3: E0 01    CPX #$01
5AE5: D0 03    BNE $5AEA
5AE7: 4C 48 5C JMP $5C48
5AEA: 20 15 6C JSR $6C15
5AED: A5 5D    LDA $5D
5AEF: 85 82    STA $82
5AF1: A5 5E    LDA $5E
5AF3: 85 83    STA $83
5AF5: 20 E0 61 JSR $61E0
5AF8: 20 C6 62 JSR $62C6
5AFB: E4 40    CPX $40
5AFD: F0 03    BEQ $5B02
5AFF: 4C 48 5C JMP $5C48
5B02: C5 41    CMP $41
5B04: F0 03    BEQ $5B09
5B06: 4C 48 5C JMP $5C48
5B09: 20 86 5C JSR $5C86
5B0C: D0 3A    BNE $5B48
5B0E: A5 55    LDA $55
5B10: C9 17    CMP #$17
5B12: F0 07    BEQ $5B1B
5B14: C9 14    CMP #$14
5B16: F0 03    BEQ $5B1B
5B18: 4C 45 5B JMP $5B45
5B1B: A5 5E    LDA $5E
5B1D: C9 70    CMP #$70
5B1F: D0 04    BNE $5B25
5B21: A5 5D    LDA $5D
5B23: C9 01    CMP #$01
5B25: F0 1E    BEQ $5B45
5B27: A5 5E    LDA $5E
5B29: C5 45    CMP $45
5B2B: D0 04    BNE $5B31
5B2D: A5 5D    LDA $5D
5B2F: C5 44    CMP $44
5B31: D0 0F    BNE $5B42
5B33: A6 6E    LDX $6E
5B35: 20 05 6C JSR $6C05
5B38: A9 14    LDA #$14
5B3A: 85 6A    STA $6A
5B3C: 20 89 66 JSR $6689
5B3F: 4C 04 58 JMP $5804
5B42: 4C A2 58 JMP $58A2
5B45: 4C 48 5C JMP $5C48
5B48: A6 6D    LDX $6D
5B4A: 20 EC 61 JSR $61EC
5B4D: A5 80    LDA $80
5B4F: 85 46    STA $46
5B51: A5 81    LDA $81
5B53: 85 47    STA $47
5B55: AD BA B9 LDA $B9BA
5B58: D0 1F    BNE $5B79
5B5A: A5 5E    LDA $5E
5B5C: C9 70    CMP #$70
5B5E: D0 04    BNE $5B64
5B60: A5 5D    LDA $5D
5B62: C9 01    CMP #$01
5B64: D0 03    BNE $5B69
5B66: 4C 48 5C JMP $5C48
5B69: A5 55    LDA $55
5B6B: C9 17    CMP #$17
5B6D: F0 07    BEQ $5B76
5B6F: C9 14    CMP #$14
5B71: F0 03    BEQ $5B76
5B73: 4C 48 5C JMP $5C48
5B76: 4C A2 58 JMP $58A2
5B79: A5 55    LDA $55
5B7B: C9 17    CMP #$17
5B7D: D0 03    BNE $5B82
5B7F: 4C 8E 56 JMP $568E
5B82: C9 14    CMP #$14
5B84: D0 03    BNE $5B89
5B86: 4C 69 57 JMP $5769
5B89: 24 52    BIT $52
5B8B: 30 06    BMI $5B93
5B8D: 20 B5 63 JSR $63B5
5B90: B0 01    BCS $5B93
5B92: 60       RTS
5B93: E6 6E    INC $6E
5B95: AC B5 03 LDY $03B5
5B98: 88       DEY
5B99: C8       INY
5B9A: C4 51    CPY $51
5B9C: 90 06    BCC $5BA4
5B9E: 20 FE 62 JSR $62FE
5BA1: A4 51    LDY $51
5BA3: 88       DEY
5BA4: 8C B5 03 STY $03B5
5BA7: 18       CLC
5BA8: B9 C2 6E LDA $6EC2,Y
5BAB: 65 4A    ADC $4A
5BAD: 85 82    STA $82
5BAF: A9 00    LDA #$00
5BB1: 65 4B    ADC $4B
5BB3: 85 83    STA $83
5BB5: A6 6E    LDX $6E
5BB7: 20 05 6C JSR $6C05
5BBA: AC B5 03 LDY $03B5
5BBD: A5 81    LDA $81
5BBF: C5 83    CMP $83
5BC1: D0 04    BNE $5BC7
5BC3: A5 80    LDA $80
5BC5: C5 82    CMP $82
5BC7: D0 D0    BNE $5B99
5BC9: A6 6E    LDX $6E
5BCB: 20 EC 61 JSR $61EC
5BCE: D0 21    BNE $5BF1
5BD0: 24 52    BIT $52
5BD2: 30 03    BMI $5BD7
5BD4: 4C 8E 56 JMP $568E
5BD7: 18       CLC
5BD8: A5 48    LDA $48
5BDA: 69 14    ADC #$14
5BDC: 85 48    STA $48
5BDE: 90 02    BCC $5BE2
5BE0: E6 49    INC $49
5BE2: E6 6D    INC $6D
5BE4: E6 6F    INC $6F
5BE6: A6 6F    LDX $6F
5BE8: 8A       TXA
5BE9: A6 6D    LDX $6D
5BEB: 9D 48 BA STA $BA48,X
5BEE: 20 AE 63 JSR $63AE
5BF1: A6 6E    LDX $6E
5BF3: 20 BF 68 JSR $68BF
5BF6: A6 6E    LDX $6E
5BF8: 20 EC 61 JSR $61EC
5BFB: D0 35    BNE $5C32
5BFD: 18       CLC
5BFE: A5 86    LDA $86
5C00: 6D 5A BA ADC $BA5A
5C03: 85 86    STA $86
5C05: A5 87    LDA $87
5C07: 6D 5B BA ADC $BA5B
5C0A: 85 87    STA $87
5C0C: A6 86    LDX $86
5C0E: A5 87    LDA $87
5C10: 20 2F 6C JSR $6C2F
5C13: A0 FF    LDY #$FF
5C15: C8       INY
5C16: B5 82    LDA $82,X
5C18: 91 4E    STA ($4E),Y
5C1A: E8       INX
5C1B: E0 05    CPX #$05
5C1D: D0 F6    BNE $5C15
5C1F: C8       INY
5C20: A9 20    LDA #$20
5C22: 91 4E    STA ($4E),Y
5C24: C8       INY
5C25: 8C B4 03 STY $03B4
5C28: 84 50    STY $50
5C2A: 84 70    STY $70
5C2C: A9 FF    LDA #$FF
5C2E: 8D 5C BA STA $BA5C
5C31: 60       RTS
5C32: A9 00    LDA #$00
5C34: 8D 5C BA STA $BA5C
5C37: A5 55    LDA $55
5C39: C9 15    CMP #$15
5C3B: D0 03    BNE $5C40
5C3D: 4C AB 57 JMP $57AB
5C40: A9 00    LDA #$00
5C42: 85 50    STA $50
5C44: 8D B4 03 STA $03B4
5C47: 60       RTS
5C48: 20 2B 69 JSR $692B
5C4B: 20 76 68 JSR $6876
5C4E: A5 5D    LDA $5D
5C50: 85 40    STA $40
5C52: A5 5E    LDA $5E
5C54: 85 41    STA $41
5C56: A5 86    LDA $86
5C58: 48       PHA
5C59: A5 87    LDA $87
5C5B: 48       PHA
5C5C: 20 31 68 JSR $6831
5C5F: 68       PLA
5C60: 85 87    STA $87
5C62: 68       PLA
5C63: 85 86    STA $86
5C65: AD BA B9 LDA $B9BA
5C68: F0 0A    BEQ $5C74
5C6A: A9 00    LDA #$00
5C6C: 85 50    STA $50
5C6E: 20 BF 68 JSR $68BF
5C71: 4C 79 5B JMP $5B79
5C74: 38       SEC
5C75: A5 86    LDA $86
5C77: ED 5A BA SBC $BA5A
5C7A: 85 86    STA $86
5C7C: A5 87    LDA $87
5C7E: ED 5B BA SBC $BA5B
5C81: 85 87    STA $87
5C83: 4C 95 5B JMP $5B95
5C86: A0 00    LDY #$00
5C88: B1 5D    LDA ($5D),Y
5C8A: C8       INY
5C8B: 11 5D    ORA ($5D),Y
5C8D: 60       RTS
5C8E: A0 00    LDY #$00
5C90: B1 5D    LDA ($5D),Y
5C92: 85 80    STA $80
5C94: C8       INY
5C95: B1 5D    LDA ($5D),Y
5C97: 85 81    STA $81
5C99: B1 80    LDA ($80),Y
5C9B: 88       DEY
5C9C: 11 80    ORA ($80),Y
5C9E: 60       RTS
5C9F: 60       RTS
5CA0: 24 52    BIT $52
5CA2: 30 03    BMI $5CA7
5CA4: 4C 12 E0 JMP $E012
5CA7: AE 47 04 LDX $0447
5CAA: D0 0F    BNE $5CBB
5CAC: AE B5 03 LDX $03B5
5CAF: E0 04    CPX #$04
5CB1: B0 01    BCS $5CB4
5CB3: 60       RTS
5CB4: 20 FE 62 JSR $62FE
5CB7: CE B5 03 DEC $03B5
5CBA: 60       RTS
5CBB: E0 01    CPX #$01
5CBD: D0 03    BNE $5CC2
5CBF: 4C FB 63 JMP $63FB
5CC2: 60       RTS
5CC3: 24 52    BIT $52
5CC5: 30 03    BMI $5CCA
5CC7: 4C 12 E0 JMP $E012
5CCA: AE 47 04 LDX $0447
5CCD: D0 13    BNE $5CE2
5CCF: 20 98 51 JSR $5198
5CD2: A9 01    LDA #$01
5CD4: 0D 91 03 ORA $0391
5CD7: 8D 91 03 STA $0391
5CDA: A9 05    LDA #$05
5CDC: 85 51    STA $51
5CDE: 20 4A 63 JSR $634A
5CE1: 60       RTS
5CE2: E0 02    CPX #$02
5CE4: F0 01    BEQ $5CE7
5CE6: 60       RTS
5CE7: AE B5 03 LDX $03B5
5CEA: E0 04    CPX #$04
5CEC: 90 06    BCC $5CF4
5CEE: 20 FE 62 JSR $62FE
5CF1: CE B5 03 DEC $03B5
5CF4: 38       SEC
5CF5: A5 4C    LDA $4C
5CF7: E9 14    SBC #$14
5CF9: 85 4C    STA $4C
5CFB: A5 4D    LDA $4D
5CFD: E9 00    SBC #$00
5CFF: 85 4D    STA $4D
5D01: A9 04    LDA #$04
5D03: 85 51    STA $51
5D05: 60       RTS
5D06: AD 49 04 LDA $0449
5D09: C9 02    CMP #$02
5D0B: D0 0B    BNE $5D18
5D0D: A5 72    LDA $72
5D0F: 8D B4 03 STA $03B4
5D12: A5 73    LDA $73
5D14: 8D B5 03 STA $03B5
5D17: 60       RTS
5D18: AD B4 03 LDA $03B4
5D1B: 48       PHA
5D1C: AD B5 03 LDA $03B5
5D1F: 48       PHA
5D20: AD B3 03 LDA $03B3
5D23: 48       PHA
5D24: AD 91 03 LDA $0391
5D27: 48       PHA
5D28: A2 18    LDX #$18
5D2A: A0 6F    LDY #$6F
5D2C: 86 A6    STX $A6
5D2E: 84 A7    STY $A7
5D30: 00 09 CB INT $CB09
5D33: 68       PLA
5D34: 8D 91 03 STA $0391
5D37: 68       PLA
5D38: 8D B3 03 STA $03B3
5D3B: 68       PLA
5D3C: 8D B5 03 STA $03B5
5D3F: 68       PLA
5D40: 8D B4 03 STA $03B4
5D43: 60       RTS
5D44: 20 12 E0 JSR $E012
5D47: 60       RTS
5D48: E6 5B    INC $5B
5D4A: D0 02    BNE $5D4E
5D4C: E6 5C    INC $5C
5D4E: A0 00    LDY #$00
5D50: B1 5B    LDA ($5B),Y
5D52: C9 3A    CMP #$3A
5D54: B0 06    BCS $5D5C
5D56: 38       SEC
5D57: E9 30    SBC #$30
5D59: 38       SEC
5D5A: E9 D0    SBC #$D0
5D5C: 60       RTS
5D5D: A2 00    LDX #$00
5D5F: 86 40    STX $40
5D61: 86 41    STX $41
5D63: B0 3B    BCS $5DA0
5D65: E9 2F    SBC #$2F
5D67: 85 57    STA $57
5D69: A5 41    LDA $41
5D6B: 85 42    STA $42
5D6D: A5 41    LDA $41
5D6F: C9 03    CMP #$03
5D71: D0 04    BNE $5D77
5D73: A5 40    LDA $40
5D75: C9 E8    CMP #$E8
5D77: B0 26    BCS $5D9F
5D79: A5 40    LDA $40
5D7B: 0A       ASL
5D7C: 26 42    ROL $42
5D7E: 0A       ASL
5D7F: 26 42    ROL $42
5D81: 65 40    ADC $40
5D83: 85 40    STA $40
5D85: A5 42    LDA $42
5D87: 65 41    ADC $41
5D89: 85 41    STA $41
5D8B: 06 40    ASL $40
5D8D: 26 41    ROL $41
5D8F: A5 40    LDA $40
5D91: 65 57    ADC $57
5D93: 85 40    STA $40
5D95: 90 02    BCC $5D99
5D97: E6 41    INC $41
5D99: 20 48 5D JSR $5D48
5D9C: 4C 63 5D JMP $5D63
5D9F: 18       CLC
5DA0: 60       RTS
5DA1: A9 00    LDA #$00
5DA3: 85 6C    STA $6C
5DA5: 38       SEC
5DA6: A5 5B    LDA $5B
5DA8: E5 4E    SBC $4E
5DAA: 85 5B    STA $5B
5DAC: A5 5C    LDA $5C
5DAE: E5 4F    SBC $4F
5DB0: 85 5C    STA $5C
5DB2: 20 63 5E JSR $5E63
5DB5: 90 0F    BCC $5DC6
5DB7: 20 79 5E JSR $5E79
5DBA: 20 20 5F JSR $5F20
5DBD: 20 71 5F JSR $5F71
5DC0: 20 9A 5E JSR $5E9A
5DC3: 4C B2 5D JMP $5DB2
5DC6: A5 6C    LDA $6C
5DC8: 18       CLC
5DC9: 69 05    ADC #$05
5DCB: 85 59    STA $59
5DCD: 20 D0 5E JSR $5ED0
5DD0: A9 00    LDA #$00
5DD2: 9D BA B9 STA $B9BA,X
5DD5: 9D BC B9 STA $B9BC,X
5DD8: 60       RTS
5DD9: A9 01    LDA #$01
5DDB: A2 70    LDX #$70
5DDD: A0 00    LDY #$00
5DDF: 85 5D    STA $5D
5DE1: 86 5E    STX $5E
5DE3: B1 5D    LDA ($5D),Y
5DE5: C8       INY
5DE6: 11 5D    ORA ($5D),Y
5DE8: F0 1F    BEQ $5E09
5DEA: C8       INY
5DEB: C8       INY
5DEC: A5 41    LDA $41
5DEE: D1 5D    CMP ($5D),Y
5DF0: 90 18    BCC $5E0A
5DF2: F0 03    BEQ $5DF7
5DF4: 88       DEY
5DF5: D0 09    BNE $5E00
5DF7: A5 40    LDA $40
5DF9: 88       DEY
5DFA: D1 5D    CMP ($5D),Y
5DFC: 90 0C    BCC $5E0A
5DFE: F0 0A    BEQ $5E0A
5E00: 88       DEY
5E01: B1 5D    LDA ($5D),Y
5E03: AA       TAX
5E04: 88       DEY
5E05: B1 5D    LDA ($5D),Y
5E07: B0 D4    BCS $5DDD
5E09: 18       CLC
5E0A: 60       RTS
5E0B: 18       CLC
5E0C: A5 5D    LDA $5D
5E0E: 65 57    ADC $57
5E10: 85 80    STA $80
5E12: A5 5E    LDA $5E
5E14: 69 00    ADC #$00
5E16: 85 81    STA $81
5E18: AD 58 BA LDA $BA58
5E1B: 85 82    STA $82
5E1D: AD 59 BA LDA $BA59
5E20: 85 83    STA $83
5E22: A5 57    LDA $57
5E24: 85 6A    STA $6A
5E26: 20 C1 6C JSR $6CC1
5E29: 38       SEC
5E2A: AD 58 BA LDA $BA58
5E2D: E5 57    SBC $57
5E2F: 8D 58 BA STA $BA58
5E32: AD 59 BA LDA $BA59
5E35: E9 00    SBC #$00
5E37: 8D 59 BA STA $BA59
5E3A: 60       RTS
5E3B: A5 5D    LDA $5D
5E3D: 85 80    STA $80
5E3F: A5 5E    LDA $5E
5E41: 85 81    STA $81
5E43: AD 58 BA LDA $BA58
5E46: 85 82    STA $82
5E48: AD 59 BA LDA $BA59
5E4B: 85 83    STA $83
5E4D: A5 59    LDA $59
5E4F: 85 6A    STA $6A
5E51: 20 05 6D JSR $6D05
5E54: 18       CLC
5E55: AD 58 BA LDA $BA58
5E58: 65 59    ADC $59
5E5A: 8D 58 BA STA $BA58
5E5D: 90 03    BCC $5E62
5E5F: EE 59 BA INC $BA59
5E62: 60       RTS
5E63: A4 5B    LDY $5B
5E65: B1 4E    LDA ($4E),Y
5E67: F0 0E    BEQ $5E77
5E69: C9 20    CMP #$20
5E6B: F0 04    BEQ $5E71
5E6D: C9 1E    CMP #$1E
5E6F: D0 04    BNE $5E75
5E71: E6 5B    INC $5B
5E73: D0 EE    BNE $5E63
5E75: 38       SEC
5E76: 60       RTS
5E77: 18       CLC
5E78: 60       RTS
5E79: A4 5B    LDY $5B
5E7B: 88       DEY
5E7C: C8       INY
5E7D: B1 4E    LDA ($4E),Y
5E7F: 20 87 5E JSR $5E87
5E82: B0 F8    BCS $5E7C
5E84: 84 58    STY $58
5E86: 60       RTS
5E87: 30 0D    BMI $5E96
5E89: A2 00    LDX #$00
5E8B: DD DF 4F CMP $4FDF,X
5E8E: F0 08    BEQ $5E98
5E90: E8       INX
5E91: E0 10    CPX #$10
5E93: 90 F6    BCC $5E8B
5E95: 60       RTS
5E96: A2 10    LDX #$10
5E98: 18       CLC
5E99: 60       RTS
5E9A: A4 58    LDY $58
5E9C: B1 4E    LDA ($4E),Y
5E9E: 20 87 5E JSR $5E87
5EA1: 8A       TXA
5EA2: 0A       ASL
5EA3: A8       TAY
5EA4: B9 E3 6E LDA $6EE3,Y
5EA7: 85 80    STA $80
5EA9: B9 E4 6E LDA $6EE4,Y
5EAC: 85 81    STA $81
5EAE: 20 B6 5E JSR $5EB6
5EB1: A5 58    LDA $58
5EB3: 85 5B    STA $5B
5EB5: 60       RTS
5EB6: 6C 80 00 JMP ($0080)
5EB9: A6 6C    LDX $6C
5EBB: BD B9 B9 LDA $B9B9,X
5EBE: 10 01    BPL $5EC1
5EC0: 60       RTS
5EC1: A9 20    LDA #$20
5EC3: 9D BA B9 STA $B9BA,X
5EC6: E6 6C    INC $6C
5EC8: E6 58    INC $58
5ECA: 60       RTS
5ECB: BD EF 4F LDA $4FEF,X
5ECE: D0 04    BNE $5ED4
5ED0: A4 58    LDY $58
5ED2: B1 4E    LDA ($4E),Y
5ED4: A6 6C    LDX $6C
5ED6: 9D BA B9 STA $B9BA,X
5ED9: E6 6C    INC $6C
5EDB: E6 58    INC $58
5EDD: 60       RTS
5EDE: 20 D0 5E JSR $5ED0
5EE1: A4 58    LDY $58
5EE3: A6 6C    LDX $6C
5EE5: B1 4E    LDA ($4E),Y
5EE7: D0 01    BNE $5EEA
5EE9: 60       RTS
5EEA: 30 11    BMI $5EFD
5EEC: C9 1E    CMP #$1E
5EEE: D0 05    BNE $5EF5
5EF0: E6 58    INC $58
5EF2: 4C E1 5E JMP $5EE1
5EF5: C9 22    CMP #$22
5EF7: D0 E5    BNE $5EDE
5EF9: 20 D0 5E JSR $5ED0
5EFC: 60       RTS
5EFD: 20 03 5F JSR $5F03
5F00: 4C E1 5E JMP $5EE1
5F03: A9 1F    LDA #$1F
5F05: A6 6C    LDX $6C
5F07: 9D BA B9 STA $B9BA,X
5F0A: E8       INX
5F0B: A4 58    LDY $58
5F0D: B1 4E    LDA ($4E),Y
5F0F: 9D BA B9 STA $B9BA,X
5F12: E8       INX
5F13: C8       INY
5F14: B1 4E    LDA ($4E),Y
5F16: 9D BA B9 STA $B9BA,X
5F19: E8       INX
5F1A: 86 6C    STX $6C
5F1C: C8       INY
5F1D: 84 58    STY $58
5F1F: 60       RTS

5F20: A4 5B    LDY $5B
5F22: C4 58    CPY $58
5F24: F0 49    BEQ $5F6F
5F26: A9 00    LDA #$00
5F28: 85 59    STA $59
5F2A: A9 F6    LDA #$F6
5F2C: 85 80    STA $80
5F2E: A9 4F    LDA #$4F
5F30: 85 81    STA $81
5F32: A4 5B    LDY $5B
5F34: 84 5A    STY $5A
5F36: A4 5A    LDY $5A
5F38: C4 58    CPY $58
5F3A: B0 1D    BCS $5F59
5F3C: E6 80    INC $80
5F3E: D0 02    BNE $5F42
5F40: E6 81    INC $81
5F42: B1 4E    LDA ($4E),Y
5F44: E6 5A    INC $5A
5F46: 38       SEC
5F47: A0 00    LDY #$00
5F49: F1 80    SBC ($80),Y
5F4B: F0 E9    BEQ $5F36
5F4D: C9 80    CMP #$80
5F4F: D0 08    BNE $5F59
5F51: A6 5A    LDX $5A
5F53: E4 58    CPX $58
5F55: D0 02    BNE $5F59
5F57: 18       CLC
5F58: 60       RTS

5F59: A0 00    LDY #$00
5F5B: B1 80    LDA ($80),Y
5F5D: 30 09    BMI $5F68
5F5F: E6 80    INC $80
5F61: D0 02    BNE $5F65
5F63: E6 81    INC $81
5F65: 4C 59 5F JMP $5F59
5F68: E6 59    INC $59
5F6A: C8       INY
5F6B: B1 80    LDA ($80),Y
5F6D: D0 C3    BNE $5F32
5F6F: 38       SEC
5F70: 60       RTS
5F71: B0 0C    BCS $5F7F
5F73: A6 6C    LDX $6C
5F75: A5 59    LDA $59
5F77: 09 80    ORA #$80
5F79: 9D BA B9 STA $B9BA,X
5F7C: E6 6C    INC $6C
5F7E: 60       RTS
5F7F: A4 5B    LDY $5B
5F81: C4 58    CPY $58
5F83: 90 01    BCC $5F86
5F85: 60       RTS
5F86: A6 6C    LDX $6C
5F88: B1 4E    LDA ($4E),Y
5F8A: C9 1E    CMP #$1E
5F8C: F0 05    BEQ $5F93
5F8E: 9D BA B9 STA $B9BA,X
5F91: E6 6C    INC $6C
5F93: E6 5B    INC $5B
5F95: D0 E8    BNE $5F7F
5F97: 60       RTS
5F98: 20 B7 5F JSR $5FB7
5F9B: D0 14    BNE $5FB1
5F9D: C6 50    DEC $50
5F9F: 20 BF 67 JSR $67BF
5FA2: C6 50    DEC $50
5FA4: 20 BF 67 JSR $67BF
5FA7: A4 50    LDY $50
5FA9: 88       DEY
5FAA: B1 4E    LDA ($4E),Y
5FAC: C9 1E    CMP #$1E
5FAE: F0 01    BEQ $5FB1
5FB0: 60       RTS
5FB1: C6 50    DEC $50
5FB3: 20 BF 67 JSR $67BF
5FB6: 60       RTS
5FB7: A0 00    LDY #$00
5FB9: A2 FF    LDX #$FF
5FBB: B1 4E    LDA ($4E),Y
5FBD: 10 03    BPL $5FC2
5FBF: A2 00    LDX #$00
5FC1: C8       INY
5FC2: C8       INY
5FC3: C4 50    CPY $50
5FC5: 90 F2    BCC $5FB9
5FC7: 8A       TXA
5FC8: 60       RTS
5FC9: 20 B7 5F JSR $5FB7
5FCC: C4 50    CPY $50
5FCE: 60       RTS
5FCF: A5 6E    LDA $6E
5FD1: F0 03    BEQ $5FD6
5FD3: 4C 6D 60 JMP $606D
5FD6: A5 4B    LDA $4B
5FD8: C9 B8    CMP #$B8
5FDA: D0 04    BNE $5FE0
5FDC: A5 4A    LDA $4A
5FDE: C9 8E    CMP #$8E
5FE0: 90 05    BCC $5FE7
5FE2: F0 03    BEQ $5FE7
5FE4: 4C 6D 60 JMP $606D
5FE7: A5 45    LDA $45
5FE9: C9 70    CMP #$70
5FEB: D0 04    BNE $5FF1
5FED: A5 44    LDA $44
5FEF: C9 01    CMP #$01
5FF1: 90 05    BCC $5FF8
5FF3: F0 03    BEQ $5FF8
5FF5: 4C 6D 60 JMP $606D
5FF8: 24 52    BIT $52
5FFA: 30 07    BMI $6003
5FFC: AD 7B BA LDA $BA7B
5FFF: C9 00    CMP #$00
6001: D0 02    BNE $6005
6003: 18       CLC
6004: 60       RTS
6005: A5 44    LDA $44
6007: 85 68    STA $68
6009: A5 45    LDA $45
600B: 85 69    STA $69
600D: 20 7D 6C JSR $6C7D
6010: A5 66    LDA $66
6012: 85 82    STA $82
6014: A5 67    LDA $67
6016: 85 83    STA $83
6018: A5 46    LDA $46
601A: 85 68    STA $68
601C: A5 47    LDA $47
601E: 85 69    STA $69
6020: 20 7D 6C JSR $6C7D
6023: CE 7B BA DEC $BA7B
6026: AD 7B BA LDA $BA7B
6029: 0A       ASL
602A: AA       TAX
602B: BD 7D BA LDA $BA7D,X
602E: 85 80    STA $80
6030: BD 7E BA LDA $BA7E,X
6033: 85 81    STA $81
6035: 38       SEC
6036: A5 80    LDA $80
6038: E5 53    SBC $53
603A: 8D 79 BA STA $BA79
603D: A5 81    LDA $81
603F: E5 54    SBC $54
6041: 8D 7A BA STA $BA7A
6044: A9 00    LDA #$00
6046: 85 80    STA $80
6048: A9 40    LDA #$40
604A: 85 81    STA $81
604C: 20 DC 67 JSR $67DC
604F: 20 47 6C JSR $6C47
6052: A5 68    LDA $68
6054: 85 46    STA $46
6056: A5 69    LDA $69
6058: 85 47    STA $47
605A: A5 82    LDA $82
605C: 85 66    STA $66
605E: A5 83    LDA $83
6060: 85 67    STA $67
6062: 20 47 6C JSR $6C47
6065: A5 68    LDA $68
6067: 85 44    STA $44
6069: A5 69    LDA $69
606B: 85 45    STA $45
606D: C6 6E    DEC $6E
606F: AE B5 03 LDX $03B5
6072: CA       DEX
6073: 10 05    BPL $607A
6075: 20 86 60 JSR $6086
6078: A2 00    LDX #$00
607A: 8E B5 03 STX $03B5
607D: 20 BF 68 JSR $68BF
6080: A5 70    LDA $70
6082: 85 50    STA $50
6084: 38       SEC
6085: 60       RTS
6086: A5 4B    LDA $4B
6088: C9 B8    CMP #$B8
608A: D0 04    BNE $6090
608C: A5 4A    LDA $4A
608E: C9 F2    CMP #$F2
6090: 90 02    BCC $6094
6092: D0 48    BNE $60DC
6094: A6 6D    LDX $6D
6096: CA       DEX
6097: 20 05 6C JSR $6C05
609A: A5 81    LDA $81
609C: C5 4D    CMP $4D
609E: D0 04    BNE $60A4
60A0: A5 80    LDA $80
60A2: C5 4C    CMP $4C
60A4: 90 36    BCC $60DC
60A6: A6 6D    LDX $6D
60A8: 38       SEC
60A9: BD 48 BA LDA $BA48,X
60AC: FD 47 BA SBC $BA47,X
60AF: 85 6A    STA $6A
60B1: BD 47 BA LDA $BA47,X
60B4: 85 6F    STA $6F
60B6: C6 6D    DEC $6D
60B8: A6 6D    LDX $6D
60BA: 20 EC 61 JSR $61EC
60BD: A5 80    LDA $80
60BF: 85 46    STA $46
60C1: A5 81    LDA $81
60C3: 85 47    STA $47
60C5: A6 6A    LDX $6A
60C7: BD C2 6E LDA $6EC2,X
60CA: 85 6A    STA $6A
60CC: 38       SEC
60CD: A5 48    LDA $48
60CF: E5 6A    SBC $6A
60D1: 85 48    STA $48
60D3: A5 49    LDA $49
60D5: E9 00    SBC #$00
60D7: 85 49    STA $49
60D9: 20 AE 63 JSR $63AE
60DC: 38       SEC
60DD: A5 4A    LDA $4A
60DF: E9 14    SBC #$14
60E1: 85 4A    STA $4A
60E3: A5 4B    LDA $4B
60E5: E9 00    SBC #$00
60E7: 85 4B    STA $4B
60E9: 38       SEC
60EA: A5 4C    LDA $4C
60EC: E9 14    SBC #$14
60EE: 85 4C    STA $4C
60F0: A5 4D    LDA $4D
60F2: E9 00    SBC #$00
60F4: 85 4D    STA $4D
60F6: A5 4B    LDA $4B
60F8: C9 B8    CMP #$B8
60FA: D0 04    BNE $6100
60FC: A5 4A    LDA $4A
60FE: C9 8E    CMP #$8E
6100: 90 01    BCC $6103
6102: 60       RTS
6103: A5 44    LDA $44
6105: 85 82    STA $82
6107: A5 45    LDA $45
6109: 85 83    STA $83
610B: 20 98 61 JSR $6198
610E: A5 80    LDA $80
6110: 85 40    STA $40
6112: A5 81    LDA $81
6114: 85 41    STA $41
6116: A5 80    LDA $80
6118: 85 44    STA $44
611A: A5 81    LDA $81
611C: 85 45    STA $45
611E: A9 BA    LDA #$BA
6120: 85 42    STA $42
6122: A9 B9    LDA #$B9
6124: 85 43    STA $43
6126: 20 2F 6A JSR $6A2F
6129: 20 B2 6B JSR $6BB2
612C: 18       CLC
612D: A4 6D    LDY $6D
612F: B9 48 BA LDA $BA48,Y
6132: 65 6A    ADC $6A
6134: 99 49 BA STA $BA49,Y
6137: 88       DEY
6138: 10 F5    BPL $612F
613A: A9 00    LDA #$00
613C: 8D 48 BA STA $BA48
613F: E6 6D    INC $6D
6141: 18       CLC
6142: A5 6F    LDA $6F
6144: 65 6A    ADC $6A
6146: 85 6F    STA $6F
6148: E6 6E    INC $6E
614A: A9 8E    LDA #$8E
614C: 85 80    STA $80
614E: A9 B8    LDA #$B8
6150: 85 81    STA $81
6152: A5 48    LDA $48
6154: 85 82    STA $82
6156: A5 49    LDA $49
6158: 85 83    STA $83
615A: A6 6A    LDX $6A
615C: BD C2 6E LDA $6EC2,X
615F: 85 6A    STA $6A
6161: A5 81    LDA $81
6163: C5 83    CMP $83
6165: D0 04    BNE $616B
6167: A5 80    LDA $80
6169: C5 82    CMP $82
616B: F0 03    BEQ $6170
616D: 20 05 6D JSR $6D05
6170: 20 F1 62 JSR $62F1
6173: 18       CLC
6174: A5 48    LDA $48
6176: 65 6A    ADC $6A
6178: 85 48    STA $48
617A: 90 02    BCC $617E
617C: E6 49    INC $49
617E: 18       CLC
617F: A5 4A    LDA $4A
6181: 65 6A    ADC $6A
6183: 85 4A    STA $4A
6185: 90 02    BCC $6189
6187: E6 4B    INC $4B
6189: 18       CLC
618A: A5 4C    LDA $4C
618C: 65 6A    ADC $6A
618E: 85 4C    STA $4C
6190: 90 02    BCC $6194
6192: E6 4D    INC $4D
6194: 20 AE 63 JSR $63AE
6197: 60       RTS
6198: 24 52    BIT $52
619A: 10 19    BPL $61B5
619C: A2 01    LDX #$01
619E: A9 70    LDA #$70
61A0: 86 80    STX $80
61A2: 85 81    STA $81
61A4: A0 00    LDY #$00
61A6: B1 80    LDA ($80),Y
61A8: AA       TAX
61A9: C8       INY
61AA: B1 80    LDA ($80),Y
61AC: C5 83    CMP $83
61AE: D0 F0    BNE $61A0
61B0: E4 82    CPX $82
61B2: D0 EC    BNE $61A0
61B4: 60       RTS
61B5: A9 01    LDA #$01
61B7: 85 68    STA $68
61B9: A9 70    LDA #$70
61BB: 85 69    STA $69
61BD: A5 68    LDA $68
61BF: 85 80    STA $80
61C1: A5 69    LDA $69
61C3: 85 81    STA $81
61C5: A0 00    LDY #$00
61C7: B1 80    LDA ($80),Y
61C9: 85 66    STA $66
61CB: C8       INY
61CC: B1 80    LDA ($80),Y
61CE: 85 67    STA $67
61D0: 20 47 6C JSR $6C47
61D3: A5 69    LDA $69
61D5: C5 83    CMP $83
61D7: D0 04    BNE $61DD
61D9: A5 68    LDA $68
61DB: C5 82    CMP $82
61DD: D0 DE    BNE $61BD
61DF: 60       RTS
61E0: A0 00    LDY #$00
61E2: B1 82    LDA ($82),Y
61E4: 85 80    STA $80
61E6: C8       INY
61E7: B1 82    LDA ($82),Y
61E9: 85 81    STA $81
61EB: 60       RTS
61EC: A5 44    LDA $44
61EE: 85 80    STA $80
61F0: A5 45    LDA $45
61F2: 85 81    STA $81
61F4: 24 52    BIT $52
61F6: 10 21    BPL $6219
61F8: 8A       TXA
61F9: D0 02    BNE $61FD
61FB: F0 48    BEQ $6245
61FD: 86 82    STX $82
61FF: 4C 06 62 JMP $6206
6202: 86 80    STX $80
6204: 85 81    STA $81
6206: A0 00    LDY #$00
6208: B1 80    LDA ($80),Y
620A: AA       TAX
620B: C8       INY
620C: B1 80    LDA ($80),Y
620E: C6 82    DEC $82
6210: D0 F0    BNE $6202
6212: 85 81    STA $81
6214: 86 80    STX $80
6216: 4C 45 62 JMP $6245
6219: 8A       TXA
621A: D0 02    BNE $621E
621C: F0 27    BEQ $6245
621E: 86 82    STX $82
6220: 4C 2B 62 JMP $622B
6223: A5 68    LDA $68
6225: 85 80    STA $80
6227: A5 69    LDA $69
6229: 85 81    STA $81
622B: A0 00    LDY #$00
622D: B1 80    LDA ($80),Y
622F: 85 66    STA $66
6231: C8       INY
6232: B1 80    LDA ($80),Y
6234: 85 67    STA $67
6236: 20 47 6C JSR $6C47
6239: C6 82    DEC $82
623B: D0 E6    BNE $6223
623D: A5 68    LDA $68
623F: 85 80    STA $80
6241: A5 69    LDA $69
6243: 85 81    STA $81
6245: A0 00    LDY #$00
6247: B1 80    LDA ($80),Y
6249: C8       INY
624A: 11 80    ORA ($80),Y
624C: 60       RTS
624D: A9 01    LDA #$01
624F: 85 80    STA $80
6251: A9 70    LDA #$70
6253: 85 81    STA $81
6255: A0 00    LDY #$00
6257: B1 80    LDA ($80),Y
6259: C8       INY
625A: 11 80    ORA ($80),Y
625C: F0 12    BEQ $6270
625E: D0 06    BNE $6266
6260: B1 80    LDA ($80),Y
6262: 85 81    STA $81
6264: 86 80    STX $80
6266: A0 00    LDY #$00
6268: B1 80    LDA ($80),Y
626A: AA       TAX
626B: C8       INY
626C: 11 80    ORA ($80),Y
626E: D0 F0    BNE $6260
6270: 18       CLC
6271: A5 80    LDA $80
6273: 69 02    ADC #$02
6275: 8D 58 BA STA $BA58
6278: A5 81    LDA $81
627A: 69 00    ADC #$00
627C: 8D 59 BA STA $BA59
627F: 60       RTS
6280: A9 01    LDA #$01
6282: 85 80    STA $80
6284: A9 70    LDA #$70
6286: 85 81    STA $81
6288: 20 B3 62 JSR $62B3
628B: A9 00    LDA #$00
628D: 85 82    STA $82
628F: A9 70    LDA #$70
6291: 85 83    STA $83
6293: 98       TYA
6294: D0 01    BNE $6297
6296: 60       RTS
6297: C8       INY
6298: 84 57    STY $57
629A: A0 00    LDY #$00
629C: B1 80    LDA ($80),Y
629E: 85 82    STA $82
62A0: C8       INY
62A1: B1 80    LDA ($80),Y
62A3: 85 83    STA $83
62A5: 38       SEC
62A6: A5 82    LDA $82
62A8: E5 57    SBC $57
62AA: 85 82    STA $82
62AC: A5 83    LDA $83
62AE: E9 00    SBC #$00
62B0: 85 83    STA $83
62B2: 60       RTS
62B3: A0 01    LDY #$01
62B5: B1 80    LDA ($80),Y
62B7: 88       DEY
62B8: 11 80    ORA ($80),Y
62BA: D0 01    BNE $62BD
62BC: 60       RTS
62BD: A0 03    LDY #$03
62BF: C8       INY
62C0: B1 80    LDA ($80),Y
62C2: D0 FB    BNE $62BF
62C4: C8       INY
62C5: 60       RTS
62C6: A0 02    LDY #$02
62C8: B1 80    LDA ($80),Y
62CA: AA       TAX
62CB: C8       INY
62CC: B1 80    LDA ($80),Y
62CE: 60       RTS
62CF: A0 00    LDY #$00
62D1: A9 01    LDA #$01
62D3: 91 5D    STA ($5D),Y
62D5: C8       INY
62D6: 91 5D    STA ($5D),Y
62D8: C8       INY
62D9: A5 40    LDA $40
62DB: 91 5D    STA ($5D),Y
62DD: C8       INY
62DE: A5 41    LDA $41
62E0: 91 5D    STA ($5D),Y
62E2: C8       INY
62E3: A2 00    LDX #$00
62E5: BD BA B9 LDA $B9BA,X
62E8: 91 5D    STA ($5D),Y
62EA: D0 01    BNE $62ED
62EC: 60       RTS
62ED: C8       INY
62EE: E8       INX
62EF: D0 F4    BNE $62E5
62F1: A4 6A    LDY $6A
62F3: 88       DEY
62F4: B9 BA B9 LDA $B9BA,Y
62F7: 99 8E B8 STA $B88E,Y
62FA: 88       DEY
62FB: 10 F7    BPL $62F4
62FD: 60       RTS
62FE: A5 4D    LDA $4D
6300: C9 B9    CMP #$B9
6302: D0 04    BNE $6308
6304: A5 4C    LDA $4C
6306: C9 56    CMP #$56
6308: 90 35    BCC $633F
630A: 38       SEC
630B: AD 49 BA LDA $BA49
630E: ED 48 BA SBC $BA48
6311: 8D 49 BA STA $BA49
6314: AA       TAX
6315: 85 6A    STA $6A
6317: A0 00    LDY #$00
6319: C8       INY
631A: B9 48 BA LDA $BA48,Y
631D: 38       SEC
631E: E5 6A    SBC $6A
6320: 99 47 BA STA $BA47,Y
6323: C4 6D    CPY $6D
6325: D0 F2    BNE $6319
6327: A9 00    LDA #$00
6329: 99 48 BA STA $BA48,Y
632C: 38       SEC
632D: A5 6F    LDA $6F
632F: E5 6A    SBC $6A
6331: 85 6F    STA $6F
6333: C6 6D    DEC $6D
6335: C6 6E    DEC $6E
6337: BD C2 6E LDA $6EC2,X
633A: 85 6A    STA $6A
633C: 20 4C 69 JSR $694C
633F: 18       CLC
6340: A5 4A    LDA $4A
6342: 69 14    ADC #$14
6344: 85 4A    STA $4A
6346: 90 02    BCC $634A
6348: E6 4B    INC $4B
634A: 18       CLC
634B: A5 4C    LDA $4C
634D: 69 14    ADC #$14
634F: 85 4C    STA $4C
6351: 90 02    BCC $6355
6353: E6 4D    INC $4D
6355: A5 49    LDA $49
6357: C5 4D    CMP $4D
6359: D0 04    BNE $635F
635B: A5 48    LDA $48
635D: C5 4C    CMP $4C
635F: 90 01    BCC $6362
6361: 60       RTS
6362: A5 46    LDA $46
6364: 85 40    STA $40
6366: A5 47    LDA $47
6368: 85 41    STA $41
636A: A5 48    LDA $48
636C: 85 42    STA $42
636E: A5 49    LDA $49
6370: 85 43    STA $43
6372: A0 00    LDY #$00
6374: B1 40    LDA ($40),Y
6376: C8       INY
6377: 11 40    ORA ($40),Y
6379: D0 0F    BNE $638A
637B: 38       SEC
637C: A5 4C    LDA $4C
637E: E5 48    SBC $48
6380: A8       TAY
6381: 88       DEY
6382: A9 00    LDA #$00
6384: 91 42    STA ($42),Y
6386: 88       DEY
6387: 10 FB    BPL $6384
6389: 60       RTS
638A: 20 2F 6A JSR $6A2F
638D: 20 11 6B JSR $6B11
6390: E6 6D    INC $6D
6392: A5 6F    LDA $6F
6394: A6 6D    LDX $6D
6396: 9D 48 BA STA $BA48,X
6399: A5 40    LDA $40
639B: 85 46    STA $46
639D: A5 41    LDA $41
639F: 85 47    STA $47
63A1: A5 42    LDA $42
63A3: 85 48    STA $48
63A5: A5 43    LDA $43
63A7: 85 49    STA $49
63A9: 20 AE 63 JSR $63AE
63AC: 38       SEC
63AD: 60       RTS
63AE: A9 00    LDA #$00
63B0: A0 00    LDY #$00
63B2: 91 48    STA ($48),Y
63B4: 60       RTS
63B5: A6 6E    LDX $6E
63B7: E8       INX
63B8: E4 6D    CPX $6D
63BA: D0 1B    BNE $63D7
63BC: A5 49    LDA $49
63BE: C5 4D    CMP $4D
63C0: D0 04    BNE $63C6
63C2: A5 48    LDA $48
63C4: C5 4C    CMP $4C
63C6: 90 0D    BCC $63D5
63C8: A0 00    LDY #$00
63CA: B1 4C    LDA ($4C),Y
63CC: D0 09    BNE $63D7
63CE: B1 46    LDA ($46),Y
63D0: C8       INY
63D1: 11 46    ORA ($46),Y
63D3: D0 02    BNE $63D7
63D5: 18       CLC
63D6: 60       RTS
63D7: 38       SEC
63D8: 60       RTS
63D9: 20 B5 63 JSR $63B5
63DC: B0 01    BCS $63DF
63DE: 60       RTS
63DF: E6 6E    INC $6E
63E1: AE B5 03 LDX $03B5
63E4: E8       INX
63E5: E4 51    CPX $51
63E7: 90 06    BCC $63EF
63E9: 20 FE 62 JSR $62FE
63EC: A6 51    LDX $51
63EE: CA       DEX
63EF: 8E B5 03 STX $03B5
63F2: 20 BF 68 JSR $68BF
63F5: A9 00    LDA #$00
63F7: 85 50    STA $50
63F9: 38       SEC
63FA: 60       RTS
63FB: 20 D5 66 JSR $66D5
63FE: 18       CLC
63FF: 65 70    ADC $70
6401: C9 5E    CMP #$5E
6403: 90 0D    BCC $6412
6405: F0 0B    BEQ $6412
6407: A5 55    LDA $55
6409: 10 03    BPL $640E
640B: 00 01 07 INT $0701
640E: 20 12 E0 JSR $E012
6411: 60       RTS
6412: A9 FF    LDA #$FF
6414: 8D 5C BA STA $BA5C
6417: 20 B1 64 JSR $64B1
641A: AD 57 BA LDA $BA57
641D: C9 05    CMP #$05
641F: D0 05    BNE $6426
6421: 20 BF 67 JSR $67BF
6424: C6 50    DEC $50
6426: 20 94 66 JSR $6694
6429: 20 5F 67 JSR $675F
642C: A9 00    LDA #$00
642E: 8D B1 03 STA $03B1
6431: AE 47 04 LDX $0447
6434: E0 02    CPX #$02
6436: D0 02    BNE $643A
6438: A9 08    LDA #$08
643A: 8D B2 03 STA $03B2
643D: A9 FF    LDA #$FF
643F: 8D AF 03 STA $03AF
6442: A9 FF    LDA #$FF
6444: 8D B0 03 STA $03B0
6447: 00 19 C7 INT $C719
644A: AD 47 04 LDA $0447
644D: C9 02    CMP #$02
644F: F0 01    BEQ $6452
6451: 60       RTS
6452: A5 55    LDA $55
6454: 30 01    BMI $6457
6456: 60       RTS
6457: AD 5F 04 LDA $045F
645A: F0 01    BEQ $645D
645C: 60       RTS
645D: A5 55    LDA $55
645F: 85 92    STA $92
6461: A5 56    LDA $56
6463: 85 93    STA $93
6465: 00 07 07 INT $0707
6468: B0 01    BCS $646B
646A: 60       RTS
646B: A5 92    LDA $92
646D: 85 55    STA $55
646F: 20 D5 66 JSR $66D5
6472: 18       CLC
6473: 65 70    ADC $70
6475: C9 5E    CMP #$5E
6477: 90 06    BCC $647F
6479: F0 04    BEQ $647F
647B: 20 12 E0 JSR $E012
647E: 60       RTS
647F: 20 B1 64 JSR $64B1
6482: A5 70    LDA $70
6484: 48       PHA
6485: A4 50    LDY $50
6487: AD 57 BA LDA $BA57
648A: C9 04    CMP #$04
648C: D0 0B    BNE $6499
648E: A9 1E    LDA #$1E
6490: 91 4E    STA ($4E),Y
6492: E6 50    INC $50
6494: 20 97 67 JSR $6797
6497: A4 50    LDY $50
6499: A5 92    LDA $92
649B: 91 4E    STA ($4E),Y
649D: E6 50    INC $50
649F: 20 97 67 JSR $6797
64A2: A4 50    LDY $50
64A4: A5 93    LDA $93
64A6: 91 4E    STA ($4E),Y
64A8: E6 50    INC $50
64AA: 20 97 67 JSR $6797
64AD: 68       PLA
64AE: 85 70    STA $70
64B0: 60       RTS
64B1: A2 00    LDX #$00
64B3: A0 01    LDY #$01
64B5: 84 59    STY $59
64B7: A0 00    LDY #$00
64B9: 84 58    STY $58
64BB: C4 50    CPY $50
64BD: D0 24    BNE $64E3
64BF: A4 57    LDY $57
64C1: F0 20    BEQ $64E3
64C3: 10 15    BPL $64DA
64C5: E6 58    INC $58
64C7: C8       INY
64C8: D0 FB    BNE $64C5
64CA: AD 57 BA LDA $BA57
64CD: C9 03    CMP #$03
64CF: D0 12    BNE $64E3
64D1: A9 00    LDA #$00
64D3: A4 58    LDY $58
64D5: 91 4E    STA ($4E),Y
64D7: 4C E3 64 JMP $64E3
64DA: A9 00    LDA #$00
64DC: 9D BA B9 STA $B9BA,X
64DF: E8       INX
64E0: 88       DEY
64E1: D0 F7    BNE $64DA
64E3: A4 58    LDY $58
64E5: C4 70    CPY $70
64E7: B0 51    BCS $653A
64E9: B1 4E    LDA ($4E),Y
64EB: 10 2D    BPL $651A
64ED: A4 59    LDY $59
64EF: 86 5A    STX $5A
64F1: B9 C9 6E LDA $6EC9,Y
64F4: C5 5A    CMP $5A
64F6: F0 07    BEQ $64FF
64F8: B0 0B    BCS $6505
64FA: C8       INY
64FB: 84 59    STY $59
64FD: D0 F2    BNE $64F1
64FF: A9 1E    LDA #$1E
6501: 9D BA B9 STA $B9BA,X
6504: E8       INX
6505: A4 58    LDY $58
6507: B1 4E    LDA ($4E),Y
6509: 9D BA B9 STA $B9BA,X
650C: E8       INX
650D: C8       INY
650E: B1 4E    LDA ($4E),Y
6510: 9D BA B9 STA $B9BA,X
6513: E8       INX
6514: C8       INY
6515: 84 58    STY $58
6517: 4C BB 64 JMP $64BB
651A: C9 1E    CMP #$1E
651C: D0 12    BNE $6530
651E: AD 57 BA LDA $BA57
6521: C9 05    CMP #$05
6523: D0 0F    BNE $6534
6525: 18       CLC
6526: A5 58    LDA $58
6528: 69 03    ADC #$03
652A: C5 70    CMP $70
652C: D0 06    BNE $6534
652E: A9 1E    LDA #$1E
6530: 9D BA B9 STA $B9BA,X
6533: E8       INX
6534: C8       INY
6535: 84 58    STY $58
6537: 4C BB 64 JMP $64BB
653A: 86 70    STX $70
653C: 38       SEC
653D: A0 00    LDY #$00
653F: A5 70    LDA $70
6541: F9 C3 6E SBC $6EC3,Y
6544: C8       INY
6545: B0 F8    BCS $653F
6547: 84 59    STY $59
6549: A8       TAY
654A: A9 00    LDA #$00
654C: 9D BA B9 STA $B9BA,X
654F: E8       INX
6550: C8       INY
6551: D0 F9    BNE $654C
6553: 86 5A    STX $5A
6555: A6 6E    LDX $6E
6557: E8       INX
6558: BD 48 BA LDA $BA48,X
655B: 0A       ASL
655C: AA       TAX
655D: BD 98 6E LDA $6E98,X
6560: 85 80    STA $80
6562: BD 99 6E LDA $6E99,X
6565: 85 81    STA $81
6567: A9 14    LDA #$14
6569: 85 6A    STA $6A
656B: A5 5A    LDA $5A
656D: C5 71    CMP $71
656F: 85 71    STA $71
6571: B0 03    BCS $6576
6573: 4C F0 65 JMP $65F0
6576: D0 03    BNE $657B
6578: 4C 70 66 JMP $6670
657B: A6 6E    LDX $6E
657D: 18       CLC
657E: E8       INX
657F: BD 48 BA LDA $BA48,X
6582: 69 01    ADC #$01
6584: 9D 48 BA STA $BA48,X
6587: E4 6D    CPX $6D
6589: 90 F3    BCC $657E
658B: A6 6D    LDX $6D
658D: BD 48 BA LDA $BA48,X
6590: 85 6F    STA $6F
6592: C9 0F    CMP #$0F
6594: 90 35    BCC $65CB
6596: C6 6D    DEC $6D
6598: A6 6D    LDX $6D
659A: BD 48 BA LDA $BA48,X
659D: 85 6F    STA $6F
659F: A6 6D    LDX $6D
65A1: A5 80    LDA $80
65A3: 48       PHA
65A4: A5 81    LDA $81
65A6: 48       PHA
65A7: 20 EC 61 JSR $61EC
65AA: A5 80    LDA $80
65AC: 85 46    STA $46
65AE: A5 81    LDA $81
65B0: 85 47    STA $47
65B2: 68       PLA
65B3: 85 81    STA $81
65B5: 68       PLA
65B6: 85 80    STA $80
65B8: A6 6D    LDX $6D
65BA: BD 48 BA LDA $BA48,X
65BD: 0A       ASL
65BE: AA       TAX
65BF: CA       DEX
65C0: CA       DEX
65C1: BD 98 6E LDA $6E98,X
65C4: 85 48    STA $48
65C6: BD 99 6E LDA $6E99,X
65C9: 85 49    STA $49
65CB: A5 48    LDA $48
65CD: 85 82    STA $82
65CF: A5 49    LDA $49
65D1: 85 83    STA $83
65D3: A5 81    LDA $81
65D5: C5 83    CMP $83
65D7: D0 04    BNE $65DD
65D9: A5 80    LDA $80
65DB: C5 82    CMP $82
65DD: F0 03    BEQ $65E2
65DF: 20 05 6D JSR $6D05
65E2: 18       CLC
65E3: A5 48    LDA $48
65E5: 69 14    ADC #$14
65E7: 85 48    STA $48
65E9: 90 02    BCC $65ED
65EB: E6 49    INC $49
65ED: 4C 70 66 JMP $6670
65F0: A6 6D    LDX $6D
65F2: 38       SEC
65F3: BD 48 BA LDA $BA48,X
65F6: E9 01    SBC #$01
65F8: 9D 48 BA STA $BA48,X
65FB: CA       DEX
65FC: E4 6E    CPX $6E
65FE: D0 F3    BNE $65F3
6600: C6 6F    DEC $6F
6602: A5 48    LDA $48
6604: 85 82    STA $82
6606: A5 49    LDA $49
6608: 85 83    STA $83
660A: A5 81    LDA $81
660C: C5 83    CMP $83
660E: D0 04    BNE $6614
6610: A5 80    LDA $80
6612: C5 82    CMP $82
6614: F0 03    BEQ $6619
6616: 20 C1 6C JSR $6CC1
6619: 38       SEC
661A: A5 48    LDA $48
661C: E9 14    SBC #$14
661E: 85 48    STA $48
6620: A5 49    LDA $49
6622: E9 00    SBC #$00
6624: 85 49    STA $49
6626: 20 7F 66 JSR $667F
6629: A5 49    LDA $49
662B: C5 4D    CMP $4D
662D: D0 04    BNE $6633
662F: A5 48    LDA $48
6631: C5 4C    CMP $4C
6633: B0 3B    BCS $6670
6635: A5 46    LDA $46
6637: 85 40    STA $40
6639: A5 47    LDA $47
663B: 85 41    STA $41
663D: A5 48    LDA $48
663F: 85 42    STA $42
6641: A5 49    LDA $49
6643: 85 43    STA $43
6645: A0 00    LDY #$00
6647: B1 40    LDA ($40),Y
6649: C8       INY
664A: 11 40    ORA ($40),Y
664C: D0 03    BNE $6651
664E: 4C 70 66 JMP $6670
6651: 20 2F 6A JSR $6A2F
6654: 20 11 6B JSR $6B11
6657: E6 6D    INC $6D
6659: A5 6F    LDA $6F
665B: A6 6D    LDX $6D
665D: 9D 48 BA STA $BA48,X
6660: A5 40    LDA $40
6662: 85 46    STA $46
6664: A5 41    LDA $41
6666: 85 47    STA $47
6668: A5 42    LDA $42
666A: 85 48    STA $48
666C: A5 43    LDA $43
666E: 85 49    STA $49
6670: A4 71    LDY $71
6672: 88       DEY
6673: B9 BA B9 LDA $B9BA,Y
6676: 91 4E    STA ($4E),Y
6678: 88       DEY
6679: 10 F8    BPL $6673
667B: 20 AE 63 JSR $63AE
667E: 60       RTS
667F: A9 00    LDA #$00
6681: A0 13    LDY #$13
6683: 91 48    STA ($48),Y
6685: 88       DEY
6686: 10 FB    BPL $6683
6688: 60       RTS
6689: A9 00    LDA #$00
668B: A4 6A    LDY $6A
668D: 88       DEY
668E: 91 80    STA ($80),Y
6690: 88       DEY
6691: 10 FB    BPL $668E
6693: 60       RTS
6694: A5 70    LDA $70
6696: 48       PHA
6697: A4 50    LDY $50
6699: A5 55    LDA $55
669B: 10 2D    BPL $66CA
669D: AD 57 BA LDA $BA57
66A0: C9 04    CMP #$04
66A2: F0 0B    BEQ $66AF
66A4: C9 02    CMP #$02
66A6: D0 12    BNE $66BA
66A8: AD B4 03 LDA $03B4
66AB: C9 13    CMP #$13
66AD: D0 0B    BNE $66BA
66AF: A9 1E    LDA #$1E
66B1: 91 4E    STA ($4E),Y
66B3: E6 50    INC $50
66B5: 20 97 67 JSR $6797
66B8: A4 50    LDY $50
66BA: A5 55    LDA $55
66BC: 91 4E    STA ($4E),Y
66BE: 00 01 07 INT $0701
66C1: 85 56    STA $56
66C3: E6 50    INC $50
66C5: 20 97 67 JSR $6797
66C8: A4 50    LDY $50
66CA: 91 4E    STA ($4E),Y
66CC: E6 50    INC $50
66CE: 20 97 67 JSR $6797
66D1: 68       PLA
66D2: 85 70    STA $70
66D4: 60       RTS
66D5: A9 00    LDA #$00
66D7: 8D 57 BA STA $BA57
66DA: 24 52    BIT $52
66DC: 50 25    BVC $6703
66DE: A4 55    LDY $55
66E0: 30 11    BMI $66F3
66E2: A4 50    LDY $50
66E4: 88       DEY
66E5: B1 4E    LDA ($4E),Y
66E7: C9 1E    CMP #$1E
66E9: D0 6A    BNE $6755
66EB: 84 50    STY $50
66ED: 20 BF 67 JSR $67BF
66F0: 4C 51 67 JMP $6751
66F3: A9 02    LDA #$02
66F5: AC B4 03 LDY $03B4
66F8: C0 13    CPY #$13
66FA: D0 4E    BNE $674A
66FC: A9 04    LDA #$04
66FE: 8D 57 BA STA $BA57
6701: D0 47    BNE $674A
6703: A4 50    LDY $50
6705: B1 4E    LDA ($4E),Y
6707: AA       TAX
6708: F0 D4    BEQ $66DE
670A: 29 80    AND #$80
670C: 85 57    STA $57
670E: A5 55    LDA $55
6710: 29 80    AND #$80
6712: C5 57    CMP $57
6714: F0 3B    BEQ $6751
6716: 90 1C    BCC $6734
6718: A9 01    LDA #$01
671A: AC B4 03 LDY $03B4
671D: C0 13    CPY #$13
671F: D0 29    BNE $674A
6721: E0 1E    CPX #$1E
6723: D0 08    BNE $672D
6725: E6 50    INC $50
6727: 20 97 67 JSR $6797
672A: 4C 51 67 JMP $6751
672D: A9 04    LDA #$04
672F: 8D 57 BA STA $BA57
6732: D0 16    BNE $674A
6734: A2 03    LDX #$03
6736: AC B4 03 LDY $03B4
6739: D0 0B    BNE $6746
673B: A4 50    LDY $50
673D: 88       DEY
673E: B1 4E    LDA ($4E),Y
6740: C9 1E    CMP #$1E
6742: D0 02    BNE $6746
6744: A2 05    LDX #$05
6746: 8A       TXA
6747: 8D 57 BA STA $BA57
674A: AA       TAX
674B: BD 59 67 LDA $6759,X
674E: 85 57    STA $57
6750: 60       RTS
6751: A9 00    LDA #$00
6753: F0 F5    BEQ $674A
6755: A9 01    LDA #$01
6757: D0 F1    BNE $674A
6759: 00 01 02 INT $0201
675C: FF       ??
675D: 03       ??
675E: FE 38 A5 INC $A538,X
6761: 4C E5 48 JMP $48E5
6764: 85 82    STA $82
6766: A5 4D    LDA $4D
6768: E5 49    SBC $49
676A: 85 83    STA $83
676C: 90 0F    BCC $677D
676E: A5 82    LDA $82
6770: 05 83    ORA $83
6772: F0 09    BEQ $677D
6774: A4 82    LDY $82
6776: A9 00    LDA #$00
6778: 91 48    STA ($48),Y
677A: 88       DEY
677B: D0 F9    BNE $6776
677D: A0 63    LDY #$63
677F: AD 47 04 LDA $0447
6782: C9 02    CMP #$02
6784: D0 02    BNE $6788
6786: A0 4F    LDY #$4F
6788: B1 4A    LDA ($4A),Y
678A: C9 1E    CMP #$1E
678C: D0 02    BNE $6790
678E: A9 20    LDA #$20
6790: 99 C0 02 STA $02C0,Y
6793: 88       DEY
6794: 10 F2    BPL $6788
6796: 60       RTS
6797: AE B4 03 LDX $03B4
679A: E8       INX
679B: E0 14    CPX #$14
679D: F0 04    BEQ $67A3
679F: 8E B4 03 STX $03B4
67A2: 60       RTS
67A3: A9 00    LDA #$00
67A5: 8D B4 03 STA $03B4
67A8: AE B5 03 LDX $03B5
67AB: E8       INX
67AC: E4 51    CPX $51
67AE: 90 0B    BCC $67BB
67B0: A5 6E    LDA $6E
67B2: 20 FE 62 JSR $62FE
67B5: 20 BF 68 JSR $68BF
67B8: A6 51    LDX $51
67BA: CA       DEX
67BB: 8E B5 03 STX $03B5
67BE: 60       RTS
67BF: CE B4 03 DEC $03B4
67C2: 30 01    BMI $67C5
67C4: 60       RTS
67C5: A9 13    LDA #$13
67C7: 8D B4 03 STA $03B4
67CA: CE B5 03 DEC $03B5
67CD: 30 01    BMI $67D0
67CF: 60       RTS
67D0: 20 86 60 JSR $6086
67D3: 20 BF 68 JSR $68BF
67D6: A9 00    LDA #$00
67D8: 8D B5 03 STA $03B5
67DB: 60       RTS
67DC: AD 75 BA LDA $BA75
67DF: 8D C8 08 STA $08C8
67E2: A9 00    LDA #$00
67E4: 8D D1 08 STA $08D1
67E7: AD 79 BA LDA $BA79
67EA: 8D CD 08 STA $08CD
67ED: AD 7A BA LDA $BA7A
67F0: 8D CE 08 STA $08CE
67F3: A9 00    LDA #$00
67F5: 8D CF 08 STA $08CF
67F8: 8D D0 08 STA $08D0
67FB: 00 19 05 INT $0519
67FE: B0 2E    BCS $682E
6800: A9 00    LDA #$00
6802: 85 E0    STA $E0
6804: A9 70    LDA #$70
6806: 85 E1    STA $E1
6808: A5 80    LDA $80
680A: 8D C6 08 STA $08C6
680D: A5 81    LDA $81
680F: 8D C7 08 STA $08C7
6812: A5 81    LDA $81
6814: C9 40    CMP #$40
6816: D0 04    BNE $681C
6818: A5 80    LDA $80
681A: C9 00    CMP #$00
681C: 90 0A    BCC $6828
681E: A9 00    LDA #$00
6820: 8D C6 08 STA $08C6
6823: A9 40    LDA #$40
6825: 8D C7 08 STA $08C7
6828: 00 16 05 INT $0516
682B: B0 01    BCS $682E
682D: 60       RTS
682E: 4C B8 4D JMP $4DB8

6831: A5 40    LDA $40
6833: 85 44    STA $44
6835: A5 41    LDA $41
6837: 85 45    STA $45
6839: A9 8E    LDA #$8E
683B: 85 42    STA $42
683D: A9 B8    LDA #$B8
683F: 85 43    STA $43
6841: A0 00    LDY #$00
6843: B1 40    LDA ($40),Y
6845: C8       INY
6846: 11 40    ORA ($40),Y
6848: F0 1B    BEQ $6865

684A: 20 2F 6A JSR $6A2F
684D: 20 11 6B JSR $6B11
6850: E6 6D    INC $6D
6852: A5 6F    LDA $6F
6854: A6 6D    LDX $6D
6856: 9D 48 BA STA $BA48,X
6859: A5 43    LDA $43
685B: C5 4D    CMP $4D
685D: D0 04    BNE $6863
685F: A5 42    LDA $42
6861: C5 4C    CMP $4C
6863: 90 DC    BCC $6841

6865: A5 40    LDA $40
6867: 85 46    STA $46
6869: A5 41    LDA $41
686B: 85 47    STA $47
686D: A5 42    LDA $42
686F: 85 48    STA $48
6871: A5 43    LDA $43
6873: 85 49    STA $49
6875: 60       RTS

6876: A9 8E    LDA #$8E
6878: 85 4A    STA $4A
687A: A9 B8    LDA #$B8
687C: 85 4B    STA $4B
687E: A9 F2    LDA #$F2
6880: 85 4C    STA $4C
6882: A9 B8    LDA #$B8
6884: 85 4D    STA $4D
6886: A9 8E    LDA #$8E
6888: 85 4E    STA $4E
688A: A9 B8    LDA #$B8
688C: 85 4F    STA $4F
688E: 24 52    BIT $52
6890: 10 08    BPL $689A
6892: A9 01    LDA #$01
6894: 0D 91 03 ORA $0391
6897: 8D 91 03 STA $0391
689A: A9 0C    LDA #$0C
689C: 8D 4A 04 STA $044A  ; 输入法提示类型
689F: A9 00    LDA #$00
68A1: 8D 47 04 STA $0447  ; input mode
68A4: A9 00    LDA #$00
68A6: 8D B4 03 STA $03B4  ; caret x
68A9: 8D B5 03 STA $03B5  ; caret y
68AC: A2 0E    LDX #$0E
68AE: 9D 48 BA STA $BA48,X
68B1: CA       DEX
68B2: 10 FA    BPL $68AE
68B4: 85 6E    STA $6E
68B6: 85 6F    STA $6F
68B8: 85 6D    STA $6D
68BA: A9 05    LDA #$05
68BC: 85 51    STA $51
68BE: 60       RTS

68BF: A6 6E    LDX $6E
68C1: BD 48 BA LDA $BA48,X
68C4: 0A       ASL
68C5: AA       TAX
68C6: BD 98 6E LDA $6E98,X
68C9: 85 4E    STA $4E
68CB: BD 99 6E LDA $6E99,X
68CE: 85 4F    STA $4F
68D0: A6 6E    LDX $6E
68D2: E4 6D    CPX $6D
68D4: F0 1B    BEQ $68F1
68D6: 38       SEC
68D7: BD 49 BA LDA $BA49,X
68DA: FD 48 BA SBC $BA48,X
68DD: A8       TAY
68DE: B9 C2 6E LDA $6EC2,Y
68E1: 85 71    STA $71
68E3: A0 FF    LDY #$FF
68E5: C8       INY
68E6: C4 71    CPY $71
68E8: F0 04    BEQ $68EE
68EA: B1 4E    LDA ($4E),Y
68EC: D0 F7    BNE $68E5
68EE: 84 70    STY $70
68F0: 60       RTS
68F1: A9 14    LDA #$14
68F3: 85 71    STA $71
68F5: A9 00    LDA #$00
68F7: 85 70    STA $70
68F9: 60       RTS
68FA: A9 01    LDA #$01
68FC: 85 80    STA $80
68FE: A9 70    LDA #$70
6900: 85 81    STA $81
6902: A0 00    LDY #$00
6904: B1 80    LDA ($80),Y
6906: C8       INY
6907: 11 80    ORA ($80),Y
6909: D0 01    BNE $690C
690B: 60       RTS
690C: A0 03    LDY #$03
690E: C8       INY
690F: B1 80    LDA ($80),Y
6911: D0 FB    BNE $690E
6913: 18       CLC
6914: C8       INY
6915: 98       TYA
6916: 65 80    ADC $80
6918: AA       TAX
6919: A0 00    LDY #$00
691B: 91 80    STA ($80),Y
691D: A5 81    LDA $81
691F: 69 00    ADC #$00
6921: C8       INY
6922: 91 80    STA ($80),Y
6924: 86 80    STX $80
6926: 85 81    STA $81
6928: 4C 02 69 JMP $6902

; clear $B88E-$B9CF
692B: A9 00    LDA #$00
692D: A0 2B    LDY #$2B
692F: 99 8E B9 STA $B98E,Y
6932: 88       DEY
6933: 10 FA    BPL $692F
6935: A0 FF    LDY #$FF
6937: 99 8E B8 STA $B88E,Y
693A: 88       DEY
693B: D0 FA    BNE $6937
693D: 99 8E B8 STA $B88E,Y
6940: 60       RTS

6941: A0 63    LDY #$63
6943: A9 00    LDA #$00
6945: 99 BA B9 STA $B9BA,Y
6948: 88       DEY
6949: 10 FA    BPL $6945
694B: 60       RTS
694C: 18       CLC
694D: A9 8E    LDA #$8E
694F: 65 6A    ADC $6A
6951: 85 80    STA $80
6953: A9 B8    LDA #$B8
6955: 69 00    ADC #$00
6957: 85 81    STA $81
6959: A5 48    LDA $48
695B: 85 82    STA $82
695D: A5 49    LDA $49
695F: 85 83    STA $83
6961: 20 C1 6C JSR $6CC1
6964: 38       SEC
6965: A5 4A    LDA $4A
6967: E5 6A    SBC $6A
6969: 85 4A    STA $4A
696B: A5 4B    LDA $4B
696D: E9 00    SBC #$00
696F: 85 4B    STA $4B
6971: 38       SEC
6972: A5 4C    LDA $4C
6974: E5 6A    SBC $6A
6976: 85 4C    STA $4C
6978: A5 4D    LDA $4D
697A: E9 00    SBC #$00
697C: 85 4D    STA $4D
697E: 38       SEC
697F: A5 4E    LDA $4E
6981: E5 6A    SBC $6A
6983: 85 4E    STA $4E
6985: A5 4F    LDA $4F
6987: E9 00    SBC #$00
6989: 85 4F    STA $4F
698B: 38       SEC
698C: A5 48    LDA $48
698E: E5 6A    SBC $6A
6990: 85 48    STA $48
6992: A5 49    LDA $49
6994: E9 00    SBC #$00
6996: 85 49    STA $49
6998: 20 AE 63 JSR $63AE
699B: A5 44    LDA $44
699D: 85 80    STA $80
699F: A5 45    LDA $45
69A1: 85 81    STA $81
69A3: 24 52    BIT $52
69A5: 10 0C    BPL $69B3
69A7: A0 00    LDY #$00
69A9: B1 80    LDA ($80),Y
69AB: 85 44    STA $44
69AD: C8       INY
69AE: B1 80    LDA ($80),Y
69B0: 85 45    STA $45
69B2: 60       RTS
69B3: A0 00    LDY #$00
69B5: B1 80    LDA ($80),Y
69B7: 85 66    STA $66
69B9: C8       INY
69BA: B1 80    LDA ($80),Y
69BC: 85 67    STA $67
69BE: AD 7B BA LDA $BA7B
69C1: CD 7C BA CMP $BA7C
69C4: B0 5D    BCS $6A23
69C6: 69 01    ADC #$01
69C8: 0A       ASL
69C9: AA       TAX
69CA: BD 7D BA LDA $BA7D,X
69CD: 85 80    STA $80
69CF: BD 7E BA LDA $BA7E,X
69D2: 85 81    STA $81
69D4: A5 67    LDA $67
69D6: C5 81    CMP $81
69D8: D0 04    BNE $69DE
69DA: A5 66    LDA $66
69DC: C5 80    CMP $80
69DE: 90 43    BCC $6A23
69E0: A5 66    LDA $66
69E2: 85 82    STA $82
69E4: A5 67    LDA $67
69E6: 85 83    STA $83
69E8: A5 46    LDA $46
69EA: 85 68    STA $68
69EC: A5 47    LDA $47
69EE: 85 69    STA $69
69F0: 20 7D 6C JSR $6C7D
69F3: 38       SEC
69F4: A5 80    LDA $80
69F6: E5 53    SBC $53
69F8: 8D 79 BA STA $BA79
69FB: A5 81    LDA $81
69FD: E5 54    SBC $54
69FF: 8D 7A BA STA $BA7A
6A02: A9 00    LDA #$00
6A04: 85 80    STA $80
6A06: A9 40    LDA #$40
6A08: 85 81    STA $81
6A0A: 20 DC 67 JSR $67DC
6A0D: EE 7B BA INC $BA7B
6A10: 20 47 6C JSR $6C47
6A13: A5 68    LDA $68
6A15: 85 46    STA $46
6A17: A5 69    LDA $69
6A19: 85 47    STA $47
6A1B: A5 82    LDA $82
6A1D: 85 66    STA $66
6A1F: A5 83    LDA $83
6A21: 85 67    STA $67
6A23: 20 47 6C JSR $6C47
6A26: A5 68    LDA $68
6A28: 85 44    STA $44
6A2A: A5 69    LDA $69
6A2C: 85 45    STA $45
6A2E: 60       RTS

6A2F: A0 00    LDY #$00
6A31: B1 40    LDA ($40),Y
6A33: C8       INY
6A34: 11 40    ORA ($40),Y
6A36: D0 01    BNE $6A39
6A38: 60       RTS

6A39: A9 01    LDA #$01
6A3B: 85 59    STA $59
6A3D: C8       INY
6A3E: B1 40    LDA ($40),Y
6A40: AA       TAX
6A41: C8       INY
6A42: B1 40    LDA ($40),Y
6A44: 84 6B    STY $6B
6A46: 20 2F 6C JSR $6C2F
6A49: A0 FF    LDY #$FF
6A4B: C8       INY
6A4C: B5 82    LDA $82,X
6A4E: 91 42    STA ($42),Y
6A50: E8       INX
6A51: E0 05    CPX #$05
6A53: D0 F6    BNE $6A4B
6A55: 84 6C    STY $6C
6A57: A9 20    LDA #$20
6A59: A4 6B    LDY $6B
6A5B: 84 6B    STY $6B
6A5D: A4 6C    LDY $6C
6A5F: C8       INY
6A60: 84 6C    STY $6C
6A62: 91 42    STA ($42),Y
6A64: A4 6B    LDY $6B
6A66: C8       INY
6A67: B1 40    LDA ($40),Y
6A69: D0 01    BNE $6A6C
6A6B: 60       RTS

6A6C: 30 3A    BMI $6AA8
6A6E: C9 20    CMP #$20
6A70: B0 E9    BCS $6A5B
6A72: C8       INY
6A73: B1 40    LDA ($40),Y
6A75: 85 92    STA $92
6A77: C8       INY
6A78: B1 40    LDA ($40),Y
6A7A: 85 93    STA $93
6A7C: 84 6B    STY $6B
6A7E: E6 6C    INC $6C
6A80: A4 59    LDY $59
6A82: B9 C9 6E LDA $6EC9,Y
6A85: C5 6C    CMP $6C
6A87: F0 07    BEQ $6A90
6A89: B0 0D    BCS $6A98
6A8B: C8       INY
6A8C: 84 59    STY $59
6A8E: D0 F2    BNE $6A82
6A90: A9 1E    LDA #$1E
6A92: A4 6C    LDY $6C
6A94: 91 42    STA ($42),Y
6A96: E6 6C    INC $6C
6A98: A4 6C    LDY $6C
6A9A: A5 92    LDA $92
6A9C: 91 42    STA ($42),Y
6A9E: C8       INY
6A9F: A5 93    LDA $93
6AA1: 91 42    STA ($42),Y
6AA3: 84 6C    STY $6C
6AA5: 4C 64 6A JMP $6A64
6AA8: 38       SEC
6AA9: E9 7F    SBC #$7F
6AAB: AA       TAX
6AAC: 48       PHA
6AAD: 84 6B    STY $6B
6AAF: A0 00    LDY #$00
6AB1: A9 F6    LDA #$F6
6AB3: 85 80    STA $80
6AB5: A9 4F    LDA #$4F
6AB7: 85 81    STA $81
6AB9: CA       DEX
6ABA: F0 0C    BEQ $6AC8
6ABC: E6 80    INC $80
6ABE: D0 02    BNE $6AC2
6AC0: E6 81    INC $81
6AC2: B1 80    LDA ($80),Y
6AC4: 10 F6    BPL $6ABC
6AC6: 30 F1    BMI $6AB9
6AC8: 68       PLA
6AC9: 48       PHA
6ACA: C9 50    CMP #$50
6ACC: F0 04    BEQ $6AD2
6ACE: C9 4A    CMP #$4A
6AD0: B0 0D    BCS $6ADF
6AD2: A4 6C    LDY $6C
6AD4: A9 20    LDA #$20
6AD6: D1 42    CMP ($42),Y
6AD8: F0 05    BEQ $6ADF
6ADA: C8       INY
6ADB: 91 42    STA ($42),Y
6ADD: 84 6C    STY $6C
6ADF: A0 00    LDY #$00
6AE1: E6 80    INC $80
6AE3: D0 02    BNE $6AE7
6AE5: E6 81    INC $81
6AE7: B1 80    LDA ($80),Y
6AE9: 30 0A    BMI $6AF5
6AEB: A4 6C    LDY $6C
6AED: C8       INY
6AEE: 91 42    STA ($42),Y
6AF0: 84 6C    STY $6C
6AF2: 4C DF 6A JMP $6ADF
6AF5: 29 7F    AND #$7F
6AF7: A4 6C    LDY $6C
6AF9: C8       INY
6AFA: 91 42    STA ($42),Y
6AFC: 84 6C    STY $6C
6AFE: 68       PLA
6AFF: C9 4F    CMP #$4F
6B01: F0 08    BEQ $6B0B
6B03: C9 50    CMP #$50
6B05: F0 04    BEQ $6B0B
6B07: C9 4A    CMP #$4A
6B09: B0 03    BCS $6B0E
6B0B: 4C 57 6A JMP $6A57
6B0E: 4C 64 6A JMP $6A64
6B11: C8       INY
6B12: 98       TYA
6B13: 18       CLC
6B14: 65 40    ADC $40
6B16: 85 40    STA $40
6B18: 90 02    BCC $6B1C
6B1A: E6 41    INC $41
6B1C: E6 6C    INC $6C
6B1E: A5 6C    LDA $6C
6B20: C9 5F    CMP #$5F
6B22: 90 05    BCC $6B29
6B24: 20 7C 6B JSR $6B7C
6B27: 85 6C    STA $6C
6B29: 18       CLC
6B2A: 65 42    ADC $42
6B2C: 85 42    STA $42
6B2E: 90 02    BCC $6B32
6B30: E6 43    INC $43
6B32: A5 6F    LDA $6F
6B34: 0A       ASL
6B35: A8       TAY
6B36: B9 98 6E LDA $6E98,Y
6B39: 85 80    STA $80
6B3B: B9 99 6E LDA $6E99,Y
6B3E: 85 81    STA $81
6B40: C8       INY
6B41: C8       INY
6B42: 38       SEC
6B43: A5 80    LDA $80
6B45: E5 42    SBC $42
6B47: 85 80    STA $80
6B49: A5 81    LDA $81
6B4B: E5 43    SBC $43
6B4D: 85 81    STA $81
6B4F: 90 E5    BCC $6B36
6B51: 88       DEY
6B52: 88       DEY
6B53: 98       TYA
6B54: 4A       LSR
6B55: 85 6F    STA $6F
6B57: A5 80    LDA $80
6B59: 05 81    ORA $81
6B5B: D0 06    BNE $6B63
6B5D: E6 6F    INC $6F
6B5F: A2 14    LDX #$14
6B61: D0 03    BNE $6B66
6B63: A5 80    LDA $80
6B65: AA       TAX
6B66: A9 00    LDA #$00
6B68: A0 FF    LDY #$FF
6B6A: C8       INY
6B6B: 91 42    STA ($42),Y
6B6D: CA       DEX
6B6E: D0 FA    BNE $6B6A
6B70: C8       INY
6B71: 98       TYA
6B72: 18       CLC
6B73: 65 42    ADC $42
6B75: 85 42    STA $42
6B77: 90 02    BCC $6B7B
6B79: E6 43    INC $43
6B7B: 60       RTS
6B7C: A5 4E    LDA $4E
6B7E: 48       PHA
6B7F: A5 4F    LDA $4F
6B81: 48       PHA
6B82: A5 50    LDA $50
6B84: 48       PHA
6B85: A5 42    LDA $42
6B87: 85 4E    STA $4E
6B89: A5 43    LDA $43
6B8B: 85 4F    STA $4F
6B8D: A9 5E    LDA #$5E
6B8F: 85 50    STA $50
6B91: 20 B7 5F JSR $5FB7
6B94: D0 10    BNE $6BA6
6B96: C4 50    CPY $50
6B98: F0 0C    BEQ $6BA6
6B9A: 68       PLA
6B9B: 85 50    STA $50
6B9D: 68       PLA
6B9E: 85 4F    STA $4F
6BA0: 68       PLA
6BA1: 85 4E    STA $4E
6BA3: A9 5D    LDA #$5D
6BA5: 60       RTS
6BA6: 68       PLA
6BA7: 85 50    STA $50
6BA9: 68       PLA
6BAA: 85 4F    STA $4F
6BAC: 68       PLA
6BAD: 85 4E    STA $4E
6BAF: A9 5E    LDA #$5E
6BB1: 60       RTS
6BB2: E6 6C    INC $6C
6BB4: A5 6C    LDA $6C
6BB6: C9 5F    CMP #$5F
6BB8: 90 05    BCC $6BBF
6BBA: 20 7C 6B JSR $6B7C
6BBD: 85 6C    STA $6C
6BBF: 18       CLC
6BC0: 65 42    ADC $42
6BC2: 85 42    STA $42
6BC4: 90 02    BCC $6BC8
6BC6: E6 43    INC $43
6BC8: A0 00    LDY #$00
6BCA: B9 B6 6E LDA $6EB6,Y
6BCD: 85 80    STA $80
6BCF: B9 B7 6E LDA $6EB7,Y
6BD2: 85 81    STA $81
6BD4: C8       INY
6BD5: C8       INY
6BD6: 38       SEC
6BD7: A5 80    LDA $80
6BD9: E5 42    SBC $42
6BDB: 85 80    STA $80
6BDD: A5 81    LDA $81
6BDF: E5 43    SBC $43
6BE1: 85 81    STA $81
6BE3: 90 E5    BCC $6BCA
6BE5: 88       DEY
6BE6: 88       DEY
6BE7: 98       TYA
6BE8: 4A       LSR
6BE9: 85 6A    STA $6A
6BEB: A5 80    LDA $80
6BED: 05 81    ORA $81
6BEF: D0 06    BNE $6BF7
6BF1: E6 6A    INC $6A
6BF3: A2 14    LDX #$14
6BF5: D0 03    BNE $6BFA
6BF7: A5 80    LDA $80
6BF9: AA       TAX
6BFA: A9 00    LDA #$00
6BFC: A0 FF    LDY #$FF
6BFE: C8       INY
6BFF: 91 42    STA ($42),Y
6C01: CA       DEX
6C02: D0 FA    BNE $6BFE
6C04: 60       RTS
6C05: BD 48 BA LDA $BA48,X
6C08: 0A       ASL
6C09: AA       TAX
6C0A: BD 98 6E LDA $6E98,X
6C0D: 85 80    STA $80
6C0F: BD 99 6E LDA $6E99,X
6C12: 85 81    STA $81
6C14: 60       RTS
6C15: 20 05 6C JSR $6C05
6C18: A5 80    LDA $80
6C1A: 85 5B    STA $5B
6C1C: A5 81    LDA $81
6C1E: 85 5C    STA $5C
6C20: A5 5B    LDA $5B
6C22: D0 02    BNE $6C26
6C24: C6 5C    DEC $5C
6C26: C6 5B    DEC $5B
6C28: 20 48 5D JSR $5D48
6C2B: 20 5D 5D JSR $5D5D
6C2E: 60       RTS

; 把 AX 的整数转换为 ASCII 码，结果在 $82-$86, X 是第一个不为 '0' 的字符的 index
6C2F: 86 80    STX $80
6C31: 85 81    STA $81
6C33: 00 33 C7 INT $C733 ; 把 $80,$81 的16bit整数转换为 ASCII 码，结果在 $82-$86
6C36: A2 FF    LDX #$FF
6C38: E8       INX
6C39: E0 05    CPX #$05
6C3B: D0 03    BNE $6C40
6C3D: A2 04    LDX #$04
6C3F: 60       RTS

6C40: B5 82    LDA $82,X
6C42: C9 30    CMP #$30
6C44: F0 F2    BEQ $6C38
6C46: 60       RTS

; 计算当前行起始地址，保存到 $68,$69？
6C47: A5 66    LDA $66
6C49: 48       PHA
6C4A: A5 67    LDA $67
6C4C: 48       PHA
6C4D: 38       SEC
6C4E: A5 66    LDA $66
6C50: E5 53    SBC $53
6C52: 85 66    STA $66
6C54: A5 67    LDA $67
6C56: E5 54    SBC $54
6C58: 85 67    STA $67
6C5A: 38       SEC
6C5B: A5 66    LDA $66
6C5D: ED 79 BA SBC $BA79
6C60: 85 66    STA $66
6C62: A5 67    LDA $67
6C64: ED 7A BA SBC $BA7A
6C67: 85 67    STA $67
6C69: 18       CLC
6C6A: A5 66    LDA $66
6C6C: 69 00    ADC #$00
6C6E: 85 68    STA $68
6C70: A5 67    LDA $67
6C72: 69 70    ADC #$70
6C74: 85 69    STA $69
6C76: 68       PLA
6C77: 85 67    STA $67
6C79: 68       PLA
6C7A: 85 66    STA $66
6C7C: 60       RTS

6C7D: A5 68    LDA $68
6C7F: 48       PHA
6C80: A5 69    LDA $69
6C82: 48       PHA
6C83: 38       SEC
6C84: A5 68    LDA $68
6C86: E9 00    SBC #$00
6C88: 85 68    STA $68
6C8A: A5 69    LDA $69
6C8C: E9 70    SBC #$70
6C8E: 85 69    STA $69
6C90: 18       CLC
6C91: A5 68    LDA $68
6C93: 6D 79 BA ADC $BA79
6C96: 85 68    STA $68
6C98: A5 69    LDA $69
6C9A: 6D 7A BA ADC $BA7A
6C9D: 85 69    STA $69
6C9F: 18       CLC
6CA0: A5 68    LDA $68
6CA2: 65 53    ADC $53
6CA4: 85 66    STA $66
6CA6: A5 69    LDA $69
6CA8: 65 54    ADC $54
6CAA: 85 67    STA $67
6CAC: 68       PLA
6CAD: 85 69    STA $69
6CAF: 68       PLA
6CB0: 85 68    STA $68
6CB2: 60       RTS
6CB3: 38       SEC
6CB4: A5 66    LDA $66
6CB6: E5 53    SBC $53
6CB8: 85 84    STA $84
6CBA: A5 67    LDA $67
6CBC: E5 54    SBC $54
6CBE: 85 85    STA $85
6CC0: 60       RTS
6CC1: A5 6A    LDA $6A
6CC3: D0 01    BNE $6CC6
6CC5: 60       RTS
6CC6: 38       SEC
6CC7: A5 82    LDA $82
6CC9: E5 80    SBC $80
6CCB: A8       TAY
6CCC: 85 84    STA $84
6CCE: A5 83    LDA $83
6CD0: E5 81    SBC $81
6CD2: AA       TAX
6CD3: E8       INX
6CD4: 38       SEC
6CD5: A9 00    LDA #$00
6CD7: E5 84    SBC $84
6CD9: A8       TAY
6CDA: 85 84    STA $84
6CDC: 38       SEC
6CDD: A5 80    LDA $80
6CDF: E5 84    SBC $84
6CE1: 85 80    STA $80
6CE3: A5 81    LDA $81
6CE5: E9 00    SBC #$00
6CE7: 85 81    STA $81
6CE9: 38       SEC
6CEA: A5 80    LDA $80
6CEC: E5 6A    SBC $6A
6CEE: 85 82    STA $82
6CF0: A5 81    LDA $81
6CF2: E9 00    SBC #$00
6CF4: 85 83    STA $83
6CF6: B1 80    LDA ($80),Y
6CF8: 91 82    STA ($82),Y
6CFA: C8       INY
6CFB: D0 F9    BNE $6CF6
6CFD: E6 81    INC $81
6CFF: E6 83    INC $83
6D01: CA       DEX
6D02: D0 F2    BNE $6CF6
6D04: 60       RTS
6D05: A5 6A    LDA $6A
6D07: D0 01    BNE $6D0A
6D09: 60       RTS
6D0A: 38       SEC
6D0B: A5 82    LDA $82
6D0D: E5 80    SBC $80
6D0F: A8       TAY
6D10: 85 84    STA $84
6D12: A5 83    LDA $83
6D14: E5 81    SBC $81
6D16: AA       TAX
6D17: E8       INX
6D18: 38       SEC
6D19: A5 82    LDA $82
6D1B: E5 84    SBC $84
6D1D: 85 82    STA $82
6D1F: A5 83    LDA $83
6D21: E9 00    SBC #$00
6D23: 85 83    STA $83
6D25: 18       CLC
6D26: A5 82    LDA $82
6D28: 65 6A    ADC $6A
6D2A: 85 80    STA $80
6D2C: A5 83    LDA $83
6D2E: 69 00    ADC #$00
6D30: 85 81    STA $81
6D32: 4C 39 6D JMP $6D39
6D35: B1 82    LDA ($82),Y
6D37: 91 80    STA ($80),Y
6D39: 88       DEY
6D3A: D0 F9    BNE $6D35
6D3C: B1 82    LDA ($82),Y
6D3E: 91 80    STA ($80),Y
6D40: C6 81    DEC $81
6D42: C6 83    DEC $83
6D44: 88       DEY
6D45: CA       DEX
6D46: D0 ED    BNE $6D35
6D48: 60       RTS

; clear $7000-$AFFF
6D49: A9 00    LDA #$00
6D4B: 85 80    STA $80
6D4D: A9 70    LDA #$70
6D4F: 85 81    STA $81
6D51: A0 00    LDY #$00
6D53: A2 40    LDX #$40
6D55: A9 00    LDA #$00
6D57: 91 80    STA ($80),Y
6D59: C8       INY
6D5A: D0 FB    BNE $6D57
6D5C: E6 81    INC $81
6D5E: CA       DEX
6D5F: D0 F6    BNE $6D57
6D61: 60       RTS

6D62: A6 6E    LDX $6E
6D64: 20 EC 61 JSR $61EC
6D67: A0 00    LDY #$00
6D69: B1 80    LDA ($80),Y
6D6B: 85 66    STA $66
6D6D: C8       INY
6D6E: B1 80    LDA ($80),Y
6D70: 85 67    STA $67
6D72: 20 47 6C JSR $6C47
6D75: A5 80    LDA $80
6D77: 85 83    STA $83
6D79: A5 81    LDA $81
6D7B: 85 84    STA $84
6D7D: 38       SEC
6D7E: A5 83    LDA $83
6D80: E9 01    SBC #$01
6D82: 85 83    STA $83
6D84: A5 84    LDA $84
6D86: E9 70    SBC #$70
6D88: 85 84    STA $84
6D8A: 18       CLC
6D8B: A5 83    LDA $83
6D8D: 6D 79 BA ADC $BA79
6D90: 85 83    STA $83
6D92: A5 84    LDA $84
6D94: 6D 7A BA ADC $BA7A
6D97: 85 84    STA $84
6D99: A5 66    LDA $66
6D9B: 05 67    ORA $67
6D9D: F0 14    BEQ $6DB3
6D9F: A0 00    LDY #$00
6DA1: B1 68    LDA ($68),Y
6DA3: C8       INY
6DA4: 11 68    ORA ($68),Y
6DA6: D0 0B    BNE $6DB3
6DA8: A5 83    LDA $83
6DAA: 85 80    STA $80
6DAC: A5 84    LDA $84
6DAE: 85 81    STA $81
6DB0: 4C DB 6D JMP $6DDB
6DB3: 24 52    BIT $52
6DB5: 30 0D    BMI $6DC4
6DB7: AD 77 BA LDA $BA77
6DBA: 85 80    STA $80
6DBC: AD 78 BA LDA $BA78
6DBF: 85 81    STA $81
6DC1: 4C DB 6D JMP $6DDB
6DC4: AD 58 BA LDA $BA58
6DC7: 85 80    STA $80
6DC9: AD 59 BA LDA $BA59
6DCC: 85 81    STA $81
6DCE: 38       SEC
6DCF: A5 80    LDA $80
6DD1: E9 03    SBC #$03
6DD3: 85 80    STA $80
6DD5: A5 81    LDA $81
6DD7: E9 70    SBC #$70
6DD9: 85 81    STA $81
6DDB: A9 00    LDA #$00
6DDD: 85 82    STA $82
6DDF: 85 85    STA $85
6DE1: 20 F4 6D JSR $6DF4
6DE4: A5 66    LDA $66
6DE6: 05 67    ORA $67
6DE8: F0 01    BEQ $6DEB
6DEA: 60       RTS
6DEB: AD 90 03 LDA $0390
6DEE: 09 80    ORA #$80
6DF0: 8D 90 03 STA $0390
6DF3: 60       RTS
6DF4: AD 90 03 LDA $0390
6DF7: 29 BF    AND #$BF
6DF9: 8D 90 03 STA $0390
6DFC: AD 90 03 LDA $0390
6DFF: 29 7F    AND #$7F
6E01: 8D 90 03 STA $0390
6E04: A5 80    LDA $80
6E06: 05 81    ORA $81
6E08: D0 04    BNE $6E0E
6E0A: A2 09    LDX #$09
6E0C: D0 71    BNE $6E7F
6E0E: A5 83    LDA $83
6E10: 05 84    ORA $84
6E12: F0 08    BEQ $6E1C
6E14: AD 90 03 LDA $0390
6E17: 09 40    ORA #$40
6E19: 8D 90 03 STA $0390
6E1C: A5 84    LDA $84
6E1E: C5 81    CMP $81
6E20: D0 04    BNE $6E26
6E22: A5 83    LDA $83
6E24: C5 80    CMP $80
6E26: 90 04    BCC $6E2C
6E28: A2 09    LDX #$09
6E2A: D0 53    BNE $6E7F
6E2C: AD 90 03 LDA $0390
6E2F: 09 80    ORA #$80
6E31: 8D 90 03 STA $0390
6E34: A5 83    LDA $83
6E36: 85 86    STA $86
6E38: A5 84    LDA $84
6E3A: 85 87    STA $87
6E3C: A5 85    LDA $85
6E3E: 85 88    STA $88
6E40: 06 83    ASL $83
6E42: 26 84    ROL $84
6E44: 26 85    ROL $85
6E46: 06 83    ASL $83
6E48: 26 84    ROL $84
6E4A: 26 85    ROL $85
6E4C: 06 83    ASL $83
6E4E: 26 84    ROL $84
6E50: 26 85    ROL $85
6E52: 18       CLC
6E53: A5 83    LDA $83
6E55: 65 86    ADC $86
6E57: 85 83    STA $83
6E59: A5 84    LDA $84
6E5B: 65 87    ADC $87
6E5D: 85 84    STA $84
6E5F: A5 85    LDA $85
6E61: 65 88    ADC $88
6E63: 85 85    STA $85
6E65: A2 00    LDX #$00
6E67: 38       SEC
6E68: A5 83    LDA $83
6E6A: E5 80    SBC $80
6E6C: 85 83    STA $83
6E6E: A5 84    LDA $84
6E70: E5 81    SBC $81
6E72: 85 84    STA $84
6E74: A5 85    LDA $85
6E76: E5 82    SBC $82
6E78: 85 85    STA $85
6E7A: 90 03    BCC $6E7F
6E7C: E8       INX
6E7D: D0 E8    BNE $6E67
6E7F: AD 8A 03 LDA $038A
6E82: E0 09    CPX #$09
6E84: 90 06    BCC $6E8C
6E86: 09 80    ORA #$80
6E88: A2 09    LDX #$09
6E8A: D0 02    BNE $6E8E
6E8C: 29 7F    AND #$7F
6E8E: 8D 8A 03 STA $038A
6E91: BD CF 6E LDA $6ECF,X
6E94: 8D 89 03 STA $0389
6E97: 60       RTS

6E98: 8E B8 A2 STX $A2B8
6E9B: B8       CLV
6E9C: B6 B8    LDX $B8,Y
6E9E: CA       DEX
6E9F: B8       CLV
6EA0: DE B8 F2 DEC $F2B8,X
6EA3: B8       CLV
6EA4: 06 B9    ASL $B9
6EA6: 1A       ??
6EA7: B9 2E B9 LDA $B92E,Y
6EAA: 42       ??
6EAB: B9 56 B9 LDA $B956,Y
6EAE: 6A       ROR
6EAF: B9 7E B9 LDA $B97E,Y
6EB2: 92       ??
6EB3: B9 A6 B9 LDA $B9A6,Y
6EB6: BA       TSX
6EB7: B9 CE B9 LDA $B9CE,Y
6EBA: E2       ??
6EBB: B9 F6 B9 LDA $B9F6,Y
6EBE: 0A       ASL
6EBF: BA       TSX
6EC0: 1E BA

6EC2: 00
6EC3: 14       ??
6EC4: 28       PLP
6EC5: 3C       ??
6EC6: 50 64    BVC $6F2C
6EC8: 78       SEI
6EC9: 00 13 27 INT $2713
6ECC: 3B       ??
6ECD: 4F       ??
6ECE: 63       ??
6ECF: 80       ??
6ED0: C0 E0    CPY #$E0
6ED2: F0 F8    BEQ $6ECC
6ED4: FC       ??
6ED5: FE FF FF INC $FFFF,X
6ED8: FF       ??
6ED9: 80       ??
6EDA: 05 6F    ORA $6F
6EDC: 2A       ROL
6EDD: 14       ??
6EDE: 08       PHP
6EDF: 04       ??
6EE0: E2       ??
6EE1: 6E 02 CB ROR $CB02
6EE4: 5E CB 5E LSR $5ECB,X
6EE7: CB       ??
6EE8: 5E CB 5E LSR $5ECB,X
6EEB: CB       ??
6EEC: 5E CB 5E LSR $5ECB,X
6EEF: CB       ??
6EF0: 5E CB 5E LSR $5ECB,X
6EF3: B9 5E CA LDA $CA5E,Y
6EF6: 5E D0 5E LSR $5ED0,X
6EF9: D0 5E    BNE $6F59
6EFB: D0 5E    BNE $6F5B
6EFD: DE 5E D0 DEC $D05E,X
6F00: 5E D0 5E LSR $5ED0,X
6F03: 03       ??
6F04: 5F       ??
6F05: CE DE D0 DEC $D0DE
6F08: D0 BA    BNE $6EC4
6F0A: C5 BB    CMP $BB
6F0C: F2       ??
6F0D: 00 D0 D0 INT $D0D0
6F10: BA       TSX
6F11: C5 D3    CMP $D3
6F13: D0 CE    BNE $6EE3
6F15: F3       ??
6F16: 00 00 3D INT $3D00
6F19: 3D 3D 3D AND $3D3D,X
6F1C: 3D 20 47 AND $4720,X
6F1F: 56 20    LSR $20,X
6F21: 42       ??
6F22: 41 53    EOR ($53,X)
6F24: 49 43    EOR #$43
6F26: 20 3D 3D JSR $3D3D
6F29: 3D 3D 3D AND $3D3D,X
6F2C: 00 B0 B4 INT $B4B0
6F2F: 20 3C 11 JSR $113C
6F32: 3E 20 2C ROL $2C20,X
6F35: 20 3C 1E JSR $1E3C
6F38: 3E 20 2C ROL $2C20,X
6F3B: 20 3C 10 JSR $103C
6F3E: 3E 20 2C ROL $2C20,X
6F41: 00 3C 1F INT $1F3C
6F44: 3E 20 E4 ROL $E420,X
6F47: AF       ??
6F48: C0 C0    CPY #$C0
6F4A: A1 A3    LDA ($A3,X)
6F4C: 00 B0 B4 INT $B4B0
6F4F: 20 3C CC JSR $CC3C
6F52: F8       SED
6F53: B3       ??
6F54: F6 3E    INC $3E,X
6F56: 20 BC FC JSR $FCBC
6F59: CD CB B3 CMP $B3CB
6F5C: F6 B1    INC $B1,X
6F5E: E0 BC    CPX #$BC
6F60: AD 00 BB LDA $BB00
6F63: F2       ??
6F64: E4 AF    CPX $AF
6F66: C0 C0    CPY #$C0
6F68: A1 A3    LDA ($A3,X)
6F6A: 00 C8 E7 INT $E7C8
6F6D: B9 FB BF LDA $BFFB,Y
6F70: C9 D2    CMP #$D2
6F72: D4       ??
6F73: B1 E0    LDA ($E0),Y
6F75: BC AD 3A LDY $3AAD,X
6F78: 00 B0 B4 INT $B4B0
6F7B: 20 3C CA JSR $CA3C
6F7E: E4 C8    CPX $C8
6F80: EB       ??
6F81: 3E 20 BC ROL $BC20,X
6F84: FC       ??
6F85: B1 A3    LDA ($A3),Y
6F87: B4 E6    LDY $E6,X
6F89: B3       ??
6F8A: CC D0 F2 CPY $F2D0
6F8D: 00 D0 D0 INT $D0D0
6F90: A1 A3    LDA ($A3,X)
6F92: 00 B0 B4 INT $B4B0
6F95: 20 3C 46 JSR $463C
6F98: 31 3E    AND ($3E),Y
6F9A: 20 BC FC JSR $FCBC
6F9D: C7       ??
6F9E: D0 BB    BNE $6F5B
6FA0: BB       ??
6FA1: B2       ??
6FA2: E5 C8    SBC $C8
6FA4: EB       ??
6FA5: A3       ??
6FA6: AF       ??
6FA7: 00 CC E6 INT $E6CC
6FAA: BB       ??
6FAB: BB       ??
6FAC: C4 A3    CPY $A3
6FAE: CA       DEX
6FAF: BD A1 A3 LDA $A3A1,X
6FB2: 00 B0 B4 INT $B4B0
6FB5: 20 3C 46 JSR $463C
6FB8: 32       ??
6FB9: 3E 20 BC ROL $BC20,X
6FBC: FC       ??
6FBD: C9 BE    CMP #$BE
6FBF: B3       ??
6FC0: FD D7 D6 SBC $D6D7,X
6FC3: B7       ??
6FC4: FB       ??
6FC5: A1 A3    LDA ($A3,X)
6FC7: 00 00 FF INT $FF00

; jump to BASIC runtime
6000: 4C 03 60 JMP $6003
