; nc3000 GVBASIC+.bin disassembled

6000: 4C 03 60 JMP $6003

; entry of BASIC runtime

; clear icons
6003: 8A       TXA
6004: 48       PHA
6005: A9 00    LDA #$00
6007: A2 09    LDX #$09
6009: 9D 88 03 STA $0388,X
600C: CA       DEX
600D: D0 FA    BNE $6009
600F: 68       PLA
6010: AA       TAX

6011: A9 00    LDA #$00
6013: 8D 8F B9 STA $B98F
6016: A9 20    LDA #$20
6018: 8D 90 B9 STA $B990
601B: A9 00    LDA #$00
601D: 8D 91 B9 STA $B991
6020: A9 60    LDA #$60
6022: 8D 92 B9 STA $B992

6025: A9 00    LDA #$00
6027: 8D 00 20 STA $2000
602A: A9 20    LDA #$20
602C: 8D 01 20 STA $2001

602F: A9 00    LDA #$00
6031: 8D 93 B9 STA $B993
6034: A9 BD    LDA #$BD
6036: 8D 94 B9 STA $B994

6039: A9 00    LDA #$00
603B: 8D 95 B9 STA $B995
603E: A9 BF    LDA #$BF
6040: 8D 96 B9 STA $B996

; save stack pointer in $BCE0,
; and the content of stack (not entire stack) in $BCE1...
; the address $BCE0 is stored in $B945,$B946
6043: A2 E0    LDX #$E0
6045: A0 BC    LDY #$BC
6047: 8E 45 B9 STX $B945
604A: 8C 46 B9 STY $B946
604D: 86 80    STX $80
604F: 84 81    STY $81
6051: BA       TSX
6052: 8A       TXA
6053: A0 00    LDY #$00
6055: 91 80    STA ($80),Y
6057: C8       INY
6058: BD 00 01 LDA $0100,X
605B: 91 80    STA ($80),Y
605D: C8       INY
605E: E8       INX
605F: D0 F7    BNE $6058

; clear $B8D9-$B92A
6061: A9 00    LDA #$00
6063: A2 51    LDX #$51
6065: 9D D9 B8 STA $B8D9,X
6068: CA       DEX
6069: 10 FA    BPL $6065

; clear $2000-$4000
606B: 20 EF AE JSR $AEEF

; 初始化随机数种子
606E: A9 00    LDA #$00
6070: AC FE 03 LDY $03FE ; current second * 2
6073: 20 CF 7D JSR $7DCF ; integer to float

; 保存随机数种子到 $B8BB (5 bytes)
6076: A2 BB    LDX #$BB
6078: A0 B8    LDY #$B8
607A: 20 99 A1 JSR $A199

607D: A2 FF    LDX #$FF
607F: 8E 15 B8 STX $B815
6082: A2 F8    LDX #$F8
6084: 9A       TXS
6085: 20 4A 86 JSR $864A ; set $B812 to 0 (NORMAL text mode)
6088: A9 4C    LDA #$4C
608A: 8D 5E B9 STA $B95E ; store JMP in $B95E
608D: A2 00    LDX #$00
608F: 8E 11 B8 STX $B811 ; clear TRACE flag
6092: 8E 4D B9 STX $B94D ; clear FAC1 overflow byte
6095: 86 48    STX $48
6097: 8A       TXA
6098: 48       PHA
6099: 8D 04 B8 STA $B804
609C: A2 49    LDX #$49
609E: 86 42    STX $42
60A0: AC 91 B9 LDY $B991  ; #$00
60A3: AD 92 B9 LDA $B992  ; #$60
60A6: 8C D1 B8 STY $B8D1
60A9: 8D D2 B8 STA $B8D2
60AC: 8C CF B8 STY $B8CF
60AF: 8D D0 B8 STA $B8D0
60B2: AE 8F B9 LDX $B98F  ; #$00
60B5: AC 90 B9 LDY $B990  ; #$20
60B8: 86 54    STX $54
60BA: 84 55    STY $55
60BC: E6 54    INC $54
60BE: D0 02    BNE $60C2
60C0: E6 55    INC $55
60C2: 20 18 89 JSR $8918 ; open and read .BAS file
60C5: 20 93 72 JSR $7293
60C8: AD 07 04 LDA $0407
60CB: 09 80    ORA #$80
60CD: 8D 07 04 STA $0407  ; sound flag
60D0: A9 80    LDA #$80
60D2: 8D 41 0B STA $0B41
60D5: A9 00    LDA #$00
60D7: 8D 40 0B STA $0B40
60DA: 8D 68 B9 STA $B968
60DD: 8D B4 03 STA $03B4  ; caret x
60E0: 8D B5 03 STA $03B5  ; caret y
60E3: 8D B3 03 STA $03B3  ; cursor mode
60E6: 8D 47 04 STA $0447  ; input mode
60E9: A9 01    LDA #$01
60EB: 8D C4 B8 STA $B8C4
60EE: 4C 6F 75 JMP $756F

; execute statements
60F1: BA       TSX
60F2: 8E 26 B8 STX $B826
60F5: 20 EC 74 JSR $74EC ; if user is pressing ESC, terminate.
60F8: 00 08 C0 INT $C008
60FB: A5 5E    LDA $5E
60FD: A4 5F    LDY $5F
60FF: AE 15 B8 LDX $B815
6102: E8       INX
6103: F0 06    BEQ $610B
6105: 8D D3 B8 STA $B8D3
6108: 8C D4 B8 STY $B8D4

; assert the current token is ':' or $00
610B: A0 00    LDY #$00
610D: B1 5E    LDA ($5E),Y
610F: F0 03    BEQ $6114 ; a #$00 means a new line is reached.
6111: 4C 95 61 JMP $6195 ; if the read character is not ':', report syntax error

6114: A0 02    LDY #$02
6116: B1 5E    LDA ($5E),Y
6118: 18       CLC
6119: D0 19    BNE $6134
611B: 2C 4E B9 BIT $B94E
611E: 70 03    BVS $6123
6120: 4C 29 75 JMP $7529

6123: 20 57 66 JSR $6657
6126: 20 7C 68 JSR $687C
6129: A9 00    LDA #$00
612B: 85 5E    STA $5E
612D: A9 20    LDA #$20
612F: 85 5F    STA $5F
6131: 4C 0B 61 JMP $610B

; read line number into $B814, $B815
6134: C8       INY
6135: B1 5E    LDA ($5E),Y
6137: 8D 14 B8 STA $B814
613A: C8       INY
613B: B1 5E    LDA ($5E),Y
613D: 8D 15 B8 STA $B815
6140: 98       TYA
6141: 65 5E    ADC $5E
6143: 85 5E    STA $5E
6145: 90 02    BCC $6149
6147: E6 5F    INC $5F

6149: 2C 11 B8 BIT $B811 ; test if TRACE flag is set
614C: 10 3E    BPL $618C

614E: AE 15 B8 LDX $B815
6151: E8       INX
6152: F0 38    BEQ $618C
6154: A2 00    LDX #$00
6156: 8E C2 B8 STX $B8C2
6159: 8E C6 B8 STX $B8C6
615C: 20 2C 72 JSR $722C
615F: 20 4A 6E JSR $6E4A
6162: A9 00    LDA #$00
6164: 8D B4 03 STA $03B4  ; caret x = 0
6167: A9 7E    LDA #$7E
6169: 20 E3 79 JSR $79E3
616C: AE 14 B8 LDX $B814
616F: AD 15 B8 LDA $B815
6172: 20 7E A4 JSR $A47E
6175: 20 DE 79 JSR $79DE
6178: A9 00    LDA #$00
617A: 8D 01 B8 STA $B801
617D: AD C6 B8 LDA $B8C6
6180: 8D C2 B8 STA $B8C2
6183: 20 BE 6F JSR $6FBE
6186: 20 9A AD JSR $AD9A
6189: 00 06 C0 INT $C006

618C: 20 34 66 JSR $6634 ; read a character
618F: 20 A4 61 JSR $61A4 ; execute statement
6192: 4C F1 60 JMP $60F1 ; continue executing statements

6195: C9 3A    CMP #$3A ; ':'
6197: D0 03    BNE $619C
6199: 4C 49 61 JMP $6149

619C: 4C FD 9C JMP $9CFD

619F: D0 03    BNE $61A4
61A1: 4C 29 75 JMP $7529

; if token in A is not $00, execute statement
61A4: D0 01    BNE $61A7
61A6: 60       RTS

; execute command in A
61A7: E9 80    SBC #$80
61A9: 90 11    BCC $61BC ; execute assignment
61AB: C9 40    CMP #$40
61AD: B0 ED    BCS $619C ; if command in A >= #$C0, report syntax error

; get command address from command address table
61AF: 0A       ASL
61B0: A8       TAY
61B1: B9 C4 61 LDA $61C4,Y
61B4: 48       PHA
61B5: B9 C3 61 LDA $61C3,Y
61B8: 48       PHA
61B9: 4C 34 66 JMP $6634 ; read a character after the statement token

61BC: 4C BC 77 JMP $77BC

61BF: 68       PLA
61C0: 68       PLA
61C1: 60       RTS
61C2: 60       RTS

; address table for commands
; (address minus 1 used)
61C3: .dw $7504 ; $7505 end
61C5: .dw $7422 ; $7423 for
61C6: .dw $7c96 ; $7c97 next
61C9: .dw $765f ; $7660 data
61CB: .dw $7a59 ; $7a5a input
61CD: .dw $86A2 ; $86a3 del
61CF: .dw $7dC4 ; $7dc5 dim
61D1: .dw $7b4A ; $7b4b read
61D3: .dw $7b0B ; $7b0c swap
61D5: .dw $8642 ; $8643 trace
61D7: .dw $8644 ; $8645 notrace
61D9: .dw $75F2 ; $75f3 pop
61DB: .dw $77BB ; $77bc let
61DD: .dw $75BD ; $75be goto
61DF: .dw $756e ; $756f run
61E1: .dw $76E4 ; $76e5 if 
61E3: .dw $74CB ; $74cc restore
61E5: .dw $7594 ; $7595 gosub
61E7: .dw $75F2 ; $75f3 return
61E9: .dw $7741 ; $7742 rem
61EB: .dw $7501 ; $7502 stop
61ED: .dw $7754 ; $7755 on
61EF: .dw $7dF9 ; $7dfa def
61F1: .dw $af56 ; $af57 poke
61F3: .dw $784A ; $784b print
61F5: .dw $7547 ; $7548 cont
61F7: .dw $72FB ; $72fc list
61F9: .dw $72AD ; $72ae clear
61FB: .dw $728f ; $7290 new
61FD: .dw $8863 ; $8864 text
61FF: .dw $887B ; $887c graph
6201: .dw $8831 ; $8832 system
6203: .dw $8649 ; $864a normal
6205: .dw $864D ; $864e inverse
6207: .dw $8651 ; $8652 flash
6209: .dw $8824 ; $8825 play
620B: .dw $8827 ; $8828 beep
620D: .dw $8500 ; $8501 inkey$
620F: .dw $8914 ; $8915 load
6211: .dw $89C1 ; $89c2 save
6213: .dw $89DF ; $89e0 kill
6215: .dw $89E2 ; $89e3 files
6217: .dw $89E5 ; $89e6 open
6219: .dw $8d06 ; $8d07 close
621B: .dw $8f64 ; $8f65 write
621D: .dw $90B1 ; $90b2 field
621F: .dw $9197 ; $9198 get
6221: .dw $92C0 ; $92c1 put
6223: .dw $948A ; $948b lset
6225: .dw $9410 ; $9411 rset
6227: .dw $86A5 ; $86a6 auto
6229: .dw $86A8 ; $86a9 locate
622B: .dw $870E ; $870f draw
622D: .dw $8741 ; $8742 line
622F: .dw $876D ; $876e box
6231: .dw $87c9 ; $87ca circle
6233: .dw $87EB ; $87ec ellipse
6235: .dw $888B ; $888c cls
6237: .dw $728C ; $728d edit
6239: .dw $7326 ; $7327 while
623B: .dw $73B9 ; $73ba wend
623D: .dw $af4D ; $af4e call
623F: .dw $96D4 ; $96d5 rename
6241: .dw $96D1 ; $96d2 copy

; address table for functions
6243: .dw $a202 ; sgn
6245: .dw $a2AF ; int
6247: .dw $a237 ; abs
6249: .dw $7dDD ; pos
624B: .dw $a5E7 ; sqr
624D: .dw $a710 ; rnd
624F: .dw $9f8B ; log
6251: .dw $a664 ; exp
6253: .dw $a74D ; cos
6255: .dw $a754 ; sin
6257: .dw $a79F ; tan
6259: .dw $a805 ; atn
625B: .dw $8629 ; peek
625D: .dw $85A4 ; len
625F: .dw $7eAE ; str$
6261: .dw $85d6 ; val
6263: .dw $85b4 ; asc
6265: .dw $94B8 ; mks$
6267: .dw $94D3 ; mki$
6269: .dw $94FD ; cvs$
626B: .dw $951F ; cvi$
626D: .dw $9548 ; lof
626F: .dw $958B ; eof
6271: .dw $8512 ; chr$
6273: .dw $8526 ; left$
6275: .dw $8552 ; right$
6277: .dw $855D ; mid$

; table of commands
; each ended with a bit mask $80
6279: .DB $45, $4e, $c4 ; end
627C: .db $46, $4f, $d2 ; for
627F: .db $4E, $45, $58, $d4 ; next
6283: .db $44, $41, $54, $c1 ; data
6287: .db $49, $4e, $50, $55, $d4 ; input
628C: .db $44, $45, $cc ; del
628F: .db $44, $49, $cd ; dim
6292: .db $52, $45, $41, $c4 ; read
6296: .db $53, $57, $41, $d0 ; swap
629A: .db $54, $52, $41, $43, $c5 ; trace
629F: .db $4E, $4f, $54, $52, $41, $43, $c5 ; notrace  $8A
62A6: .db $50, $4f, $d0 ; pop
62A9: .db $4C, $45, $d4 ; let
62AC: .db $47, $4f, $54, $cf ; goto  $8D
62B0: .db $52, $55, $ce ; run
62B3: .db $49, $C6 ; if
62B5: .db $52, $45, $53, $54, $4f, $52, $c5 ; restore  $90
62BC: .db gosub
62C1: .db return
62C7: .db rem
62C9: .db stop
62CE: .db on
62D0: .db def
62D3: .db poke
62D7: .db print
62D8: .db cont
62E0: .db list
62E4: .db clear
62E9: .db new
62EC: .db text
62F0: .db graph
62F5: .db system
62F6: .db normal  ; $A0
6301: .db inverse
6308: .db flash
630D: .db play
6311: .db beep
6315: .db inkey$
631B: .db load
631F: .db save
6323: .db kill
6327: .db files
632C: .db open
6330: .db close
6335: .db write
633A: .db field
633F: .db get
6342: .db put
6345: .db lset  ; $B0
6349: .db rset
634D: .db auto
6351: .db locate
6357: .db draw
635B: .db line
635F: .db box
6362: .db circle
6368: .db ellipse
636F: .db cls
6370: .db edit
6376: .db while
637B: .db wend
637F: .db call
6383: .db rename
6389: .db copy

638D: .db tab  ; $C0
6390: .db to
6392: .db fn
6394: .db spc
6397: .db then
639B: .db else
639F: .db at
63A1: .db not
63A4: .db step
63A8: .db +
63A9: .db -
63AA: .db *
63AB: .db /
63AC: .db ^
63AD: .db and
63B0: .db or
63B2: .db >    ; $D0
63B3: .db =
63B4: .db <
63B5: .db sgn
63B8: .db int
63BB: .db abs
63BE: .db pos
63C1: .db sqr
63C4: .db rnd
63C7: .db log
63CA: .db exp
63CD: .db cos
63D0: .db sin
63D3: .db tan
63D6: .db atn
63D9: .db peek
63DD: .db len  ; $E0
63E0: .db str$
63E4: .db val
63E7: .db asc
63EA: .db mks$
63EE: .db mki$
63F2: .db cvs$
63F6: .db cvi$
63FA: .db lof
63FD: .db eof
6400: .db chr$
6404: .db left$
6409: .db right$
640F: .db mid$
6413: .db $00

; table of errors messages
; each ended with a bit mask $80
6414: .db "next without for"
6424: .db "syntax"
642A: .db "return without gosub"
643E: .db "out of data"
6449: .db "illegal quantity"
6459: .db "overflow"
6461: .db "out of memory"
646E: .db "undef'd statement"
647F: .db "bad subscript"
648C: .db "redim'd array"
6499: .db "division by zero"
64A9: .db "illegal direct"
64B7: .db "type mismatch"
64C4: .db "string too long"
64D3: .db "formula too complex"
64E6: .db "can't continue"
64F4: .db "undef'd function"
6504: .db "wend without while"
6516: .db "out of space"
6522: .db "file create"
652D: .db "file open"
6536: .db "file close"
6540: .db "file read"
6549: .db "file write"
6553: .db "file delete"
655E: .db "file name read"
656E: .db "file name write"
657B: .db "file name check"
658A: .db "no program"
6594: .db "ask cache"
659E: .db "file not exist"
65AB: .db "file list"
65B4: .db "record number"
65C1: .db "file number"
65CC: .db "file mode"
65D5: .db "same name file exist"
65E9: .db "file length read"
65F9: .db "illegal file name"
660A: .db "file too long"
6616: .db "file reopen"

6622: .db "error", $00

6628: .db " in ", $00

662E: .db "break", $00

; increment ($5E,$5F) and read character code into A, ignoring spaces
; return: C = if A is not digit
;         Z = if A is $00 or ':'
6634: E6 5E    INC $5E
6636: D0 02    BNE $663A
6638: E6 5F    INC $5F

; read a character into A without moving forward
663A: 8C 47 B9 STY $B947
663D: A0 00    LDY #$00
663F: B1 5E    LDA ($5E),Y
6641: AC 47 B9 LDY $B947
6644: C9 C5    CMP #$C5
6646: B0 0E    BCS $6656
6648: C9 3A    CMP #$3A   ; ':'
664A: B0 0A    BCS $6656
664C: C9 20    CMP #$20
664E: F0 E4    BEQ $6634  ; skip space
6650: 38       SEC
6651: E9 30    SBC #$30
6653: 38       SEC
6654: E9 D0    SBC #$D0
6656: 60       RTS

; 从文件的 $B957,$B958 处读取 512 字节到 $2000
6657: AD 57 B9 LDA $B957
665A: 8D 55 B9 STA $B955
665D: AD 58 B9 LDA $B958
6660: 8D 56 B9 STA $B956
6663: A9 00    LDA #$00
6665: 8D CF 08 STA $08CF
6668: 8D D0 08 STA $08D0
666B: AD 57 B9 LDA $B957
666E: 8D CD 08 STA $08CD
6671: AD 58 B9 LDA $B958
6674: 8D CE 08 STA $08CE
6677: A9 00    LDA #$00
6679: 8D D1 08 STA $08D1
667C: AD D9 B8 LDA $B8D9
667F: 8D C8 08 STA $08C8
6682: 00 19 05 INT $0519
6685: A9 00    LDA #$00
6687: 85 E0    STA $E0
6689: A9 20    LDA #$20
668B: 85 E1    STA $E1
668D: A9 00    LDA #$00
668F: 8D C6 08 STA $08C6
6692: A9 02    LDA #$02
6694: 8D C7 08 STA $08C7
6697: 00 16 05 INT $0516
669A: 60       RTS

669B: A9 00    LDA #$00
669D: 8D CF 08 STA $08CF
66A0: 8D D0 08 STA $08D0
66A3: AD 59 B9 LDA $B959
66A6: 8D CD 08 STA $08CD
66A9: AD 5A B9 LDA $B95A
66AC: 8D CE 08 STA $08CE
66AF: A9 00    LDA #$00
66B1: 8D D1 08 STA $08D1
66B4: AD D9 B8 LDA $B8D9
66B7: 8D C8 08 STA $08C8
66BA: 00 19 05 INT $0519
66BD: A9 00    LDA #$00
66BF: 85 E0    STA $E0
66C1: A9 22    LDA #$22
66C3: 85 E1    STA $E1
66C5: A9 00    LDA #$00
66C7: 8D C6 08 STA $08C6
66CA: A9 02    LDA #$02
66CC: 8D C7 08 STA $08C7
66CF: 00 16 05 INT $0516
66D2: 60       RTS

; first RND seed value
66D3: .db $80, $4f, $c7, $52, $58

; search for `for` blocks on stack
; X = stack pointer of the FOR item
66D8: BA       TSX
66D9: E8       INX
66DA: E8       INX
66DB: E8       INX
66DC: E8       INX
66DD: BD 01 01 LDA $0101,X
66E0: C9 81    CMP #$81    ; for
66E2: F0 14    BEQ $66F8
66E4: C9 BB    CMP #$BB    ; while
66E6: F0 04    BEQ $66EC
66E8: C9 91    CMP #$91    ; gosub
66EA: D0 2D    BNE $6719
66EC: 8A       TXA
66ED: 18       CLC
66EE: 69 07    ADC #$07  ; a WHILE stack item is of 7 bytes
66F0: 90 03    BCC $66F5
66F2: A9 01    LDA #$01
66F4: 60       RTS

66F5: AA       TAX
66F6: D0 E5    BNE $66DD  ; always branch

66F8: A5 5D    LDA $5D
66FA: D0 0A    BNE $6706
66FC: BD 03 01 LDA $0103,X  ; if no variable follows NEXT, get the variable
                            ; in FOR stack item
66FF: 85 5C    STA $5C
6701: BD 02 01 LDA $0102,X
6704: 85 5D    STA $5D
6706: DD 02 01 CMP $0102,X
6709: D0 07    BNE $6712
670B: A5 5C    LDA $5C
670D: DD 03 01 CMP $0103,X
6710: F0 07    BEQ $6719  ; if loop variable is the same, previous FOR loop is found
6712: 8A       TXA
6713: 18       CLC
6714: 69 14    ADC #$14  ; a FOR stack items is of 20 bytes
6716: AA       TAX
6717: D0 C4    BNE $66DD
6719: 60       RTS

671A: 20 6C 67 JSR $676C
671D: 8D CB B8 STA $B8CB
6720: 8C CC B8 STY $B8CC
6723: 38       SEC
6724: A5 63    LDA $63
6726: E5 68    SBC $68
6728: 85 44    STA $44
672A: A8       TAY
672B: A5 64    LDA $64
672D: E5 69    SBC $69
672F: AA       TAX
6730: E8       INX
6731: 98       TYA
6732: F0 23    BEQ $6757
6734: A5 63    LDA $63
6736: 38       SEC
6737: E5 44    SBC $44
6739: 85 63    STA $63
673B: B0 03    BCS $6740
673D: C6 64    DEC $64
673F: 38       SEC
6740: A5 61    LDA $61
6742: E5 44    SBC $44
6744: 85 61    STA $61
6746: B0 08    BCS $6750
6748: C6 62    DEC $62
674A: 90 04    BCC $6750
674C: B1 63    LDA ($63),Y
674E: 91 61    STA ($61),Y
6750: 88       DEY
6751: D0 F9    BNE $674C
6753: B1 63    LDA ($63),Y
6755: 91 61    STA ($61),Y
6757: C6 64    DEC $64
6759: C6 62    DEC $62
675B: CA       DEX
675C: D0 F2    BNE $6750
675E: 60       RTS

; check out of memory error
675F: 0A       ASL
6760: 69 36    ADC #$36
6762: B0 39    BCS $679D
6764: 85 44    STA $44
6766: BA       TSX
6767: E4 44    CPX $44
6769: 90 32    BCC $679D
676B: 60       RTS

676C: CC D0 B8 CPY $B8D0
676F: 90 2B    BCC $679C
6771: D0 05    BNE $6778
6773: CD CF B8 CMP $B8CF
6776: 90 24    BCC $679C
6778: 48       PHA
6779: A2 09    LDX #$09
677B: 98       TYA
677C: 48       PHA
677D: B5 60    LDA $60,X
677F: CA       DEX
6780: 10 FA    BPL $677C
6782: 20 76 7F JSR $7F76
6785: A2 F7    LDX #$F7
6787: 68       PLA
6788: 95 60    STA $60,X
678A: E8       INX
678B: 30 FA    BMI $6787
678D: 68       PLA
678E: A8       TAY
678F: 68       PLA
6790: CC D0 B8 CPY $B8D0
6793: 90 07    BCC $679C
6795: D0 06    BNE $679D
6797: CD CF B8 CMP $B8CF
679A: B0 01    BCS $679D
679C: 60       RTS

; out of memory error
679D: A2 06    LDX #$06

; 报告运行时错误, X=错误码
679F: 8E 00 B8 STX $B800
67A2: 20 CC 72 JSR $72CC
67A5: 20 2C 72 JSR $722C
67A8: A9 00    LDA #$00
67AA: 8D F6 03 STA $03F6
67AD: 20 4A 68 JSR $684A
67B0: A9 00    LDA #$00
67B2: 8D C6 B8 STA $B8C6
67B5: 8D 12 B8 STA $B812
67B8: 20 9A 88 JSR $889A
67BB: 2C 10 B8 BIT $B810
67BE: 10 03    BPL $67C3
67C0: 4C 63 86 JMP $8663
67C3: 20 E1 79 JSR $79E1
67C6: A2 00    LDX #$00
67C8: A0 00    LDY #$00
67CA: A9 13    LDA #$13
67CC: 85 80    STA $80
67CE: A9 64    LDA #$64
67D0: 85 81    STA $81
67D2: EC 00 B8 CPX $B800
67D5: F0 10    BEQ $67E7
67D7: E6 80    INC $80
67D9: D0 02    BNE $67DD
67DB: E6 81    INC $81
67DD: B1 80    LDA ($80),Y
67DF: 10 F6    BPL $67D7
67E1: E8       INX
67E2: EC 00 B8 CPX $B800
67E5: D0 F0    BNE $67D7
67E7: E6 80    INC $80
67E9: D0 02    BNE $67ED
67EB: E6 81    INC $81
67ED: B1 80    LDA ($80),Y
67EF: 30 06    BMI $67F7
67F1: 20 E3 79 JSR $79E3
67F4: C8       INY
67F5: D0 F6    BNE $67ED
67F7: 20 E6 79 JSR $79E6
67FA: 20 B6 72 JSR $72B6
67FD: A9 22    LDA #$22
67FF: A0 66    LDY #$66

6801: 20 2D 79 JSR $792D
6804: AC 15 B8 LDY $B815
6807: C8       INY
6808: F0 03    BEQ $680D
680A: 20 71 A4 JSR $A471
680D: A9 00    LDA #$00
680F: 20 FF 72 JSR $72FF
6812: 20 4A 6E JSR $6E4A
6815: A9 00    LDA #$00
6817: 8D B4 03 STA $03B4
681A: 8D 01 B8 STA $B801
681D: AD C3 B8 LDA $B8C3
6820: 8D C2 B8 STA $B8C2
6823: 20 BE 6F JSR $6FBE
6826: 20 9A AD JSR $AD9A
6829: 20 4A 6E JSR $6E4A
682C: 20 9A AD JSR $AD9A
682F: A9 00    LDA #$00
6831: 8D B4 03 STA $03B4
6834: 8D 68 B9 STA $B968
6837: 8D B3 03 STA $03B3
683A: A9 01    LDA #$01
683C: 8D C4 B8 STA $B8C4
683F: A9 FF    LDA #$FF
6841: 8D 15 B8 STA $B815
6844: 00 06 C0 INT $C006
6847: 4C 32 88 JMP $8832

; close all files opened by OPEN statement
684A: A9 00    LDA #$00
684C: 8D 01 B8 STA $B801
684F: 0A       ASL
6850: AA       TAX
6851: BD EC B8 LDA $B8EC,X
6854: 38       SEC
6855: E9 01    SBC #$01
6857: 30 06    BMI $685F
6859: 8D C8 08 STA $08C8
685C: 00 17 05 INT $0517
685F: EE 01 B8 INC $B801
6862: AD 01 B8 LDA $B801
6865: C9 03    CMP #$03
6867: 90 E6    BCC $684F
6869: A0 3E    LDY #$3E
686B: A9 00    LDA #$00
686D: 99 EC B8 STA $B8EC,Y
6870: 88       DEY
6871: 10 FA    BPL $686D
6873: A0 0B    LDY #$0B
6875: 99 6B B9 STA $B96B,Y
6878: 88       DEY
6879: 10 FA    BPL $6875
687B: 60       RTS

; scan current chunk of .BAS file
; set bit6 of $B94E conditionally.
; store first line number of current chunk of the .BAS file in $B951,$B952.
687C: A9 FF    LDA #$FF
687E: 8D 52 B9 STA $B952
6881: 8D 54 B9 STA $B954
6884: A9 01    LDA #$01
6886: 85 80    STA $80
6888: A9 20    LDA #$20
688A: 85 81    STA $81

688C: A0 00    LDY #$00
688E: B1 80    LDA ($80),Y
6890: C8       INY
6891: 11 80    ORA ($80),Y
6893: F0 7D    BEQ $6912 ; clear bit6 of $B94E
6895: C8       INY
6896: B1 80    LDA ($80),Y
6898: 8D 4F B9 STA $B94F
689B: C8       INY
689C: B1 80    LDA ($80),Y
689E: 8D 50 B9 STA $B950
68A1: C8       INY
68A2: C8       INY
68A3: B1 80    LDA ($80),Y
68A5: D0 FB    BNE $68A2
68A7: C8       INY
68A8: 98       TYA
68A9: 65 80    ADC $80
68AB: AA       TAX
68AC: A0 00    LDY #$00
68AE: 91 80    STA ($80),Y
68B0: A5 81    LDA $81
68B2: 69 00    ADC #$00
68B4: C8       INY
68B5: 2C 4E B9 BIT $B94E
68B8: 10 32    BPL $68EC
68BA: C9 22    CMP #$22
68BC: 90 2E    BCC $68EC

68BE: A9 00    LDA #$00
68C0: 91 80    STA ($80),Y
68C2: 88       DEY
68C3: 91 80    STA ($80),Y
68C5: 38       SEC
68C6: A5 80    LDA $80
68C8: E9 01    SBC #$01
68CA: 85 80    STA $80
68CC: A5 81    LDA $81
68CE: E9 20    SBC #$20
68D0: 85 81    STA $81
68D2: 18       CLC
68D3: AD 57 B9 LDA $B957
68D6: 65 80    ADC $80
68D8: 8D 57 B9 STA $B957
68DB: AD 58 B9 LDA $B958
68DE: 65 81    ADC $81
68E0: 8D 58 B9 STA $B958
68E3: AD 4E B9 LDA $B94E
68E6: 09 40    ORA #$40
68E8: 8D 4E B9 STA $B94E
68EB: 60       RTS

68EC: 91 80    STA ($80),Y
68EE: 86 80    STX $80
68F0: 85 81    STA $81
68F2: 2C 52 B9 BIT $B952
68F5: 10 0C    BPL $6903

; store first line number of current chunk of the .BAS file.
68F7: AD 4F B9 LDA $B94F
68FA: 8D 51 B9 STA $B951
68FD: AD 50 B9 LDA $B950
6900: 8D 52 B9 STA $B952

6903: AD 4F B9 LDA $B94F
6906: 8D 53 B9 STA $B953
6909: AD 50 B9 LDA $B950
690C: 8D 54 B9 STA $B954
690F: 4C 8C 68 JMP $688C

; clear bit6 of $B94E
6912: AD 4E B9 LDA $B94E
6915: 29 BF    AND #$BF
6917: 8D 4E B9 STA $B94E
691A: 60       RTS

691B: A9 01    LDA #$01
691D: 85 80    STA $80
691F: A9 22    LDA #$22
6921: 85 81    STA $81
6923: A0 00    LDY #$00
6925: B1 80    LDA ($80),Y
6927: C8       INY
6928: 11 80    ORA ($80),Y
692A: F0 4D    BEQ $6979
692C: A0 04    LDY #$04
692E: C8       INY
692F: B1 80    LDA ($80),Y
6931: D0 FB    BNE $692E
6933: C8       INY
6934: 98       TYA
6935: 65 80    ADC $80
6937: AA       TAX
6938: A0 00    LDY #$00
693A: 91 80    STA ($80),Y
693C: A5 81    LDA $81
693E: 69 00    ADC #$00
6940: C8       INY
6941: C9 24    CMP #$24
6943: 90 2B    BCC $6970
6945: A9 00    LDA #$00
6947: 91 80    STA ($80),Y
6949: 88       DEY
694A: 91 80    STA ($80),Y
694C: 38       SEC
694D: A5 80    LDA $80
694F: E9 01    SBC #$01
6951: 85 80    STA $80
6953: A5 81    LDA $81
6955: E9 22    SBC #$22
6957: 85 81    STA $81
6959: 18       CLC
695A: AD 59 B9 LDA $B959
695D: 65 80    ADC $80
695F: 8D 59 B9 STA $B959
6962: AD 5A B9 LDA $B95A
6965: 65 81    ADC $81
6967: 8D 5A B9 STA $B95A
696A: A9 00    LDA #$00
696C: 8D 5B B9 STA $B95B
696F: 60       RTS

6970: 91 80    STA ($80),Y
6972: 86 80    STX $80
6974: 85 81    STA $81
6976: 4C 23 69 JMP $6923

6979: A9 FF    LDA #$FF
697B: 8D 5B B9 STA $B95B
697E: 60       RTS

697F: A0 01    LDY #$01
6981: B1 68    LDA ($68),Y
6983: 85 45    STA $45
6985: AD C9 B8 LDA $B8C9
6988: 85 44    STA $44
698A: A5 69    LDA $69
698C: 85 47    STA $47
698E: A5 68    LDA $68
6990: 88       DEY
6991: F1 68    SBC ($68),Y
6993: 18       CLC
6994: 6D C9 B8 ADC $B8C9
6997: 8D C9 B8 STA $B8C9
699A: 85 46    STA $46
699C: AD CA B8 LDA $B8CA
699F: 69 FF    ADC #$FF
69A1: 8D CA B8 STA $B8CA
69A4: E5 69    SBC $69
69A6: AA       TAX
69A7: 38       SEC
69A8: A5 68    LDA $68
69AA: ED C9 B8 SBC $B8C9
69AD: A8       TAY
69AE: B0 03    BCS $69B3
69B0: E8       INX
69B1: C6 47    DEC $47
69B3: 18       CLC
69B4: 65 44    ADC $44
69B6: 90 03    BCC $69BB
69B8: C6 45    DEC $45
69BA: 18       CLC
69BB: B1 44    LDA ($44),Y
69BD: 91 46    STA ($46),Y
69BF: C8       INY
69C0: D0 F9    BNE $69BB
69C2: E6 45    INC $45
69C4: E6 47    INC $47
69C6: CA       DEX
69C7: D0 F2    BNE $69BB
69C9: 60       RTS
69CA: A0 00    LDY #$00
69CC: A9 01    LDA #$01
69CE: 91 68    STA ($68),Y
69D0: C8       INY
69D1: 91 68    STA ($68),Y
69D3: C8       INY
69D4: A5 40    LDA $40
69D6: 91 68    STA ($68),Y
69D8: C8       INY
69D9: A5 41    LDA $41
69DB: 91 68    STA ($68),Y
69DD: A0 04    LDY #$04
69DF: A2 00    LDX #$00
69E1: BD 29 B8 LDA $B829,X
69E4: 91 68    STA ($68),Y
69E6: F0 04    BEQ $69EC
69E8: E8       INX
69E9: C8       INY
69EA: D0 F5    BNE $69E1
69EC: 60       RTS
69ED: 00 01 07 INT $0701
69F0: 60       RTS

69F1: 2B       ??
69F2: 2D 2A 2F AND $2F2A
69F5: 5E 3E 3D LSR $3D3E,X
69F8: 3C       ??
69F9: 20 00 3A JSR $3A00
69FC: 3B       ??
69FD: 2C 22 28 BIT $2822
6A00: 29 C9    AND #$C9
6A02: CA       DEX
6A03: CB       ??
6A04: CC CD D0 CPY $D0CD
6A07: D1 D2    CMP ($D2),Y
6A09: 60       RTS

6A0A: A5 54    LDA $54
6A0C: A6 55    LDX $55

; find line number
; C = if line number is found
6A0E: 85 68    STA $68
6A10: 86 69    STX $69
6A12: A5 41    LDA $41
6A14: CD 52 B9 CMP $B952
6A17: D0 05    BNE $6A1E
6A19: A5 40    LDA $40
6A1B: CD 51 B9 CMP $B951
6A1E: 90 7B    BCC $6A9B
6A20: A5 41    LDA $41
6A22: CD 54 B9 CMP $B954
6A25: D0 05    BNE $6A2C
6A27: A5 40    LDA $40
6A29: CD 53 B9 CMP $B953
6A2C: F0 02    BEQ $6A30
6A2E: B0 6B    BCS $6A9B
6A30: A0 01    LDY #$01
6A32: B1 68    LDA ($68),Y
6A34: F0 1F    BEQ $6A55
6A36: C8       INY
6A37: C8       INY
6A38: A5 41    LDA $41
6A3A: D1 68    CMP ($68),Y
6A3C: 90 18    BCC $6A56
6A3E: F0 03    BEQ $6A43
6A40: 88       DEY
6A41: D0 09    BNE $6A4C
6A43: A5 40    LDA $40
6A45: 88       DEY
6A46: D1 68    CMP ($68),Y
6A48: 90 0C    BCC $6A56
6A4A: F0 0A    BEQ $6A56
6A4C: 88       DEY
6A4D: B1 68    LDA ($68),Y
6A4F: AA       TAX
6A50: 88       DEY
6A51: B1 68    LDA ($68),Y
6A53: B0 B9    BCS $6A0E
6A55: 18       CLC
6A56: 60       RTS

; will be called only when .BAS file > 8KB
6A57: A9 00    LDA #$00
6A59: 8D 59 B9 STA $B959
6A5C: 8D 5A B9 STA $B95A
6A5F: 20 9B 66 JSR $669B
6A62: 20 1B 69 JSR $691B
6A65: A9 01    LDA #$01
6A67: A2 22    LDX #$22
6A69: 85 68    STA $68
6A6B: 86 69    STX $69
6A6D: A0 01    LDY #$01
6A6F: B1 68    LDA ($68),Y
6A71: D0 07    BNE $6A7A
6A73: 2C 5B B9 BIT $B95B
6A76: 10 E7    BPL $6A5F
6A78: 30 1F    BMI $6A99
6A7A: C8       INY
6A7B: C8       INY
6A7C: A5 41    LDA $41
6A7E: D1 68    CMP ($68),Y
6A80: 90 17    BCC $6A99
6A82: F0 03    BEQ $6A87
6A84: 88       DEY
6A85: D0 09    BNE $6A90
6A87: A5 40    LDA $40
6A89: 88       DEY
6A8A: D1 68    CMP ($68),Y
6A8C: 90 0B    BCC $6A99
6A8E: F0 0A    BEQ $6A9A
6A90: 88       DEY
6A91: B1 68    LDA ($68),Y
6A93: AA       TAX
6A94: 88       DEY
6A95: B1 68    LDA ($68),Y
6A97: B0 D0    BCS $6A69
6A99: 18       CLC
6A9A: 60       RTS

6A9B: 2C 4E B9 BIT $B94E
6A9E: 10 B5    BPL $6A55
6AA0: A5 41    LDA $41
6AA2: CD 52 B9 CMP $B952
6AA5: D0 05    BNE $6AAC
6AA7: A5 40    LDA $40
6AA9: CD 51 B9 CMP $B951
6AAC: B0 1F    BCS $6ACD
6AAE: A9 00    LDA #$00
6AB0: 8D 57 B9 STA $B957
6AB3: 8D 58 B9 STA $B958
6AB6: 20 57 66 JSR $6657
6AB9: 20 7C 68 JSR $687C
6ABC: A5 41    LDA $41
6ABE: CD 52 B9 CMP $B952
6AC1: D0 05    BNE $6AC8
6AC3: A5 40    LDA $40
6AC5: CD 51 B9 CMP $B951
6AC8: 90 8B    BCC $6A55
6ACA: 4C 0A 6A JMP $6A0A
6ACD: 2C 4E B9 BIT $B94E
6AD0: 50 83    BVC $6A55
6AD2: 20 57 66 JSR $6657
6AD5: 20 7C 68 JSR $687C
6AD8: 4C 0A 6A JMP $6A0A

; increment ($5E, $5F), read a character (space is not ignored)
; C = if A is not digit
6ADB: E6 5E    INC $5E
6ADD: D0 02    BNE $6AE1
6ADF: E6 5F    INC $5F
6AE1: A0 00    LDY #$00
6AE3: B1 5E    LDA ($5E),Y
6AE5: C9 3A    CMP #$3A
6AE7: B0 0A    BCS $6AF3
6AE9: C9 20    CMP #$20
6AEB: F0 06    BEQ $6AF3
6AED: 38       SEC
6AEE: E9 30    SBC #$30
6AF0: 38       SEC
6AF1: E9 D0    SBC #$D0
6AF3: 60       RTS

6AF4: 20 2C 72 JSR $722C
6AF7: 20 37 6D JSR $6D37
6AFA: AD B5 03 LDA $03B5
6AFD: 8D C0 B8 STA $B8C0
6B00: 20 9A AD JSR $AD9A
6B03: AD 47 04 LDA $0447
6B06: C9 02    CMP #$02
6B08: D0 03    BNE $6B0D
6B0A: 20 EA 6C JSR $6CEA
6B0D: A9 0C    LDA #$0C
6B0F: 8D 4A 04 STA $044A
6B12: 00 01 07 INT $0701
6B15: C9 00    CMP #$00
6B17: D0 06    BNE $6B1F
6B19: 20 B8 6F JSR $6FB8
6B1C: 4C 00 6B JMP $6B00
6B1F: C9 1F    CMP #$1F
6B21: F0 DD    BEQ $6B00
6B23: C9 14    CMP #$14
6B25: F0 D9    BEQ $6B00
6B27: C9 15    CMP #$15
6B29: F0 D5    BEQ $6B00
6B2B: C9 13    CMP #$13
6B2D: F0 D1    BEQ $6B00
6B2F: C9 0E    CMP #$0E
6B31: F0 CD    BEQ $6B00
6B33: C9 0F    CMP #$0F
6B35: F0 C9    BEQ $6B00
6B37: C9 1E    CMP #$1E
6B39: F0 C5    BEQ $6B00
6B3B: C9 19    CMP #$19
6B3D: F0 38    BEQ $6B77
6B3F: C9 1A    CMP #$1A
6B41: F0 50    BEQ $6B93
6B43: C9 30    CMP #$30
6B45: F0 40    BEQ $6B87
6B47: C9 1D    CMP #$1D
6B49: D0 03    BNE $6B4E
6B4B: 4C D2 6B JMP $6BD2
6B4E: C9 17    CMP #$17
6B50: D0 03    BNE $6B55
6B52: 4C 8E 6C JMP $6C8E
6B55: C9 1C    CMP #$1C
6B57: F0 66    BEQ $6BBF
6B59: C9 16    CMP #$16
6B5B: D0 03    BNE $6B60
6B5D: 4C 2B 6C JMP $6C2B
6B60: C9 0D    CMP #$0D
6B62: D0 03    BNE $6B67
6B64: 4C 0B 6C JMP $6C0B
6B67: C9 1B    CMP #$1B
6B69: D0 03    BNE $6B6E
6B6B: 4C 0B 6C JMP $6C0B
6B6E: 8D C5 B8 STA $B8C5
6B71: 20 7F 6E JSR $6E7F
6B74: 4C 00 6B JMP $6B00
6B77: AD 49 04 LDA $0449
6B7A: C9 02    CMP #$02
6B7C: D0 06    BNE $6B84
6B7E: 20 10 6D JSR $6D10
6B81: 4C 00 6B JMP $6B00
6B84: 4C 00 6B JMP $6B00
6B87: AE 47 04 LDX $0447
6B8A: F0 21    BEQ $6BAD
6B8C: E0 01    CPX #$01
6B8E: F0 DE    BEQ $6B6E
6B90: 4C 00 6B JMP $6B00
6B93: AE 47 04 LDX $0447
6B96: D0 11    BNE $6BA9
6B98: 20 F2 AC JSR $ACF2
6B9B: A9 01    LDA #$01
6B9D: 0D 91 03 ORA $0391
6BA0: 8D 91 03 STA $0391
6BA3: 20 B8 6F JSR $6FB8
6BA6: 4C 00 6B JMP $6B00
6BA9: E0 02    CPX #$02
6BAB: D0 0F    BNE $6BBC
6BAD: AE B5 03 LDX $03B5
6BB0: E0 04    CPX #$04
6BB2: 90 08    BCC $6BBC
6BB4: A2 05    LDX #$05
6BB6: 20 00 71 JSR $7100
6BB9: CE B5 03 DEC $03B5
6BBC: 4C 00 6B JMP $6B00
6BBF: AD C4 B8 LDA $B8C4
6BC2: 49 01    EOR #$01
6BC4: 8D C4 B8 STA $B8C4
6BC7: AD B3 03 LDA $03B3
6BCA: 49 08    EOR #$08
6BCC: 8D B3 03 STA $03B3
6BCF: 4C 00 6B JMP $6B00
6BD2: AD C3 B8 LDA $B8C3
6BD5: CD C1 B8 CMP $B8C1
6BD8: D0 06    BNE $6BE0
6BDA: 20 12 E0 JSR $E012
6BDD: 4C 00 6B JMP $6B00
6BE0: CD C2 B8 CMP $B8C2
6BE3: D0 03    BNE $6BE8
6BE5: 20 B5 6D JSR $6DB5
6BE8: 20 F7 6D JSR $6DF7
6BEB: D0 0D    BNE $6BFA
6BED: AE C2 B8 LDX $B8C2
6BF0: E8       INX
6BF1: E8       INX
6BF2: BD 58 B8 LDA $B858,X
6BF5: 30 03    BMI $6BFA
6BF7: 20 E8 6D JSR $6DE8
6BFA: AE C2 B8 LDX $B8C2
6BFD: BD 58 B8 LDA $B858,X
6C00: 10 03    BPL $6C05
6C02: 20 87 71 JSR $7187
6C05: 20 87 71 JSR $7187
6C08: 4C D4 6C JMP $6CD4
6C0B: 20 7B 6D JSR $6D7B
6C0E: 60       RTS
6C0F: AD 15 B8 LDA $B815
6C12: C9 FF    CMP #$FF
6C14: D0 03    BNE $6C19
6C16: 4C 00 6B JMP $6B00
6C19: 68       PLA
6C1A: 68       PLA
6C1B: AD D3 B8 LDA $B8D3
6C1E: AC D4 B8 LDY $B8D4
6C21: 85 5E    STA $5E
6C23: 84 5F    STY $5F
6C25: 38       SEC
6C26: A9 00    LDA #$00
6C28: 4C 06 75 JMP $7506
6C2B: AE C2 B8 LDX $B8C2
6C2E: EC C3 B8 CPX $B8C3
6C31: B0 55    BCS $6C88
6C33: BD 58 B8 LDA $B858,X
6C36: 10 06    BPL $6C3E
6C38: EE C2 B8 INC $B8C2
6C3B: 20 59 6C JSR $6C59
6C3E: EE C2 B8 INC $B8C2
6C41: 20 59 6C JSR $6C59
6C44: AD B4 03 LDA $03B4
6C47: C9 13    CMP #$13
6C49: D0 0B    BNE $6C56
6C4B: AE C2 B8 LDX $B8C2
6C4E: BD 58 B8 LDA $B858,X
6C51: 10 03    BPL $6C56
6C53: 20 59 6C JSR $6C59
6C56: 4C CE 6C JMP $6CCE
6C59: AE B4 03 LDX $03B4
6C5C: E8       INX
6C5D: E0 14    CPX #$14
6C5F: F0 04    BEQ $6C65
6C61: 8E B4 03 STX $03B4
6C64: 60       RTS
6C65: A9 00    LDA #$00
6C67: 8D B4 03 STA $03B4
6C6A: AE B5 03 LDX $03B5
6C6D: E8       INX
6C6E: AD 47 04 LDA $0447
6C71: C9 02    CMP #$02
6C73: D0 08    BNE $6C7D
6C75: E0 04    CPX #$04
6C77: B0 08    BCS $6C81
6C79: 8E B5 03 STX $03B5
6C7C: 60       RTS
6C7D: E0 05    CPX #$05
6C7F: 90 F8    BCC $6C79
6C81: 20 00 71 JSR $7100
6C84: 20 B8 6F JSR $6FB8
6C87: 60       RTS
6C88: 20 12 E0 JSR $E012
6C8B: 4C 00 6B JMP $6B00
6C8E: AE C2 B8 LDX $B8C2
6C91: EC C1 B8 CPX $B8C1
6C94: F0 F2    BEQ $6C88
6C96: AD B5 03 LDA $03B5
6C99: 0D B4 03 ORA $03B4
6C9C: D0 2D    BNE $6CCB
6C9E: 20 D5 6D JSR $6DD5
6CA1: 8C 01 B8 STY $B801
6CA4: 20 F7 6D JSR $6DF7
6CA7: 38       SEC
6CA8: D0 08    BNE $6CB2
6CAA: AD C2 B8 LDA $B8C2
6CAD: E9 13    SBC #$13
6CAF: 4C B7 6C JMP $6CB7
6CB2: AD C2 B8 LDA $B8C2
6CB5: E9 14    SBC #$14
6CB7: AE 01 B8 LDX $B801
6CBA: D0 03    BNE $6CBF
6CBC: CE C2 B8 DEC $B8C2
6CBF: CE C2 B8 DEC $B8C2
6CC2: 8D 01 B8 STA $B801
6CC5: 20 BE 6F JSR $6FBE
6CC8: 4C CE 6C JMP $6CCE
6CCB: 20 B5 6D JSR $6DB5
6CCE: 20 9A AD JSR $AD9A
6CD1: 4C 00 6B JMP $6B00
6CD4: AD B4 03 LDA $03B4
6CD7: 48       PHA
6CD8: AD B5 03 LDA $03B5
6CDB: 48       PHA
6CDC: 20 B8 6F JSR $6FB8
6CDF: 68       PLA
6CE0: 8D B5 03 STA $03B5
6CE3: 68       PLA
6CE4: 8D B4 03 STA $03B4
6CE7: 4C CE 6C JMP $6CCE
6CEA: AD B5 03 LDA $03B5
6CED: 8D 6E B9 STA $B96E
6CF0: AD B4 03 LDA $03B4
6CF3: 8D 6F B9 STA $B96F
6CF6: AD B3 03 LDA $03B3
6CF9: 8D 70 B9 STA $B970
6CFC: A2 63    LDX #$63
6CFE: BD C0 02 LDA $02C0,X
6D01: 9D 99 B9 STA $B999,X
6D04: CA       DEX
6D05: 10 F7    BPL $6CFE
6D07: AD 91 03 LDA $0391
6D0A: 29 01    AND #$01
6D0C: 8D 77 B9 STA $B977
6D0F: 60       RTS
6D10: AD 6E B9 LDA $B96E
6D13: 8D B5 03 STA $03B5
6D16: AD 6F B9 LDA $B96F
6D19: 8D B4 03 STA $03B4
6D1C: AD 70 B9 LDA $B970
6D1F: 8D B3 03 STA $03B3
6D22: A2 63    LDX #$63
6D24: BD 99 B9 LDA $B999,X
6D27: 9D C0 02 STA $02C0,X
6D2A: CA       DEX
6D2B: 10 F7    BPL $6D24
6D2D: AD 77 B9 LDA $B977
6D30: 0D 91 03 ORA $0391
6D33: 8D 91 03 STA $0391
6D36: 60       RTS
6D37: A9 00    LDA #$00
6D39: 8D C1 B8 STA $B8C1
6D3C: AD B5 03 LDA $03B5
6D3F: 0A       ASL
6D40: AA       TAX
6D41: BD 52 72 LDA $7252,X
6D44: 85 6F    STA $6F
6D46: BD 53 72 LDA $7253,X
6D49: 85 70    STA $70
6D4B: A0 00    LDY #$00
6D4D: B1 6F    LDA ($6F),Y
6D4F: F0 0D    BEQ $6D5E
6D51: 8D C1 B8 STA $B8C1
6D54: 99 58 B8 STA $B858,Y
6D57: C8       INY
6D58: C0 14    CPY #$14
6D5A: 90 F1    BCC $6D4D
6D5C: B0 11    BCS $6D6F
6D5E: A9 20    LDA #$20
6D60: AE C1 B8 LDX $B8C1
6D63: F0 EF    BEQ $6D54
6D65: 8C C1 B8 STY $B8C1
6D68: 8C C2 B8 STY $B8C2
6D6B: 8C C3 B8 STY $B8C3
6D6E: 60       RTS
6D6F: A0 14    LDY #$14
6D71: A9 00    LDA #$00
6D73: 99 57 B8 STA $B857,Y
6D76: 88       DEY
6D77: D0 FA    BNE $6D73
6D79: F0 EA    BEQ $6D65
6D7B: AE C2 B8 LDX $B8C2
6D7E: BD 58 B8 LDA $B858,X
6D81: F0 23    BEQ $6DA6
6D83: 10 06    BPL $6D8B
6D85: EE C2 B8 INC $B8C2
6D88: 20 59 6C JSR $6C59
6D8B: EE C2 B8 INC $B8C2
6D8E: 20 59 6C JSR $6C59
6D91: AD B4 03 LDA $03B4
6D94: C9 13    CMP #$13
6D96: D0 E3    BNE $6D7B
6D98: AE C2 B8 LDX $B8C2
6D9B: BD 58 B8 LDA $B858,X
6D9E: 10 DB    BPL $6D7B
6DA0: 20 59 6C JSR $6C59
6DA3: 4C 7B 6D JMP $6D7B
6DA6: 20 4A 6E JSR $6E4A
6DA9: A9 00    LDA #$00
6DAB: 8D B4 03 STA $03B4
6DAE: AD B5 03 LDA $03B5
6DB1: 8D C0 B8 STA $B8C0
6DB4: 60       RTS
6DB5: 20 D5 6D JSR $6DD5
6DB8: 8C 01 B8 STY $B801
6DBB: 20 F7 6D JSR $6DF7
6DBE: D0 03    BNE $6DC3
6DC0: 20 E8 6D JSR $6DE8
6DC3: AD 01 B8 LDA $B801
6DC6: D0 06    BNE $6DCE
6DC8: CE C2 B8 DEC $B8C2
6DCB: 20 E8 6D JSR $6DE8
6DCE: CE C2 B8 DEC $B8C2
6DD1: 20 E8 6D JSR $6DE8
6DD4: 60       RTS
6DD5: A2 00    LDX #$00
6DD7: A0 FF    LDY #$FF
6DD9: BD 58 B8 LDA $B858,X
6DDC: 10 03    BPL $6DE1
6DDE: A0 00    LDY #$00
6DE0: E8       INX
6DE1: E8       INX
6DE2: EC C2 B8 CPX $B8C2
6DE5: 90 F0    BCC $6DD7
6DE7: 60       RTS
6DE8: CE B4 03 DEC $03B4
6DEB: 30 01    BMI $6DEE
6DED: 60       RTS
6DEE: A9 13    LDA #$13
6DF0: 8D B4 03 STA $03B4
6DF3: CE B5 03 DEC $03B5
6DF6: 60       RTS
6DF7: AD B4 03 LDA $03B4
6DFA: F0 01    BEQ $6DFD
6DFC: 60       RTS
6DFD: AC C2 B8 LDY $B8C2
6E00: B9 58 B8 LDA $B858,Y
6E03: 30 03    BMI $6E08
6E05: A9 FF    LDA #$FF
6E07: 60       RTS
6E08: A9 01    LDA #$01
6E0A: 85 70    STA $70
6E0C: A2 00    LDX #$00
6E0E: 8E 00 B8 STX $B800
6E11: A9 FF    LDA #$FF
6E13: 85 6F    STA $6F
6E15: BD 58 B8 LDA $B858,X
6E18: 10 1B    BPL $6E35
6E1A: AC 00 B8 LDY $B800
6E1D: B9 40 6E LDA $6E40,Y
6E20: C5 70    CMP $70
6E22: F0 08    BEQ $6E2C
6E24: B0 0C    BCS $6E32
6E26: C8       INY
6E27: 8C 00 B8 STY $B800
6E2A: D0 F1    BNE $6E1D
6E2C: E6 70    INC $70
6E2E: A9 00    LDA #$00
6E30: 85 6F    STA $6F
6E32: E6 70    INC $70
6E34: E8       INX
6E35: E6 70    INC $70
6E37: EC C2 B8 CPX $B8C2
6E3A: E8       INX
6E3B: 90 D4    BCC $6E11
6E3D: A5 6F    LDA $6F
6E3F: 60       RTS

6E40: 14       ??
6E41: 28       PLP
6E42: 3C       ??
6E43: 50 64    BVC $6EA9
6E45: 78       SEI
6E46: 8C A0 B4 STY $B4A0
6E49: C8       INY

6E4A: AD B4 03 LDA $03B4
6E4D: F0 1C    BEQ $6E6B
6E4F: AE B5 03 LDX $03B5
6E52: E8       INX
6E53: 8E B5 03 STX $03B5
6E56: E0 04    CPX #$04
6E58: F0 12    BEQ $6E6C
6E5A: B0 17    BCS $6E73
6E5C: AD B5 03 LDA $03B5
6E5F: 0A       ASL
6E60: AA       TAX
6E61: BD 52 72 LDA $7252,X
6E64: 85 6F    STA $6F
6E66: BD 53 72 LDA $7253,X
6E69: 85 70    STA $70
6E6B: 60       RTS

6E6C: AD 47 04 LDA $0447
6E6F: C9 02    CMP #$02   ; check if is pinyin input mode, if so,
                          ; when caret y reaches 4, the text buffer must be
                          ; scrolled
6E71: 90 E9    BCC $6E5C
6E73: 20 00 71 JSR $7100
6E76: 20 BA 71 JSR $71BA
6E79: CE B5 03 DEC $03B5
6E7C: 4C 5C 6E JMP $6E5C

6E7F: 20 2C 6F JSR $6F2C
6E82: 18       CLC
6E83: 6D C3 B8 ADC $B8C3
6E86: C9 5E    CMP #$5E
6E88: 90 1D    BCC $6EA7
6E8A: F0 1B    BEQ $6EA7
6E8C: AD C5 B8 LDA $B8C5
6E8F: 10 03    BPL $6E94
6E91: 00 01 07 INT $0701
6E94: 20 12 E0 JSR $E012
6E97: AD 47 04 LDA $0447
6E9A: F0 01    BEQ $6E9D
6E9C: 60       RTS
6E9D: AD 49 04 LDA $0449
6EA0: F0 01    BEQ $6EA3
6EA2: 60       RTS
6EA3: 20 B8 6F JSR $6FB8
6EA6: 60       RTS
6EA7: AD 00 B8 LDA $B800
6EAA: 48       PHA
6EAB: 20 F7 6D JSR $6DF7
6EAE: D0 03    BNE $6EB3
6EB0: 20 E8 6D JSR $6DE8
6EB3: 68       PLA
6EB4: 8D 00 B8 STA $B800
6EB7: 20 69 6F JSR $6F69
6EBA: 20 7B 6F JSR $6F7B
6EBD: AD C2 B8 LDA $B8C2
6EC0: AE 01 B8 LDX $B801
6EC3: 8D 01 B8 STA $B801
6EC6: 8E C2 B8 STX $B8C2
6EC9: 20 BE 6F JSR $6FBE
6ECC: 20 9A AD JSR $AD9A
6ECF: AD 47 04 LDA $0447
6ED2: C9 02    CMP #$02
6ED4: F0 01    BEQ $6ED7
6ED6: 60       RTS
6ED7: AD C5 B8 LDA $B8C5
6EDA: 30 01    BMI $6EDD
6EDC: 60       RTS
6EDD: AD 5F 04 LDA $045F
6EE0: F0 01    BEQ $6EE3
6EE2: 60       RTS
6EE3: AD C5 B8 LDA $B8C5
6EE6: 85 92    STA $92
6EE8: AD 65 B9 LDA $B965
6EEB: 85 93    STA $93
6EED: 00 07 07 INT $0707
6EF0: B0 01    BCS $6EF3
6EF2: 60       RTS
6EF3: 20 2C 6F JSR $6F2C
6EF6: 18       CLC
6EF7: 6D C3 B8 ADC $B8C3
6EFA: C9 5E    CMP #$5E
6EFC: 90 06    BCC $6F04
6EFE: F0 04    BEQ $6F04
6F00: 20 12 E0 JSR $E012
6F03: 60       RTS
6F04: 20 69 6F JSR $6F69
6F07: AE C2 B8 LDX $B8C2
6F0A: A5 92    LDA $92
6F0C: 9D 58 B8 STA $B858,X
6F0F: E8       INX
6F10: A5 93    LDA $93
6F12: 9D 58 B8 STA $B858,X
6F15: E8       INX
6F16: 8E 01 B8 STX $B801
6F19: AD C2 B8 LDA $B8C2
6F1C: AE 01 B8 LDX $B801
6F1F: 8D 01 B8 STA $B801
6F22: 8E C2 B8 STX $B8C2
6F25: 20 BE 6F JSR $6FBE
6F28: 20 9A AD JSR $AD9A
6F2B: 60       RTS
6F2C: AD C4 B8 LDA $B8C4
6F2F: D0 0D    BNE $6F3E
6F31: AD C5 B8 LDA $B8C5
6F34: 10 04    BPL $6F3A
6F36: A9 02    LDA #$02
6F38: D0 23    BNE $6F5D
6F3A: A9 01    LDA #$01
6F3C: D0 1F    BNE $6F5D
6F3E: AE C2 B8 LDX $B8C2
6F41: BD 58 B8 LDA $B858,X
6F44: F0 EB    BEQ $6F31
6F46: 29 80    AND #$80
6F48: 8D 00 B8 STA $B800
6F4B: AD C5 B8 LDA $B8C5
6F4E: 29 80    AND #$80
6F50: CD 00 B8 CMP $B800
6F53: F0 10    BEQ $6F65
6F55: 90 04    BCC $6F5B
6F57: A9 01    LDA #$01
6F59: D0 02    BNE $6F5D
6F5B: A9 03    LDA #$03
6F5D: 8D 00 B8 STA $B800
6F60: AA       TAX
6F61: BD 66 72 LDA $7266,X
6F64: 60       RTS
6F65: A9 00    LDA #$00
6F67: F0 F4    BEQ $6F5D
6F69: AD 00 B8 LDA $B800
6F6C: 0A       ASL
6F6D: AA       TAX
6F6E: BD 6A 72 LDA $726A,X
6F71: 85 80    STA $80
6F73: BD 6B 72 LDA $726B,X
6F76: 85 81    STA $81
6F78: 6C 80 00 JMP ($0080)
6F7B: AE C2 B8 LDX $B8C2
6F7E: 8E 01 B8 STX $B801
6F81: EE 01 B8 INC $B801
6F84: AD C5 B8 LDA $B8C5
6F87: 9D 58 B8 STA $B858,X
6F8A: 10 0F    BPL $6F9B
6F8C: 00 01 07 INT $0701
6F8F: AE 01 B8 LDX $B801
6F92: 8D 65 B9 STA $B965
6F95: 9D 58 B8 STA $B858,X
6F98: EE 01 B8 INC $B801
6F9B: 60       RTS
6F9C: AD C6 B8 LDA $B8C6
6F9F: 8D C2 B8 STA $B8C2
6FA2: A9 99    LDA #$99
6FA4: 85 60    STA $60
6FA6: A9 B9    LDA #$B9
6FA8: 85 61    STA $61
6FAA: A9 00    LDA #$00
6FAC: 8D 01 B8 STA $B801
6FAF: 8D 00 B8 STA $B800
6FB2: 20 E3 70 JSR $70E3
6FB5: 4C C9 6F JMP $6FC9
6FB8: AD C2 B8 LDA $B8C2
6FBB: 8D 01 B8 STA $B801

6FBE: A9 58    LDA #$58
6FC0: 85 60    STA $60
6FC2: A9 B8    LDA #$B8
6FC4: 85 61    STA $61
6FC6: 20 E3 70 JSR $70E3
6FC9: AC 01 B8 LDY $B801
6FCC: B1 60    LDA ($60),Y
6FCE: 10 24    BPL $6FF4
6FD0: 20 41 71 JSR $7141
6FD3: 90 07    BCC $6FDC
6FD5: CE 01 B8 DEC $B801
6FD8: A9 20    LDA #$20
6FDA: D0 18    BNE $6FF4
6FDC: A0 00    LDY #$00
6FDE: 91 6F    STA ($6F),Y
6FE0: 20 7B 70 JSR $707B
6FE3: 20 30 70 JSR $7030
6FE6: EE 01 B8 INC $B801
6FE9: E6 6F    INC $6F
6FEB: D0 02    BNE $6FEF
6FED: E6 70    INC $70
6FEF: AC 01 B8 LDY $B801
6FF2: B1 60    LDA ($60),Y
6FF4: A0 00    LDY #$00
6FF6: 91 6F    STA ($6F),Y
6FF8: 48       PHA
6FF9: 68       PLA
6FFA: F0 30    BEQ $702C
6FFC: 20 7B 70 JSR $707B
6FFF: 20 30 70 JSR $7030
7002: EE 01 B8 INC $B801
7005: E6 6F    INC $6F
7007: D0 02    BNE $700B
7009: E6 70    INC $70
700B: AD 47 04 LDA $0447
700E: C9 02    CMP #$02
7010: F0 0D    BEQ $701F
7012: A5 70    LDA $70
7014: C9 03    CMP #$03
7016: D0 04    BNE $701C
7018: A5 6F    LDA $6F
701A: C9 24    CMP #$24
701C: 90 AB    BCC $6FC9
701E: 60       RTS
701F: A5 70    LDA $70
7021: C9 03    CMP #$03
7023: D0 04    BNE $7029
7025: A5 6F    LDA $6F
7027: C9 10    CMP #$10
7029: 90 9E    BCC $6FC9
702B: 60       RTS
702C: 20 B0 70 JSR $70B0
702F: 60       RTS
7030: AD 01 B8 LDA $B801
7033: CD C2 B8 CMP $B8C2
7036: 90 01    BCC $7039
7038: 60       RTS
7039: AE B4 03 LDX $03B4
703C: E8       INX
703D: E0 14    CPX #$14
703F: F0 04    BEQ $7045
7041: 8E B4 03 STX $03B4
7044: 60       RTS
7045: A9 00    LDA #$00
7047: 8D B4 03 STA $03B4
704A: AE B5 03 LDX $03B5
704D: E8       INX
704E: AD 47 04 LDA $0447
7051: C9 02    CMP #$02
7053: D0 0F    BNE $7064
7055: E0 04    CPX #$04
7057: 90 1E    BCC $7077
7059: A9 FB    LDA #$FB
705B: 85 6F    STA $6F
705D: A9 02    LDA #$02
705F: 85 70    STA $70
7061: 4C 70 70 JMP $7070
7064: E0 05    CPX #$05
7066: 90 0F    BCC $7077
7068: A9 0F    LDA #$0F
706A: 85 6F    STA $6F
706C: A9 03    LDA #$03
706E: 85 70    STA $70
7070: 20 00 71 JSR $7100
7073: 20 BA 71 JSR $71BA
7076: 60       RTS
7077: 8E B5 03 STX $03B5
707A: 60       RTS
707B: AD 12 B8 LDA $B812
707E: 29 03    AND #$03
7080: F0 24    BEQ $70A6
7082: C9 03    CMP #$03
7084: B0 20    BCS $70A6
7086: C9 02    CMP #$02
7088: 08       PHP
7089: 38       SEC
708A: A5 6F    LDA $6F
708C: E9 C0    SBC #$C0
708E: AA       TAX
708F: 4A       LSR
7090: 4A       LSR
7091: 4A       LSR
7092: A8       TAY
7093: 8A       TXA
7094: 29 07    AND #$07
7096: AA       TAX
7097: BD A7 70 LDA $70A7,X
709A: 19 2B B9 ORA $B92B,Y
709D: 99 2B B9 STA $B92B,Y
70A0: 28       PLP
70A1: D0 03    BNE $70A6
70A3: 99 38 B9 STA $B938,Y
70A6: 60       RTS

70A7: 80       ??
70A8: 40       RTI
70A9: 20 10 08 JSR $0810
70AC: 04       ??
70AD: 02       ??
70AE: 01 60    ORA ($60,X)

70B0: A0 00    LDY #$00
70B2: E6 6F    INC $6F
70B4: D0 02    BNE $70B8
70B6: E6 70    INC $70
70B8: AD 47 04 LDA $0447
70BB: C9 02    CMP #$02
70BD: D0 0D    BNE $70CC
70BF: A5 70    LDA $70
70C1: C9 03    CMP #$03
70C3: D0 04    BNE $70C9
70C5: A5 6F    LDA $6F
70C7: C9 10    CMP #$10
70C9: 4C D6 70 JMP $70D6
70CC: A5 70    LDA $70
70CE: C9 03    CMP #$03
70D0: D0 04    BNE $70D6
70D2: A5 6F    LDA $6F
70D4: C9 24    CMP #$24
70D6: B0 0A    BCS $70E2
70D8: B1 6F    LDA ($6F),Y
70DA: F0 06    BEQ $70E2
70DC: A9 00    LDA #$00
70DE: 91 6F    STA ($6F),Y
70E0: F0 D0    BEQ $70B2
70E2: 60       RTS
70E3: AD B5 03 LDA $03B5
70E6: 0A       ASL
70E7: AA       TAX
70E8: BD 52 72 LDA $7252,X
70EB: 85 6F    STA $6F
70ED: BD 53 72 LDA $7253,X
70F0: 85 70    STA $70
70F2: 18       CLC
70F3: AD B4 03 LDA $03B4
70F6: 18       CLC
70F7: 65 6F    ADC $6F
70F9: 85 6F    STA $6F
70FB: 90 02    BCC $70FF
70FD: E6 70    INC $70
70FF: 60       RTS

7100: A9 50    LDA #$50
7102: E0 05    CPX #$05
7104: F0 02    BEQ $7108
7106: A9 3C    LDA #$3C
7108: 8D 02 B8 STA $B802
710B: A2 00    LDX #$00
710D: BD D4 02 LDA $02D4,X
7110: 9D C0 02 STA $02C0,X
7113: E8       INX
7114: EC 02 B8 CPX $B802
7117: 90 F4    BCC $710D
7119: 20 25 71 JSR $7125
711C: AD 68 B9 LDA $B968
711F: F0 03    BEQ $7124
7121: 20 32 71 JSR $7132
7124: 60       RTS

7125: AD 02 B8 LDA $B802
7128: C9 3C    CMP #$3C
712A: D0 03    BNE $712F
712C: 4C EB AC JMP $ACEB

712F: 4C F2 AC JMP $ACF2

7132: A9 30    LDA #$30
7134: AE 02 B8 LDX $B802
7137: E0 3C    CPX #$3C
7139: F0 02    BEQ $713D
713B: A9 40    LDA #$40
713D: 20 5D AD JSR $AD5D
7140: 60       RTS

7141: AA       TAX
7142: A0 00    LDY #$00
7144: A5 6F    LDA $6F
7146: D9 5C 72 CMP $725C,Y
7149: D0 07    BNE $7152
714B: A5 70    LDA $70
714D: D9 5D 72 CMP $725D,Y
7150: F0 07    BEQ $7159
7152: C8       INY
7153: C8       INY
7154: C0 0A    CPY #$0A
7156: 90 EC    BCC $7144
7158: 18       CLC
7159: 8A       TXA
715A: 60       RTS
715B: AD B5 03 LDA $03B5
715E: 8D C0 B8 STA $B8C0
7161: 0A       ASL
7162: AA       TAX
7163: BD 52 72 LDA $7252,X
7166: 85 6F    STA $6F
7168: BD 53 72 LDA $7253,X
716B: 85 70    STA $70
716D: AD B4 03 LDA $03B4
7170: F0 03    BEQ $7175
7172: 20 4A 6E JSR $6E4A
7175: AD 27 B8 LDA $B827
7178: 29 7F    AND #$7F
717A: A0 00    LDY #$00
717C: 91 6F    STA ($6F),Y
717E: A9 01    LDA #$01
7180: 8D B4 03 STA $03B4
7183: 20 9A AD JSR $AD9A
7186: 60       RTS
7187: AE C2 B8 LDX $B8C2
718A: BD 59 B8 LDA $B859,X
718D: 9D 58 B8 STA $B858,X
7190: E8       INX
7191: EC C3 B8 CPX $B8C3
7194: 90 F4    BCC $718A
7196: CE C3 B8 DEC $B8C3
7199: 60       RTS
719A: 20 A0 71 JSR $71A0
719D: 4C A0 71 JMP $71A0
71A0: AE C3 B8 LDX $B8C3
71A3: EC C2 B8 CPX $B8C2
71A6: F0 0E    BEQ $71B6
71A8: BD 57 B8 LDA $B857,X
71AB: 9D 58 B8 STA $B858,X
71AE: CA       DEX
71AF: EC C2 B8 CPX $B8C2
71B2: F0 02    BEQ $71B6
71B4: B0 F2    BCS $71A8
71B6: EE C3 B8 INC $B8C3
71B9: 60       RTS
71BA: A2 00    LDX #$00
71BC: 18       CLC
71BD: 8A       TXA
71BE: 48       PHA
71BF: 69 05    ADC #$05
71C1: 4A       LSR
71C2: A8       TAY
71C3: 8A       TXA
71C4: 4A       LSR
71C5: AA       TAX
71C6: B0 29    BCS $71F1
71C8: A9 00    LDA #$00
71CA: 9D 2B B9 STA $B92B,X
71CD: 9D 38 B9 STA $B938,X
71D0: A9 0F    LDA #$0F
71D2: 39 2B B9 AND $B92B,Y
71D5: 0A       ASL
71D6: 0A       ASL
71D7: 0A       ASL
71D8: 0A       ASL
71D9: 1D 2B B9 ORA $B92B,X
71DC: 9D 2B B9 STA $B92B,X
71DF: A9 0F    LDA #$0F
71E1: 39 38 B9 AND $B938,Y
71E4: 0A       ASL
71E5: 0A       ASL
71E6: 0A       ASL
71E7: 0A       ASL
71E8: 1D 38 B9 ORA $B938,X
71EB: 9D 38 B9 STA $B938,X
71EE: 4C 0F 72 JMP $720F
71F1: A9 F0    LDA #$F0
71F3: 39 2B B9 AND $B92B,Y
71F6: 4A       LSR
71F7: 4A       LSR
71F8: 4A       LSR
71F9: 4A       LSR
71FA: 1D 2B B9 ORA $B92B,X
71FD: 9D 2B B9 STA $B92B,X
7200: A9 F0    LDA #$F0
7202: 39 38 B9 AND $B938,Y
7205: 4A       LSR
7206: 4A       LSR
7207: 4A       LSR
7208: 4A       LSR
7209: 1D 38 B9 ORA $B938,X
720C: 9D 38 B9 STA $B938,X
720F: 68       PLA
7210: AA       TAX
7211: E8       INX
7212: E0 14    CPX #$14
7214: 90 A7    BCC $71BD
7216: A9 00    LDA #$00
7218: A2 0A    LDX #$0A
721A: 9D 2B B9 STA $B92B,X
721D: 9D 38 B9 STA $B938,X
7220: E8       INX
7221: 9D 2B B9 STA $B92B,X
7224: 9D 38 B9 STA $B938,X
7227: E8       INX
7228: 9D 2B B9 STA $B92B,X
722B: 60       RTS

722C: A0 2E    LDY #$2E
722E: A9 00    LDA #$00
7230: 99 29 B8 STA $B829,Y
7233: 88       DEY
7234: 10 FA    BPL $7230

7236: A0 5E    LDY #$5E
7238: A9 00    LDA #$00
723A: 99 58 B8 STA $B858,Y
723D: 88       DEY
723E: 10 FA    BPL $723A
7240: 8D C2 B8 STA $B8C2
7243: 8D C3 B8 STA $B8C3
7246: 60       RTS

7247: C9 61    CMP #$61
7249: 90 06    BCC $7251
724B: C9 7B    CMP #$7B
724D: B0 02    BCS $7251
724F: 49 20    EOR #$20
7251: 60       RTS

7252: .dw $02C0, $02d4, $02e8, $02fc, $0310

725C: D3       ??
725D: 02       ??
725E: E7       ??
725F: 02       ??
7260: FB       ??
7261: 02       ??
7262: 0F       ??
7263: 03       ??
7264: 23       ??
7265: 03       ??

7266: 00 01 02 INT $0201
7269: FF       ??
726A: 09 6A    ORA #$6A
726C: A0 71    LDY #$71
726E: 9A       TXS
726F: 71 87    ADC ($87),Y
7271: 71 D0    ADC ($D0),Y
7273: 16 A2    ASL $A2,X
7275: 0F       ??

7276: AC D4 B8 LDY $B8D4
7279: D0 03    BNE $727E
727B: 4C 9F 67 JMP $679F
727E: AD D3 B8 LDA $B8D3
7281: 85 5E    STA $5E
7283: 84 5F    STY $5F
7285: A9 FF    LDA #$FF
7287: 8D 15 B8 STA $B815
728A: 4C F1 60 JMP $60F1
728D: 4C 42 77 JMP $7742
7290: 4C 42 77 JMP $7742

; ($BA8D, $BA8E) 是 .BAS 文件内容的结束地址+1
7293: AD 8D BA LDA $BA8D
7296: 8D C9 B8 STA $B8C9
7299: 8D C7 B8 STA $B8C7
729C: AD 8E BA LDA $BA8E
729F: 8D CA B8 STA $B8CA
72A2: 8D C8 B8 STA $B8C8
72A5: 60       RTS

72A6: 20 EE 72 JSR $72EE  ; decrement $54,$55
72A9: A9 00    LDA #$00
72AB: 8D 68 B9 STA $B968
72AE: D0 1B    BNE $72CB  ; never branches

72B0: 20 4A 68 JSR $684A  ; close all files opened by OPEN
72B3: 20 CC 72 JSR $72CC
72B6: A2 49    LDX #$49
72B8: 86 42    STX $42
72BA: 68       PLA
72BB: A8       TAY
72BC: 68       PLA
72BD: A2 F8    LDX #$F8
72BF: 9A       TXS
72C0: 48       PHA
72C1: 98       TYA
72C2: 48       PHA
72C3: A9 00    LDA #$00
72C5: 8D D4 B8 STA $B8D4
72C8: 8D 0B B8 STA $B80B
72CB: 60       RTS

72CC: AD D1 B8 LDA $B8D1
72CF: AC D2 B8 LDY $B8D2
72D2: 8D CF B8 STA $B8CF
72D5: 8C D0 B8 STY $B8D0
72D8: AD C9 B8 LDA $B8C9
72DB: AC CA B8 LDY $B8CA
72DE: 8D CD B8 STA $B8CD
72E1: 8C CE B8 STY $B8CE
72E4: 8D CB B8 STA $B8CB
72E7: 8C CC B8 STY $B8CC
72EA: 38       SEC
72EB: 4C CC 74 JMP $74CC

; decrement $54,$55
72EE: 18       CLC
72EF: A5 54    LDA $54
72F1: 69 FF    ADC #$FF
72F3: 85 5E    STA $5E
72F5: A5 55    LDA $55
72F7: 69 FF    ADC #$FF
72F9: 85 5F    STA $5F
72FB: 60       RTS

72FC: 4C 42 77 JMP $7742

72FF: AE C6 B8 LDX $B8C6
7302: 48       PHA
7303: 68       PLA
7304: 10 05    BPL $730B
7306: E0 5D    CPX #$5D
7308: 90 06    BCC $7310
730A: 60       RTS

730B: E0 5E    CPX #$5E
730D: 90 01    BCC $7310
730F: 60       RTS

7310: 9D 58 B8 STA $B858,X
7313: EE C6 B8 INC $B8C6
7316: EE C3 B8 INC $B8C3
7319: 60       RTS

731A: AE C6 B8 LDX $B8C6
731D: 9D 99 B9 STA $B999,X
7320: EE C6 B8 INC $B8C6
7323: EE C3 B8 INC $B8C3
7326: 60       RTS
7327: 68       PLA
7328: 68       PLA
7329: A9 04    LDA #$04
732B: 20 5F 67 JSR $675F
732E: AD 55 B9 LDA $B955
7331: 48       PHA
7332: AD 56 B9 LDA $B956
7335: 48       PHA
7336: A5 5E    LDA $5E
7338: 48       PHA
7339: A5 5F    LDA $5F
733B: 48       PHA
733C: AD 14 B8 LDA $B814
733F: 48       PHA
7340: AD 15 B8 LDA $B815
7343: 48       PHA
7344: A9 BB    LDA #$BB
7346: 48       PHA
7347: 20 7A 9B JSR $9B7A
734A: A5 6F    LDA $6F
734C: F0 03    BEQ $7351
734E: 4C B7 73 JMP $73B7
7351: 68       PLA
7352: 68       PLA
7353: 68       PLA
7354: 68       PLA
7355: 68       PLA
7356: 68       PLA
7357: 68       PLA
7358: A9 00    LDA #$00
735A: 85 80    STA $80
735C: 20 76 76 JSR $7676
735F: 48       PHA
7360: 20 63 76 JSR $7663
7363: 68       PLA
7364: D0 37    BNE $739D
7366: A0 02    LDY #$02
7368: B1 5E    LDA ($5E),Y
736A: D0 1A    BNE $7386
736C: 2C 4E B9 BIT $B94E
736F: 18       CLC
7370: 70 03    BVS $7375
7372: 4C 29 75 JMP $7529
7375: 20 57 66 JSR $6657
7378: 20 7C 68 JSR $687C
737B: A9 00    LDA #$00
737D: 85 5E    STA $5E
737F: A9 20    LDA #$20
7381: 85 5F    STA $5F
7383: 4C 66 73 JMP $7366
7386: C8       INY
7387: B1 5E    LDA ($5E),Y
7389: 8D 14 B8 STA $B814
738C: C8       INY
738D: B1 5E    LDA ($5E),Y
738F: 8D 15 B8 STA $B815
7392: 98       TYA
7393: A9 04    LDA #$04
7395: 65 5E    ADC $5E
7397: 85 5E    STA $5E
7399: 90 02    BCC $739D
739B: E6 5F    INC $5F
739D: 20 34 66 JSR $6634
73A0: C9 BB    CMP #$BB
73A2: F0 07    BEQ $73AB
73A4: C9 BC    CMP #$BC
73A6: F0 08    BEQ $73B0
73A8: 4C 5C 73 JMP $735C
73AB: E6 80    INC $80
73AD: 4C 5C 73 JMP $735C
73B0: C6 80    DEC $80
73B2: 10 A8    BPL $735C
73B4: 20 34 66 JSR $6634
73B7: 4C F1 60 JMP $60F1
73BA: BA       TSX
73BB: E8       INX
73BC: E8       INX
73BD: BD 01 01 LDA $0101,X
73C0: C9 BB    CMP #$BB
73C2: F0 23    BEQ $73E7
73C4: C9 81    CMP #$81
73C6: D0 0C    BNE $73D4
73C8: 8A       TXA
73C9: 18       CLC
73CA: 69 14    ADC #$14
73CC: 90 03    BCC $73D1
73CE: 4C FD 9C JMP $9CFD
73D1: AA       TAX
73D2: D0 E9    BNE $73BD
73D4: C9 91    CMP #$91
73D6: F0 03    BEQ $73DB
73D8: 4C FD 9C JMP $9CFD
73DB: 8A       TXA
73DC: 18       CLC
73DD: 69 07    ADC #$07
73DF: 90 03    BCC $73E4
73E1: 4C FD 9C JMP $9CFD
73E4: AA       TAX
73E5: D0 D6    BNE $73BD
73E7: 9A       TXS
73E8: BD 02 01 LDA $0102,X
73EB: 8D 15 B8 STA $B815
73EE: BD 03 01 LDA $0103,X
73F1: 8D 14 B8 STA $B814
73F4: BD 04 01 LDA $0104,X
73F7: 85 5F    STA $5F
73F9: BD 05 01 LDA $0105,X
73FC: 85 5E    STA $5E
73FE: 2C 4E B9 BIT $B94E
7401: 10 1D    BPL $7420
7403: BD 06 01 LDA $0106,X
7406: A8       TAY
7407: BD 07 01 LDA $0107,X
740A: CC 56 B9 CPY $B956
740D: D0 05    BNE $7414
740F: CD 55 B9 CMP $B955
7412: F0 0C    BEQ $7420
7414: 8D 57 B9 STA $B957
7417: 8C 58 B9 STY $B958
741A: 20 57 66 JSR $6657
741D: 20 7C 68 JSR $687C
7420: 4C 47 73 JMP $7347

; FOR statement
7423: A9 80    LDA #$80
7425: 8D 0B B8 STA $B80B
7428: 20 BC 77 JSR $77BC  ; assignment
742B: 20 D8 66 JSR $66D8  ; find `for` block on stack
742E: D0 05    BNE $7435  ; branch if not found
7430: 8A       TXA
7431: 69 11    ADC #$11
7433: AA       TAX
7434: 9A       TXS  ; pop the existing identical FOR loop, and all WHILE loops and
                    ; GOSUBs above it.
7435: 68       PLA
7436: 68       PLA
7437: A9 0A    LDA #$0A
7439: 20 5F 67 JSR $675F  ; check out of memory error
743C: 20 76 76 JSR $7676  ; Y = offset of next unquoted ':' or $00
743F: AD 55 B9 LDA $B955
7442: 48       PHA
7443: AD 56 B9 LDA $B956
7446: 48       PHA
7447: 18       CLC
7448: 98       TYA
7449: 65 5E    ADC $5E
744B: 48       PHA
744C: A5 5F    LDA $5F
744E: 69 00    ADC #$00
7450: 48       PHA
7451: AD 14 B8 LDA $B814
7454: 48       PHA
7455: AD 15 B8 LDA $B815
7458: 48       PHA
7459: A9 C1    LDA #$C1
745B: 20 F4 9C JSR $9CF4  ; assert token 'to'
745E: 20 2F 7D JSR $7D2F  ; assert variable is number (always float)
7461: 20 2C 7D JSR $7D2C  ; evaluate expression and assert result is number
                          ; (float or int)
7464: A5 74    LDA $74
7466: 09 7F    ORA #$7F
7468: 25 70    AND $70
746A: 85 70    STA $70
746C: A9 77    LDA #$77
746E: A0 74    LDY #$74
7470: 85 44    STA $44
7472: 84 45    STY $45
7474: 4C 40 9C JMP $9C40

7477: A9 5D    LDA #$5D
7479: A0 9F    LDY #$9F
747B: 20 66 A1 JSR $A166  ; load 1 into FAC1
747E: 20 3A 66 JSR $663A  ; read a character
7481: C9 C8    CMP #$C8
7483: D0 06    BNE $748B  ; branch if token is not 'step'
7485: 20 34 66 JSR $6634
7488: 20 2C 7D JSR $7D2C  ; evaluate expression and assert result is number
748B: 20 F4 A1 JSR $A1F4  ; get sign of FAC1 in A
748E: 20 35 9C JSR $9C35  ; push FAC1 sign and FAC1
7491: A5 5C    LDA $5C
7493: 48       PHA
7494: A5 5D    LDA $5D
7496: 48       PHA
7497: A9 81    LDA #$81  ; for
7499: 48       PHA

; the loop body of FOR loop will be executed at least once.

; execute next statement
749A: 4C F1 60 JMP $60F1

749D: 2C 4E B9 BIT $B94E
74A0: 10 19    BPL $74BB

74A2: A9 00    LDA #$00
74A4: 8D 59 B9 STA $B959
74A7: 8D 5A B9 STA $B95A
74AA: 20 9B 66 JSR $669B
74AD: 20 1B 69 JSR $691B
74B0: A9 00    LDA #$00
74B2: 8D D5 B8 STA $B8D5
74B5: A9 22    LDA #$22
74B7: 8D D6 B8 STA $B8D6
74BA: 60       RTS

; store ($54,$55) minus 1 in $B8D5, $B8D6
74BB: 38       SEC
74BC: A5 54    LDA $54
74BE: E9 01    SBC #$01
74C0: A4 55    LDY $55
74C2: B0 01    BCS $74C5
74C4: 88       DEY
74C5: 8D D5 B8 STA $B8D5
74C8: 8C D6 B8 STY $B8D6
74CB: 60       RTS

74CC: B0 CF    BCS $749D
74CE: 20 78 77 JSR $7778
74D1: 2C 4E B9 BIT $B94E
74D4: 30 10    BMI $74E6
74D6: 20 0A 6A JSR $6A0A
74D9: 90 C2    BCC $749D
74DB: 38       SEC
74DC: A5 68    LDA $68
74DE: E9 01    SBC #$01
74E0: A4 69    LDY $69
74E2: B0 E1    BCS $74C5
74E4: 90 DE    BCC $74C4

74E6: 20 57 6A JSR $6A57
74E9: 4C D9 74 JMP $74D9

; if user is pressing ESC, terminate.
74EC: A5 C3    LDA $C3
74EE: C9 7B    CMP #$7B
74F0: F0 13    BEQ $7505
74F2: 60       RTS

74F3: 20 ED 69 JSR $69ED
74F6: A2 FF    LDX #$FF
74F8: 2C 10 B8 BIT $B810
74FB: 10 03    BPL $7500
74FD: 4C 63 86 JMP $8663
7500: C9 03    CMP #$03
7502: 4C 42 77 JMP $7742

; END statement
7505: 18       CLC
7506: F0 03    BEQ $750B
7508: 4C 6E 75 JMP $756E

750B: A5 5E    LDA $5E
750D: A4 5F    LDY $5F
750F: AE 15 B8 LDX $B815
7512: E8       INX
7513: F0 12    BEQ $7527
7515: 8D D3 B8 STA $B8D3
7518: 8C D4 B8 STY $B8D4
751B: AD 14 B8 LDA $B814
751E: AC 15 B8 LDY $B815
7521: 8D 16 B8 STA $B816
7524: 8C 17 B8 STY $B817
7527: 68       PLA
7528: 68       PLA

7529: A9 2E    LDA #$2E
752B: A0 66    LDY #$66
752D: 90 03    BCC $7532
752F: 4C 01 68 JMP $6801

7532: EE 15 B8 INC $B815
7535: F0 06    BEQ $753D
7537: 00 06 C0 INT $C006
753A: 20 69 88 JSR $8869
753D: A9 FF    LDA #$FF
753F: 8D 15 B8 STA $B815
7542: 20 4A 68 JSR $684A
7545: 4C 32 88 JMP $8832

7548: D0 24    BNE $756E
754A: A2 0F    LDX #$0F
754C: AC D4 B8 LDY $B8D4
754F: D0 03    BNE $7554
7551: 4C 9F 67 JMP $679F
7554: AE 15 B8 LDX $B815
7557: E8       INX
7558: F0 01    BEQ $755B
755A: 60       RTS
755B: AD D3 B8 LDA $B8D3
755E: 85 5E    STA $5E
7560: 84 5F    STY $5F
7562: AD 16 B8 LDA $B816
7565: AC 17 B8 LDY $B817
7568: 8D 14 B8 STA $B814
756B: 8C 15 B8 STY $B815
756E: 60       RTS

; RUN statement
756F: A9 00    LDA #$00
7571: 8D 15 B8 STA $B815
7574: A9 00    LDA #$00
7576: 8D 10 B8 STA $B810
7579: 20 8C 88 JSR $888C ; CLS
757C: 2C 4E B9 BIT $B94E
757F: 10 0E    BPL $758F  ; branch if file size < 8KB

7581: A9 00    LDA #$00
7583: 8D 57 B9 STA $B957
7586: 8D 58 B9 STA $B958
7589: 20 57 66 JSR $6657
758C: 20 7C 68 JSR $687C

758F: 20 A6 72 JSR $72A6
7592: 4C F1 60 JMP $60F1  ; start executing statements

; GOSUB statement
7595: A9 04    LDA #$04
7597: 20 5F 67 JSR $675F  ; make sure stack space is enough
759A: 68       PLA
759B: 68       PLA
759C: AD 55 B9 LDA $B955
759F: 48       PHA
75A0: AD 56 B9 LDA $B956
75A3: 48       PHA
75A4: A5 5E    LDA $5E
75A6: 48       PHA
75A7: A5 5F    LDA $5F
75A9: 48       PHA
75AA: AD 14 B8 LDA $B814
75AD: 48       PHA
75AE: AD 15 B8 LDA $B815
75B1: 48       PHA
75B2: A9 91    LDA #$91
75B4: 48       PHA
75B5: 20 3A 66 JSR $663A
75B8: 20 BE 75 JSR $75BE
75BB: 4C F1 60 JMP $60F1

75BE: 20 78 77 JSR $7778 ; read a line number into ($40, $41)
75C1: 20 79 76 JSR $7679 ; Y = offset of next $00
75C4: AD 15 B8 LDA $B815
75C7: C5 41    CMP $41
75C9: D0 05    BNE $75D0
75CB: AD 14 B8 LDA $B814
75CE: C5 40    CMP $40
75D0: B0 0B    BCS $75DD
75D2: 98       TYA
75D3: 38       SEC
75D4: 65 5E    ADC $5E
75D6: A6 5F    LDX $5F
75D8: 90 07    BCC $75E1
75DA: E8       INX
75DB: B0 04    BCS $75E1
75DD: A5 54    LDA $54
75DF: A6 55    LDX $55
75E1: 20 0E 6A JSR $6A0E  ; find line number
75E4: 90 3B    BCC $7621  ; report 'undefined statement' if line number is not found
75E6: A5 68    LDA $68
75E8: E9 01    SBC #$01
75EA: 85 5E    STA $5E
75EC: A5 69    LDA $69
75EE: E9 00    SBC #$00
75F0: 85 5F    STA $5F
75F2: 60       RTS

; POP statement & RETURN statement
75F3: D0 FD    BNE $75F2  ; if the token following POP / RETURN is not ':' or $00,
                          ; simply return, and the interpreter will go to $60F1,
                          ; which requires a ':' or $00, which will then report
                          ; syntax error
75F5: BA       TSX
75F6: E8       INX
75F7: E8       INX
75F8: BD 01 01 LDA $0101,X
75FB: C9 91    CMP #$91   ; gosub
75FD: F0 1A    BEQ $7619
75FF: C9 81    CMP #$81   ; for
7601: D0 09    BNE $760C
7603: 8A       TXA
7604: 18       CLC
7605: 69 14    ADC #$14
7607: B0 15    BCS $761E
7609: AA       TAX
760A: D0 EC    BNE $75F8
760C: C9 BB    CMP #$BB   ; while
760E: D0 0E    BNE $761E  ; report 'return without gosub'
7610: 8A       TXA
7611: 18       CLC
7612: 69 07    ADC #$07
7614: B0 08    BCS $761E
7616: AA       TAX
7617: D0 DF    BNE $75F8
7619: 9A       TXS
761A: C9 91    CMP #$91
761C: F0 0B    BEQ $7629
761E: A2 02    LDX #$02  ; return without gosub
7620: 2C       ; junk code BIT $07A2

7621: A2 07    LDX #$07  ; undefined statement
7623: 4C 9F 67 JMP $679F

7626: 4C FD 9C JMP $9CFD

7629: 68       PLA
762A: 68       PLA
762B: C0 16    CPY #$16   ; Y is the offset of address table for statements
762D: F0 3F    BEQ $766E  ; branch if is POP
762F: 8D 15 B8 STA $B815
7632: 68       PLA
7633: 8D 14 B8 STA $B814
7636: 68       PLA
7637: 85 5F    STA $5F
7639: 68       PLA
763A: 85 5E    STA $5E
763C: 68       PLA
763D: AA       TAX
763E: 68       PLA
763F: 2C 4E B9 BIT $B94E
7642: 10 16    BPL $765A
7644: CD 55 B9 CMP $B955
7647: D0 05    BNE $764E
7649: EC 56 B9 CPX $B956
764C: F0 0C    BEQ $765A
764E: 8D 57 B9 STA $B957
7651: 8E 58 B9 STX $B958
7654: 20 57 66 JSR $6657
7657: 20 7C 68 JSR $687C

765A: 20 60 76 JSR $7660
765D: 4C F1 60 JMP $60F1

; DATA statement
; just skip to next unquoted ':' or $00
7660: 20 76 76 JSR $7676

7663: 98       TYA
7664: 18       CLC
7665: 65 5E    ADC $5E
7667: 85 5E    STA $5E
7669: 90 02    BCC $766D
766B: E6 5F    INC $5F
766D: 60       RTS

766E: 68       PLA
766F: 68       PLA
7670: 68       PLA
7671: 68       PLA
7672: 68       PLA
7673: 4C 5A 76 JMP $765A

; find next unquoted ':' or $00
; Y = offset of next unquoted ':' or $00
7676: A2 3A    LDX #$3A ; ':'
7678: 2C    ; junk code: BIT $00A2

7679: A2 00    LDX #$00

767B: 8E 00 B8 STX $B800
767E: A0 00    LDY #$00
7680: 8C 01 B8 STY $B801
7683: AD 01 B8 LDA $B801
7686: AE 00 B8 LDX $B800
7689: 8D 00 B8 STA $B800
768C: 8E 01 B8 STX $B801
768F: B1 5E    LDA ($5E),Y
7691: F0 DA    BEQ $766D
7693: CD 01 B8 CMP $B801
7696: F0 D5    BEQ $766D
7698: C8       INY
7699: C9 22    CMP #$22 ; '"'
769B: D0 F2    BNE $768F
769D: F0 E4    BEQ $7683

769F: A2 8F    LDX #$8F
76A1: 86 81    STX $81
76A3: A2 C5    LDX #$C5
76A5: 86 83    STX $83
76A7: A2 00    LDX #$00
76A9: 86 80    STX $80
76AB: 86 82    STX $82
76AD: 86 84    STX $84
76AF: A0 00    LDY #$00
76B1: A5 81    LDA $81
76B3: A6 80    LDX $80
76B5: 85 80    STA $80
76B7: 86 81    STX $81
76B9: A5 83    LDA $83
76BB: A6 82    LDX $82
76BD: 85 82    STA $82
76BF: 86 83    STX $83
76C1: B1 5E    LDA ($5E),Y
76C3: F0 0F    BEQ $76D4
76C5: C5 80    CMP $80
76C7: F0 0C    BEQ $76D5
76C9: C5 82    CMP $82
76CB: F0 10    BEQ $76DD
76CD: C8       INY
76CE: C9 22    CMP #$22
76D0: D0 EF    BNE $76C1
76D2: F0 DD    BEQ $76B1
76D4: 60       RTS
76D5: A5 FF    LDA $FF
76D7: E6 84    INC $84
76D9: C8       INY
76DA: 4C C1 76 JMP $76C1
76DD: C8       INY
76DE: C6 84    DEC $84
76E0: 30 F2    BMI $76D4
76E2: 4C C1 76 JMP $76C1
76E5: 20 7A 9B JSR $9B7A
76E8: 20 3A 66 JSR $663A
76EB: C9 8D    CMP #$8D
76ED: F0 05    BEQ $76F4
76EF: A9 C4    LDA #$C4
76F1: 20 F4 9C JSR $9CF4
76F4: A5 6F    LDA $6F
76F6: D0 0A    BNE $7702
76F8: 20 9F 76 JSR $769F
76FB: 48       PHA
76FC: 20 63 76 JSR $7663
76FF: 68       PLA
7700: F0 3F    BEQ $7741
7702: 20 3A 66 JSR $663A
7705: B0 03    BCS $770A
7707: 4C BE 75 JMP $75BE
770A: C9 91    CMP #$91
770C: F0 0C    BEQ $771A
770E: C9 8D    CMP #$8D
7710: F0 08    BEQ $771A
7712: C9 95    CMP #$95
7714: F0 04    BEQ $771A
7716: C9 8F    CMP #$8F
7718: D0 03    BNE $771D
771A: 4C A7 61 JMP $61A7
771D: 38       SEC
771E: 20 A4 61 JSR $61A4
7721: 20 3A 66 JSR $663A
7724: C9 00    CMP #$00
7726: F0 19    BEQ $7741
7728: C9 C5    CMP #$C5
772A: F0 0F    BEQ $773B
772C: C9 3A    CMP #$3A
772E: D0 0B    BNE $773B
7730: 20 34 66 JSR $6634
7733: C9 C5    CMP #$C5
7735: F0 04    BEQ $773B
7737: 38       SEC
7738: 4C 02 77 JMP $7702
773B: 20 79 76 JSR $7679
773E: 20 63 76 JSR $7663
7741: 60       RTS

; REM statement
; just skip to next $00
7742: 20 79 76 JSR $7679  ; Y = offset of next $00
7745: D0 03    BNE $774A  ; never branches
7747: 4C 63 76 JMP $7663

774A: 20 3A 66 JSR $663A
774D: B0 03    BCS $7752
774F: 4C BE 75 JMP $75BE
7752: 4C A4 61 JMP $61A4

7755: 20 C7 85 JSR $85C7
7758: 48       PHA
7759: C9 91    CMP #$91
775B: F0 07    BEQ $7764
775D: C9 8D    CMP #$8D
775F: F0 03    BEQ $7764
7761: 4C 26 76 JMP $7626  ; report syntax error
7764: C6 73    DEC $73
7766: D0 04    BNE $776C
7768: 68       PLA
7769: 4C A7 61 JMP $61A7
776C: 20 34 66 JSR $6634
776F: 20 78 77 JSR $7778
7772: C9 2C    CMP #$2C
7774: F0 EE    BEQ $7764
7776: 68       PLA
7777: 60       RTS

; read a line number into ($40, $41)
; if no line number, ($40, $41) = 0
7778: A2 00    LDX #$00
777A: 86 40    STX $40
777C: 86 41    STX $41
777E: B0 F7    BCS $7777  ; branch if current character is not digit
7780: E9 2F    SBC #$2F
7782: 8D 00 B8 STA $B800
7785: A5 41    LDA $41
7787: 85 44    STA $44
7789: A5 41    LDA $41
778B: C9 03    CMP #$03
778D: D0 04    BNE $7793
778F: A5 40    LDA $40
7791: C9 E8    CMP #$E8
7793: B0 C8    BCS $775D  ; branch if ($40, $41) >= 1000, which means
                          ; after multiplying 10, will exceed 9999
7795: A5 40    LDA $40
7797: 0A       ASL
7798: 26 44    ROL $44
779A: 0A       ASL
779B: 26 44    ROL $44
779D: 65 40    ADC $40
779F: 85 40    STA $40
77A1: A5 44    LDA $44
77A3: 65 41    ADC $41
77A5: 85 41    STA $41
77A7: 06 40    ASL $40
77A9: 26 41    ROL $41
77AB: A5 40    LDA $40
77AD: 6D 00 B8 ADC $B800
77B0: 85 40    STA $40
77B2: 90 02    BCC $77B6
77B4: E6 41    INC $41
77B6: 20 DB 6A JSR $6ADB ; read a character
77B9: 4C 7E 77 JMP $777E

; assignment statement
77BC: 20 D8 96 JSR $96D8 ; read variable name, store its data address into $58, $59 and A, Y
77BF: 85 5C    STA $5C
77C1: 84 5D    STY $5D
77C3: A9 D1    LDA #$D1
77C5: 20 F4 9C JSR $9CF4  ; assert current character is '=' token and read a character
77C8: AD 09 B8 LDA $B809
77CB: 48       PHA
77CC: AD 08 B8 LDA $B808
77CF: 48       PHA
77D0: 20 7A 9B JSR $9B7A  ; evaluate expression
77D3: 68       PLA
77D4: 2A       ROL
77D5: 20 32 7D JSR $7D32  ; check type match
77D8: D0 18    BNE $77F2  ; branch if string
77DA: 68       PLA
77DB: 10 12    BPL $77EF  ; branch if float
77DD: 20 E3 A1 JSR $A1E3  ; round FAC1
77E0: 20 AC 98 JSR $98AC
77E3: A0 00    LDY #$00
77E5: A5 72    LDA $72
77E7: 91 5C    STA ($5C),Y
77E9: C8       INY
77EA: A5 73    LDA $73
77EC: 91 5C    STA ($5C),Y
77EE: 60       RTS

77EF: 4C 95 A1 JMP $A195

77F2: 68       PLA
77F3: A0 02    LDY #$02
77F5: B1 72    LDA ($72),Y
77F7: CD D0 B8 CMP $B8D0
77FA: 90 1A    BCC $7816
77FC: D0 08    BNE $7806
77FE: 88       DEY
77FF: B1 72    LDA ($72),Y
7801: CD CF B8 CMP $B8CF
7804: 90 10    BCC $7816
7806: A4 73    LDY $73
7808: CC CA B8 CPY $B8CA
780B: 90 09    BCC $7816
780D: D0 0E    BNE $781D
780F: A5 72    LDA $72
7811: CD C9 B8 CMP $B8C9
7814: B0 07    BCS $781D
7816: A5 72    LDA $72
7818: A4 73    LDY $73
781A: 4C 33 78 JMP $7833

781D: A0 00    LDY #$00
781F: B1 72    LDA ($72),Y  ; get string length
7821: 20 BE 7E JSR $7EBE
7824: A5 6C    LDA $6C
7826: A4 6D    LDY $6D
7828: 85 7D    STA $7D
782A: 84 7E    STY $7E
782C: 20 8A 84 JSR $848A
782F: A9 6F    LDA #$6F
7831: A0 00    LDY #$00
7833: 85 6C    STA $6C
7835: 84 6D    STY $6D
7837: 20 F0 84 JSR $84F0
783A: A0 00    LDY #$00
783C: B1 6C    LDA ($6C),Y
783E: 91 5C    STA ($5C),Y
7840: C8       INY
7841: B1 6C    LDA ($6C),Y
7843: 91 5C    STA ($5C),Y
7845: C8       INY
7846: B1 6C    LDA ($6C),Y
7848: 91 5C    STA ($5C),Y
784A: 60       RTS

784B: D0 03    BNE $7850
784D: 4C AD 78 JMP $78AD
7850: D0 03    BNE $7855
7852: 4C BA 78 JMP $78BA
7855: 48       PHA
7856: A9 00    LDA #$00
7858: 8D C6 B8 STA $B8C6
785B: 68       PLA
785C: C9 C0    CMP #$C0
785E: D0 03    BNE $7863
7860: 4C D6 78 JMP $78D6
7863: C9 C3    CMP #$C3
7865: 18       CLC
7866: D0 03    BNE $786B
7868: 4C D6 78 JMP $78D6
786B: C9 2C    CMP #$2C
786D: 18       CLC
786E: F0 4E    BEQ $78BE
7870: C9 3B    CMP #$3B
7872: F0 5C    BEQ $78D0
7874: 20 7A 9B JSR $9B7A
7877: 2C 08 B8 BIT $B808
787A: 30 06    BMI $7882
787C: 20 8E A4 JSR $A48E
787F: 20 D0 7E JSR $7ED0
7882: 20 97 79 JSR $7997
7885: 20 9C 6F JSR $6F9C
7888: 20 3A 66 JSR $663A
788B: F0 20    BEQ $78AD
788D: 08       PHP
788E: C9 2C    CMP #$2C
7890: F0 17    BEQ $78A9
7892: C9 3B    CMP #$3B
7894: F0 13    BEQ $78A9
7896: 28       PLP
7897: A5 5E    LDA $5E
7899: D0 02    BNE $789D
789B: C6 5F    DEC $5F
789D: C6 5E    DEC $5E
789F: A9 00    LDA #$00
78A1: 8D C6 B8 STA $B8C6
78A4: A2 01    LDX #$01
78A6: 4C 0C 79 JMP $790C
78A9: 28       PLP
78AA: 4C 50 78 JMP $7850
78AD: AD B4 03 LDA $03B4
78B0: F0 08    BEQ $78BA
78B2: 20 4A 6E JSR $6E4A
78B5: A9 00    LDA #$00
78B7: 8D B4 03 STA $03B4
78BA: 20 9A AD JSR $AD9A
78BD: 60       RTS
78BE: AD B4 03 LDA $03B4
78C1: F0 0D    BEQ $78D0
78C3: 20 4A 6E JSR $6E4A
78C6: A9 00    LDA #$00
78C8: 8D B4 03 STA $03B4
78CB: 20 3A 66 JSR $663A
78CE: D0 57    BNE $7927
78D0: 20 34 66 JSR $6634
78D3: 4C 50 78 JMP $7850
78D6: 08       PHP
78D7: E6 5E    INC $5E
78D9: D0 02    BNE $78DD
78DB: E6 5F    INC $5F
78DD: 20 C4 85 JSR $85C4
78E0: C9 29    CMP #$29
78E2: F0 03    BEQ $78E7
78E4: 4C FD 9C JMP $9CFD
78E7: 28       PLP
78E8: 90 22    BCC $790C
78EA: E0 15    CPX #$15
78EC: 90 03    BCC $78F1
78EE: 4C 99 99 JMP $9999
78F1: E0 00    CPX #$00
78F3: D0 03    BNE $78F8
78F5: 4C 99 99 JMP $9999
78F8: CA       DEX
78F9: 8A       TXA
78FA: EC B4 03 CPX $03B4
78FD: B0 09    BCS $7908
78FF: 69 14    ADC #$14
7901: 38       SEC
7902: ED B4 03 SBC $03B4
7905: AA       TAX
7906: D0 04    BNE $790C
7908: ED B4 03 SBC $03B4
790B: AA       TAX
790C: 8E 00 B8 STX $B800
790F: EE 00 B8 INC $B800
7912: CE 00 B8 DEC $B800
7915: F0 08    BEQ $791F
7917: A9 20    LDA #$20
7919: 20 1A 73 JSR $731A
791C: 4C 12 79 JMP $7912
791F: A9 00    LDA #$00
7921: 20 1A 73 JSR $731A
7924: 20 9C 6F JSR $6F9C
7927: 20 34 66 JSR $6634
792A: 4C 4B 78 JMP $784B

792D: 20 D0 7E JSR $7ED0
7930: 20 B6 84 JSR $84B6
7933: 8D 00 B8 STA $B800
7936: EE 00 B8 INC $B800
7939: A9 00    LDA #$00
793B: 8D 01 B8 STA $B801
793E: CE 00 B8 DEC $B800
7941: AE 00 B8 LDX $B800
7944: F0 0E    BEQ $7954
7946: AC 01 B8 LDY $B801
7949: B1 44    LDA ($44),Y
794B: 20 FF 72 JSR $72FF
794E: EE 01 B8 INC $B801
7951: 4C 3E 79 JMP $793E
7954: 60       RTS
7955: 20 B6 84 JSR $84B6
7958: 8D 00 B8 STA $B800
795B: EE 00 B8 INC $B800
795E: A9 00    LDA #$00
7960: 8D 01 B8 STA $B801
7963: CE 00 B8 DEC $B800
7966: AE 00 B8 LDX $B800
7969: F0 2B    BEQ $7996
796B: AC 01 B8 LDY $B801
796E: B1 44    LDA ($44),Y
7970: C9 1F    CMP #$1F
7972: D0 19    BNE $798D
7974: CE 00 B8 DEC $B800
7977: F0 1D    BEQ $7996
7979: C8       INY
797A: 8C 01 B8 STY $B801
797D: B1 44    LDA ($44),Y
797F: 20 FF 72 JSR $72FF
7982: CE 00 B8 DEC $B800
7985: F0 0F    BEQ $7996
7987: C8       INY
7988: 8C 01 B8 STY $B801
798B: B1 44    LDA ($44),Y
798D: 20 FF 72 JSR $72FF
7990: EE 01 B8 INC $B801
7993: 4C 63 79 JMP $7963
7996: 60       RTS
7997: 20 B6 84 JSR $84B6
799A: 8D 00 B8 STA $B800
799D: EE 00 B8 INC $B800
79A0: A9 00    LDA #$00
79A2: 8D 01 B8 STA $B801
79A5: CE 00 B8 DEC $B800
79A8: AE 00 B8 LDX $B800
79AB: F0 2B    BEQ $79D8
79AD: AC 01 B8 LDY $B801
79B0: B1 44    LDA ($44),Y
79B2: C9 1F    CMP #$1F
79B4: D0 19    BNE $79CF
79B6: CE 00 B8 DEC $B800
79B9: F0 1D    BEQ $79D8
79BB: C8       INY
79BC: 8C 01 B8 STY $B801
79BF: B1 44    LDA ($44),Y
79C1: 20 1A 73 JSR $731A
79C4: CE 00 B8 DEC $B800
79C7: F0 0F    BEQ $79D8
79C9: C8       INY
79CA: 8C 01 B8 STY $B801
79CD: B1 44    LDA ($44),Y
79CF: 20 1A 73 JSR $731A
79D2: EE 01 B8 INC $B801
79D5: 4C A5 79 JMP $79A5
79D8: A9 00    LDA #$00
79DA: 20 1A 73 JSR $731A
79DD: 60       RTS

79DE: A9 20    LDA #$20
79E0: 2C A9 3F BIT $3FA9

79E3: 4C E8 79 JMP $79E8

79E6: 29 7F    AND #$7F
79E8: 20 FF 72 JSR $72FF
79EB: 60       RTS

79EC: AD 0C B8 LDA $B80C
79EF: F0 16    BEQ $7A07
79F1: 30 04    BMI $79F7
79F3: A0 FF    LDY #$FF
79F5: D0 06    BNE $79FD
79F7: AD 18 B8 LDA $B818
79FA: AC 19 B8 LDY $B819
79FD: 8D 14 B8 STA $B814
7A00: 8C 15 B8 STY $B815
7A03: 4C FD 9C JMP $9CFD
7A06: 68       PLA
7A07: 2C 10 B8 BIT $B810
7A0A: 10 05    BPL $7A11
7A0C: A2 FE    LDX #$FE
7A0E: 4C 63 86 JMP $8663
7A11: A9 00    LDA #$00
7A13: 8D C6 B8 STA $B8C6
7A16: 8D C2 B8 STA $B8C2
7A19: 20 4A 6E JSR $6E4A
7A1C: 20 2C 72 JSR $722C
7A1F: A9 8E    LDA #$8E
7A21: A0 7C    LDY #$7C
7A23: 20 2D 79 JSR $792D
7A26: A9 00    LDA #$00
7A28: 8D 01 B8 STA $B801
7A2B: AD C3 B8 LDA $B8C3
7A2E: 8D C2 B8 STA $B8C2
7A31: 20 BE 6F JSR $6FBE
7A34: 20 2C 72 JSR $722C
7A37: 20 4A 6E JSR $6E4A
7A3A: A9 00    LDA #$00
7A3C: 8D B4 03 STA $03B4
7A3F: 20 9A AD JSR $AD9A
7A42: AD D3 B8 LDA $B8D3
7A45: AC D4 B8 LDY $B8D4
7A48: 85 5E    STA $5E
7A4A: 84 5F    STY $5F
7A4C: 60       RTS
7A4D: A0 00    LDY #$00
7A4F: B9 58 B8 LDA $B858,Y
7A52: F0 05    BEQ $7A59
7A54: C8       INY
7A55: C0 5E    CPY #$5E
7A57: 90 F6    BCC $7A4F
7A59: 60       RTS

7A5A: 8D C5 B8 STA $B8C5
7A5D: 20 36 72 JSR $7236
7A60: A9 00    LDA #$00
7A62: 8D C6 B8 STA $B8C6
7A65: AD C5 B8 LDA $B8C5
7A68: C9 23    CMP #$23  ; '#'
7A6A: D0 03    BNE $7A6F
7A6C: 4C 0C 8E JMP $8E0C
7A6F: C9 22    CMP #$22  ; '"'
7A71: D0 0E    BNE $7A81
7A73: 20 AB 9C JSR $9CAB
7A76: A9 3B    LDA #$3B  ; ';'
7A78: 20 F4 9C JSR $9CF4
7A7B: 20 55 79 JSR $7955
7A7E: 4C 84 7A JMP $7A84
7A81: 20 E1 79 JSR $79E1
7A84: 20 E5 7D JSR $7DE5
7A87: A9 00    LDA #$00
7A89: 8D 01 B8 STA $B801
7A8C: AD C3 B8 LDA $B8C3
7A8F: 8D C2 B8 STA $B8C2
7A92: 20 BE 6F JSR $6FBE
7A95: 20 9A AD JSR $AD9A
7A98: A5 5E    LDA $5E
7A9A: 48       PHA
7A9B: A5 5F    LDA $5F
7A9D: 48       PHA
7A9E: 20 D8 96 JSR $96D8
7AA1: 68       PLA
7AA2: 85 5F    STA $5F
7AA4: 68       PLA
7AA5: 85 5E    STA $5E
7AA7: 20 F1 7A JSR $7AF1
7AAA: 20 F4 6A JSR $6AF4
7AAD: A9 57    LDA #$57
7AAF: A0 B8    LDY #$B8
7AB1: 18       CLC
7AB2: 6D C1 B8 ADC $B8C1
7AB5: 90 01    BCC $7AB8
7AB7: C8       INY
7AB8: AA       TAX
7AB9: 86 6F    STX $6F
7ABB: 84 70    STY $70
7ABD: A9 3F    LDA #$3F
7ABF: A0 00    LDY #$00
7AC1: 91 6F    STA ($6F),Y
7AC3: A6 6F    LDX $6F
7AC5: A4 70    LDY $70
7AC7: AD 58 B8 LDA $B858
7ACA: C9 03    CMP #$03
7ACC: F0 03    BEQ $7AD1
7ACE: 4C 54 7B JMP $7B54
7AD1: 4C F6 74 JMP $74F6
7AD4: A2 3F    LDX #$3F
7AD6: 8E 27 B8 STX $B827
7AD9: 20 5B 71 JSR $715B
7ADC: 20 F1 7A JSR $7AF1
7ADF: 20 F4 6A JSR $6AF4
7AE2: A9 57    LDA #$57
7AE4: A0 B8    LDY #$B8
7AE6: 18       CLC
7AE7: 6D C1 B8 ADC $B8C1
7AEA: 90 01    BCC $7AED
7AEC: C8       INY
7AED: AA       TAX
7AEE: A9 00    LDA #$00
7AF0: 60       RTS
7AF1: AD 47 04 LDA $0447
7AF4: C9 02    CMP #$02
7AF6: D0 03    BNE $7AFB
7AF8: 20 F2 AC JSR $ACF2
7AFB: 2C 08 B8 BIT $B808
7AFE: 10 06    BPL $7B06
7B00: A9 00    LDA #$00
7B02: 8D 47 04 STA $0447
7B05: 60       RTS
7B06: A9 01    LDA #$01
7B08: 8D 47 04 STA $0447
7B0B: 60       RTS

; SWAP statement
7B0C: 20 D8 96 JSR $96D8  ; get first variable
7B0F: 85 5C    STA $5C
7B11: 84 5D    STY $5D
7B13: 20 36 7B JSR $7B36  ; get variable type
7B16: 84 FE    STY $FE
7B18: 20 F2 9C JSR $9CF2  ; assert token ','
7B1B: 20 D8 96 JSR $96D8  ; get second variable
7B1E: 20 36 7B JSR $7B36  ; get variable type
7B21: C4 FE    CPY $FE
7B23: F0 03    BEQ $7B28
7B25: 4C FD 9C JMP $9CFD  ; if type mismatch, report syntax error

; swap variable data
7B28: B1 58    LDA ($58),Y
7B2A: AA       TAX
7B2B: B1 5C    LDA ($5C),Y
7B2D: 91 58    STA ($58),Y
7B2F: 8A       TXA
7B30: 91 5C    STA ($5C),Y
7B32: 88       DEY
7B33: 10 F3    BPL $7B28
7B35: 60       RTS

; get variable type
7B36: AC 08 B8 LDY $B808
7B39: D0 0D    BNE $7B48
7B3B: AC 09 B8 LDY $B809
7B3E: 10 04    BPL $7B44
7B40: A0 01    LDY #$01  ; int
7B42: D0 06    BNE $7B4A
7B44: A0 04    LDY #$04  ; float
7B46: D0 02    BNE $7B4A
7B48: A0 02    LDY #$02  ; string
7B4A: 60       RTS

7B4B: AE D5 B8 LDX $B8D5
7B4E: AC D6 B8 LDY $B8D6
7B51: A9 98    LDA #$98
7B53: 2C A9 00 BIT $00A9
7B56: 8D 0C B8 STA $B80C
7B59: 86 56    STX $56
7B5B: 84 57    STY $57
7B5D: 20 D8 96 JSR $96D8
7B60: 85 5C    STA $5C
7B62: 84 5D    STY $5D
7B64: A5 5E    LDA $5E
7B66: A4 5F    LDY $5F
7B68: 8D 05 B8 STA $B805
7B6B: 8C 06 B8 STY $B806
7B6E: A6 56    LDX $56
7B70: A4 57    LDY $57
7B72: 86 5E    STX $5E
7B74: 84 5F    STY $5F
7B76: 20 3A 66 JSR $663A
7B79: D0 1F    BNE $7B9A
7B7B: 2C 0C B8 BIT $B80C
7B7E: 50 0E    BVC $7B8E
7B80: 20 19 67 JSR $6719
7B83: 29 7F    AND #$7F
7B85: 8D 58 B8 STA $B858
7B88: A2 57    LDX #$57
7B8A: A0 B8    LDY #$B8
7B8C: D0 08    BNE $7B96
7B8E: 10 03    BPL $7B93
7B90: 4C 1C 7C JMP $7C1C
7B93: 20 D4 7A JSR $7AD4
7B96: 86 5E    STX $5E
7B98: 84 5F    STY $5F
7B9A: 20 34 66 JSR $6634
7B9D: 2C 08 B8 BIT $B808
7BA0: 10 36    BPL $7BD8
7BA2: 2C 0C B8 BIT $B80C
7BA5: 50 0A    BVC $7BB1
7BA7: E8       INX
7BA8: 86 5E    STX $5E
7BAA: A9 00    LDA #$00
7BAC: 8D 00 B8 STA $B800
7BAF: F0 0E    BEQ $7BBF
7BB1: 8D 00 B8 STA $B800
7BB4: C9 22    CMP #$22
7BB6: F0 08    BEQ $7BC0
7BB8: A9 3A    LDA #$3A
7BBA: 8D 00 B8 STA $B800
7BBD: A9 2C    LDA #$2C
7BBF: 18       CLC
7BC0: 8D 01 B8 STA $B801
7BC3: A5 5E    LDA $5E
7BC5: A4 5F    LDY $5F
7BC7: 69 00    ADC #$00
7BC9: 90 01    BCC $7BCC
7BCB: C8       INY
7BCC: 20 D8 7E JSR $7ED8
7BCF: 20 02 86 JSR $8602
7BD2: 20 F3 77 JSR $77F3
7BD5: 4C E8 7B JMP $7BE8
7BD8: 48       PHA
7BD9: AD 58 B8 LDA $B858
7BDC: F0 36    BEQ $7C14
7BDE: 68       PLA
7BDF: 20 93 A3 JSR $A393
7BE2: AD 09 B8 LDA $B809
7BE5: 20 DB 77 JSR $77DB
7BE8: 20 3A 66 JSR $663A
7BEB: F0 07    BEQ $7BF4
7BED: C9 2C    CMP #$2C
7BEF: F0 03    BEQ $7BF4
7BF1: 4C EC 79 JMP $79EC
7BF4: A5 5E    LDA $5E
7BF6: A4 5F    LDY $5F
7BF8: 85 56    STA $56
7BFA: 84 57    STY $57
7BFC: AD 05 B8 LDA $B805
7BFF: AC 06 B8 LDY $B806
7C02: 85 5E    STA $5E
7C04: 84 5F    STY $5F
7C06: 20 3A 66 JSR $663A
7C09: D0 03    BNE $7C0E
7C0B: 4C 65 7C JMP $7C65
7C0E: 20 F2 9C JSR $9CF2
7C11: 4C 5D 7B JMP $7B5D
7C14: AD 0C B8 LDA $B80C
7C17: D0 C5    BNE $7BDE
7C19: 4C 06 7A JMP $7A06
7C1C: 20 76 76 JSR $7676
7C1F: C8       INY
7C20: AA       TAX
7C21: D0 35    BNE $7C58
7C23: A2 03    LDX #$03
7C25: C8       INY
7C26: B1 5E    LDA ($5E),Y
7C28: D0 21    BNE $7C4B
7C2A: 2C 4E B9 BIT $B94E
7C2D: 30 03    BMI $7C32
7C2F: 4C 3E 7D JMP $7D3E
7C32: 2C 5B B9 BIT $B95B
7C35: 10 03    BPL $7C3A
7C37: 4C 3E 7D JMP $7D3E
7C3A: 20 9B 66 JSR $669B
7C3D: 20 1B 69 JSR $691B
7C40: A9 00    LDA #$00
7C42: 85 5E    STA $5E
7C44: A9 22    LDA #$22
7C46: 85 5F    STA $5F
7C48: 4C 1C 7C JMP $7C1C
7C4B: C8       INY
7C4C: B1 5E    LDA ($5E),Y
7C4E: 8D 18 B8 STA $B818
7C51: C8       INY
7C52: B1 5E    LDA ($5E),Y
7C54: C8       INY
7C55: 8D 19 B8 STA $B819
7C58: B1 5E    LDA ($5E),Y
7C5A: AA       TAX
7C5B: 20 63 76 JSR $7663
7C5E: E0 83    CPX #$83
7C60: D0 BA    BNE $7C1C
7C62: 4C 9A 7B JMP $7B9A
7C65: A5 56    LDA $56
7C67: A4 57    LDY $57
7C69: AE 0C B8 LDX $B80C
7C6C: 10 03    BPL $7C71
7C6E: 4C C5 74 JMP $74C5
7C71: A0 00    LDY #$00
7C73: B1 56    LDA ($56),Y
7C75: F0 07    BEQ $7C7E
7C77: A9 7F    LDA #$7F
7C79: A0 7C    LDY #$7C
7C7B: 4C 2D 79 JMP $792D
7C7E: 60       RTS

7C7F: 3F       ??
7C80: 45 58    EOR $58
7C82: 54       ??
7C83: 52       ??
7C84: 41 20    EOR ($20,X)
7C86: 49 47    EOR #$47
7C88: 4E 4F 52 LSR $524F
7C8B: 45 44    EOR $44
7C8D: 00 3F 52 INT $523F
7C90: 45 45    EOR $45
7C92: 4E 54 45 LSR $4554
7C95: 52       ??
7C96: 00

; NEXT statement
7C97: D0 04    BNE $7C9D
7C99: A0 00    LDY #$00
7C9B: F0 03    BEQ $7CA0

7C9D: 20 D8 96 JSR $96D8 ; read a variable and its data pointer
7CA0: 85 5C    STA $5C
7CA2: 84 5D    STY $5D
7CA4: 20 D8 66 JSR $66D8 ; search for FOR loop in stack
7CA7: F0 07    BEQ $7CB0
7CA9: A2 00    LDX #$00  ; next without for
7CAB: D0 03    BNE $7CB0 ; never branches
7CAD: 4C 3E 7D JMP $7D3E

7CB0: 9A       TXS
7CB1: E8       INX
7CB2: E8       INX
7CB3: E8       INX
7CB4: E8       INX
7CB5: 8A       TXA
7CB6: E8       INX
7CB7: E8       INX
7CB8: E8       INX
7CB9: E8       INX
7CBA: E8       INX
7CBB: E8       INX
7CBC: 86 46    STX $46
7CBE: A0 01    LDY #$01
7CC0: 20 66 A1 JSR $A166  ; unpack step number into FAC1
7CC3: BA       TSX
7CC4: BD 09 01 LDA $0109,X  ; get sign of step number
7CC7: 85 74    STA $74
7CC9: A5 5C    LDA $5C
7CCB: A4 5D    LDY $5D
7CCD: 20 AD 9D JSR $9DAD  ; add float (A, Y) to FAC1
7CD0: 20 95 A1 JSR $A195  ; store FAC1 into loop variable
7CD3: A0 01    LDY #$01
7CD5: 20 3C A2 JSR $A23C  ; compare FAC1 with loop end number
7CD8: BA       TSX
7CD9: 38       SEC
7CDA: FD 09 01 SBC $0109,X
7CDD: F0 3B    BEQ $7D1A  ; FOR loop is end
7CDF: BD 10 01 LDA $0110,X
7CE2: 8D 14 B8 STA $B814
7CE5: BD 0F 01 LDA $010F,X
7CE8: 8D 15 B8 STA $B815
7CEB: BD 12 01 LDA $0112,X
7CEE: 85 5E    STA $5E
7CF0: BD 11 01 LDA $0111,X
7CF3: 85 5F    STA $5F
7CF5: 2C 4E B9 BIT $B94E
7CF8: 10 1D    BPL $7D17
7CFA: BD 14 01 LDA $0114,X
7CFD: A8       TAY
7CFE: BD 13 01 LDA $0113,X
7D01: CC 55 B9 CPY $B955
7D04: D0 05    BNE $7D0B
7D06: CD 56 B9 CMP $B956
7D09: F0 0C    BEQ $7D17
7D0B: 8C 57 B9 STY $B957
7D0E: 8D 58 B9 STA $B958
7D11: 20 57 66 JSR $6657
7D14: 20 7C 68 JSR $687C
7D17: 4C F1 60 JMP $60F1

7D1A: 8A       TXA
7D1B: 69 13    ADC #$13
7D1D: AA       TAX
7D1E: 9A       TXS
7D1F: 20 3A 66 JSR $663A
7D22: C9 2C    CMP #$2C  ; ','
7D24: D0 F1    BNE $7D17
7D26: 20 34 66 JSR $6634
7D29: 20 9D 7C JSR $7C9D  ; NEXT A, B, ...
                          ; NEXT statement will pop return address of this JSR,
                          ; so will not fall through

; evaluate expression and assert result is number (float or int)
7D2C: 20 7A 9B JSR $9B7A  ; evaluate expression

7D2F: 18       CLC
7D30: 24       ; junk code  BIT $38

7D31: 38       SEC

; C = 0  expected number,  = 1  expected string
7D32: 2C 08 B8 BIT $B808
7D35: 30 03    BMI $7D3A
7D37: B0 03    BCS $7D3C
7D39: 60       RTS

7D3A: B0 FD    BCS $7D39
7D3C: A2 0C    LDX #$0C  ; type mismatch error
7D3E: 4C 9F 67 JMP $679F

7D41: A5 77    LDA $77
7D43: 05 6F    ORA $6F
7D45: D0 0B    BNE $7D52
7D47: A5 77    LDA $77
7D49: F0 04    BEQ $7D4F
7D4B: A5 6F    LDA $6F
7D4D: D0 03    BNE $7D52
7D4F: A0 00    LDY #$00
7D51: 2C A0 01 BIT $01A0
7D54: 4C E0 7D JMP $7DE0
7D57: 20 32 7D JSR $7D32
7D5A: B0 13    BCS $7D6F
7D5C: A5 7C    LDA $7C
7D5E: 09 7F    ORA #$7F
7D60: 25 78    AND $78
7D62: 85 78    STA $78
7D64: A9 77    LDA #$77
7D66: A0 00    LDY #$00
7D68: 20 3A A2 JSR $A23A
7D6B: AA       TAX
7D6C: 4C A4 7D JMP $7DA4
7D6F: A9 00    LDA #$00
7D71: 8D 08 B8 STA $B808
7D74: CE 03 B8 DEC $B803
7D77: 20 B6 84 JSR $84B6
7D7A: 85 6F    STA $6F
7D7C: 86 70    STX $70
7D7E: 84 71    STY $71
7D80: A5 7A    LDA $7A
7D82: A4 7B    LDY $7B
7D84: 20 BA 84 JSR $84BA
7D87: 86 7A    STX $7A
7D89: 84 7B    STY $7B
7D8B: AA       TAX
7D8C: 38       SEC
7D8D: E5 6F    SBC $6F
7D8F: F0 08    BEQ $7D99
7D91: A9 01    LDA #$01
7D93: 90 04    BCC $7D99
7D95: A6 6F    LDX $6F
7D97: A9 FF    LDA #$FF
7D99: 85 74    STA $74
7D9B: A0 FF    LDY #$FF
7D9D: E8       INX
7D9E: C8       INY
7D9F: CA       DEX
7DA0: D0 07    BNE $7DA9
7DA2: A6 74    LDX $74
7DA4: 30 0F    BMI $7DB5
7DA6: 18       CLC
7DA7: 90 0C    BCC $7DB5
7DA9: B1 70    LDA ($70),Y
7DAB: D1 7A    CMP ($7A),Y
7DAD: F0 EF    BEQ $7D9E
7DAF: A2 FF    LDX #$FF
7DB1: B0 02    BCS $7DB5
7DB3: A2 01    LDX #$01
7DB5: E8       INX
7DB6: 8A       TXA
7DB7: 2A       ROL
7DB8: 2D 0D B8 AND $B80D
7DBB: F0 02    BEQ $7DBF
7DBD: A9 01    LDA #$01
7DBF: 4C 05 A2 JMP $A205
7DC2: 20 F2 9C JSR $9CF2

; DIM statement
7DC5: AA       TAX
7DC6: 20 DB 96 JSR $96DB
7DC9: 20 3A 66 JSR $663A
7DCC: D0 F4    BNE $7DC2
7DCE: 60       RTS

; convert integer to float
7DCF: A2 00    LDX #$00
7DD1: 8E 08 B8 STX $B808  ; clear type flag
7DD4: 85 70    STA $70  ; mantissa 1
7DD6: 84 71    STY $71  ; mantissa 2
7DD8: A2 90    LDX #$90 ; exponent = $90 (+16)
7DDA: 4C 0D A2 JMP $A20D ; do ABS and normalize FAC1

; POS function
7DDD: AC B4 03 LDY $03B4
7DE0: A9 00    LDA #$00
7DE2: 38       SEC
7DE3: F0 EA    BEQ $7DCF

7DE5: AE 15 B8 LDX $B815
7DE8: E8       INX
7DE9: D0 E3    BNE $7DCE
7DEB: A2 0B    LDX #$0B
7DED: 2C A2 10 BIT $10A2
7DF0: 4C 9F 67 JMP $679F
7DF3: AE 15 B8 LDX $B815
7DF6: E8       INX
7DF7: D0 F2    BNE $7DEB
7DF9: 60       RTS

; DEF statement
7DFA: 20 29 7E JSR $7E29
7DFD: 20 E5 7D JSR $7DE5
7E00: 20 EF 9C JSR $9CEF
7E03: A9 80    LDA #$80
7E05: 8D 0B B8 STA $B80B
7E08: 20 D8 96 JSR $96D8
7E0B: 20 2F 7D JSR $7D2F
7E0E: 20 EC 9C JSR $9CEC
7E11: A9 D1    LDA #$D1
7E13: 20 F4 9C JSR $9CF4
7E16: 48       PHA
7E17: A5 59    LDA $59
7E19: 48       PHA
7E1A: A5 58    LDA $58
7E1C: 48       PHA
7E1D: A5 5F    LDA $5F
7E1F: 48       PHA
7E20: A5 5E    LDA $5E
7E22: 48       PHA
7E23: 20 60 76 JSR $7660
7E26: 4C 98 7E JMP $7E98

7E29: A9 C2    LDA #$C2
7E2B: 20 F4 9C JSR $9CF4
7E2E: 09 80    ORA #$80
7E30: 8D 0B B8 STA $B80B
7E33: 20 DE 96 JSR $96DE
7E36: 85 6A    STA $6A
7E38: 84 6B    STY $6B
7E3A: 4C 2F 7D JMP $7D2F
7E3D: 20 29 7E JSR $7E29
7E40: A5 6A    LDA $6A
7E42: 48       PHA
7E43: A5 6B    LDA $6B
7E45: 48       PHA
7E46: 20 E6 9C JSR $9CE6
7E49: 20 2F 7D JSR $7D2F
7E4C: 68       PLA
7E4D: 85 6B    STA $6B
7E4F: 68       PLA
7E50: 85 6A    STA $6A
7E52: A0 02    LDY #$02
7E54: B1 6A    LDA ($6A),Y
7E56: 85 58    STA $58
7E58: AA       TAX
7E59: C8       INY
7E5A: B1 6A    LDA ($6A),Y
7E5C: F0 90    BEQ $7DEE
7E5E: 85 59    STA $59
7E60: C8       INY
7E61: B1 58    LDA ($58),Y
7E63: 48       PHA
7E64: 88       DEY
7E65: 10 FA    BPL $7E61
7E67: A4 59    LDY $59
7E69: 20 99 A1 JSR $A199
7E6C: A5 5E    LDA $5E
7E6E: 48       PHA
7E6F: A5 5F    LDA $5F
7E71: 48       PHA
7E72: B1 6A    LDA ($6A),Y
7E74: 85 5E    STA $5E
7E76: C8       INY
7E77: B1 6A    LDA ($6A),Y
7E79: 85 5F    STA $5F
7E7B: A5 58    LDA $58
7E7D: 48       PHA
7E7E: A5 59    LDA $59
7E80: 48       PHA
7E81: 20 2C 7D JSR $7D2C
7E84: 68       PLA
7E85: 85 6B    STA $6B
7E87: 68       PLA
7E88: 85 6A    STA $6A
7E8A: 20 3A 66 JSR $663A
7E8D: F0 03    BEQ $7E92
7E8F: 4C FD 9C JMP $9CFD
7E92: 68       PLA
7E93: 85 5F    STA $5F
7E95: 68       PLA
7E96: 85 5E    STA $5E
7E98: A0 00    LDY #$00
7E9A: 68       PLA
7E9B: 91 6A    STA ($6A),Y
7E9D: 68       PLA
7E9E: C8       INY
7E9F: 91 6A    STA ($6A),Y
7EA1: 68       PLA
7EA2: C8       INY
7EA3: 91 6A    STA ($6A),Y
7EA5: 68       PLA
7EA6: C8       INY
7EA7: 91 6A    STA ($6A),Y
7EA9: 68       PLA
7EAA: C8       INY
7EAB: 91 6A    STA ($6A),Y
7EAD: 60       RTS

7EAE: 20 2F 7D JSR $7D2F
7EB1: 20 8E A4 JSR $A48E
7EB4: 68       PLA
7EB5: 68       PLA
7EB6: A9 99    LDA #$99
7EB8: A0 B9    LDY #$B9
7EBA: 20 D0 7E JSR $7ED0
7EBD: 60       RTS

7EBE: A6 72    LDX $72
7EC0: A4 73    LDY $73
7EC2: 86 6C    STX $6C
7EC4: 84 6D    STY $6D

7EC6: 20 38 7F JSR $7F38
7EC9: 86 70    STX $70
7ECB: 84 71    STY $71
7ECD: 85 6F    STA $6F
7ECF: 60       RTS

; get description of string into float accum
7ED0: A2 22    LDX #$22 ; '"'
7ED2: 8E 00 B8 STX $B800
7ED5: 8E 01 B8 STX $B801
7ED8: 85 7D    STA $7D
7EDA: 84 7E    STY $7E
7EDC: 85 70    STA $70
7EDE: 84 71    STY $71
7EE0: A0 FF    LDY #$FF
7EE2: C8       INY
7EE3: B1 7D    LDA ($7D),Y
7EE5: F0 0E    BEQ $7EF5
7EE7: CD 00 B8 CMP $B800
7EEA: F0 05    BEQ $7EF1
7EEC: CD 01 B8 CMP $B801
7EEF: D0 F1    BNE $7EE2
7EF1: C9 22    CMP #$22
7EF3: F0 01    BEQ $7EF6
7EF5: 18       CLC
7EF6: 84 6F    STY $6F
7EF8: 98       TYA
7EF9: 65 7D    ADC $7D
7EFB: 85 52    STA $52
7EFD: A6 7E    LDX $7E
7EFF: 90 01    BCC $7F02
7F01: E8       INX
7F02: 86 53    STX $53
7F04: 98       TYA
7F05: 20 BE 7E JSR $7EBE
7F08: A6 7D    LDX $7D
7F0A: A4 7E    LDY $7E
7F0C: 20 98 84 JSR $8498
7F0F: A6 42    LDX $42
7F11: E0 52    CPX #$52
7F13: D0 05    BNE $7F1A
7F15: A2 0E    LDX #$0E
7F17: 4C 9F 67 JMP $679F
7F1A: A5 6F    LDA $6F
7F1C: 95 00    STA $00,X
7F1E: A5 70    LDA $70
7F20: 95 01    STA $01,X
7F22: A5 71    LDA $71
7F24: 95 02    STA $02,X
7F26: A0 00    LDY #$00
7F28: 86 72    STX $72
7F2A: 84 73    STY $73
7F2C: 88       DEY
7F2D: 8C 08 B8 STY $B808
7F30: 86 43    STX $43
7F32: E8       INX
7F33: E8       INX
7F34: E8       INX
7F35: 86 42    STX $42
7F37: 60       RTS

7F38: 4E 0A B8 LSR $B80A
7F3B: 48       PHA
7F3C: 49 FF    EOR #$FF
7F3E: 38       SEC
7F3F: 6D CF B8 ADC $B8CF
7F42: AC D0 B8 LDY $B8D0
7F45: B0 01    BCS $7F48
7F47: 88       DEY
7F48: CC CC B8 CPY $B8CC
7F4B: 90 14    BCC $7F61
7F4D: D0 05    BNE $7F54
7F4F: CD CB B8 CMP $B8CB
7F52: 90 0D    BCC $7F61
7F54: 8D CF B8 STA $B8CF
7F57: 8C D0 B8 STY $B8D0
7F5A: 85 FE    STA $FE
7F5C: 84 FF    STY $FF
7F5E: AA       TAX
7F5F: 68       PLA
7F60: 60       RTS
7F61: A2 06    LDX #$06
7F63: AD 0A B8 LDA $B80A
7F66: 10 03    BPL $7F6B
7F68: 4C 9F 67 JMP $679F
7F6B: 20 76 7F JSR $7F76
7F6E: A9 80    LDA #$80
7F70: 8D 0A B8 STA $B80A
7F73: 68       PLA
7F74: D0 C5    BNE $7F3B
7F76: AE D1 B8 LDX $B8D1
7F79: AD D2 B8 LDA $B8D2
7F7C: 8E CF B8 STX $B8CF
7F7F: 8D D0 B8 STA $B8D0
7F82: A0 00    LDY #$00
7F84: 84 6B    STY $6B
7F86: AD CB B8 LDA $B8CB
7F89: AE CC B8 LDX $B8CC
7F8C: 85 68    STA $68
7F8E: 86 69    STX $69
7F90: A9 49    LDA #$49
7F92: A2 00    LDX #$00
7F94: 85 44    STA $44
7F96: 86 45    STX $45
7F98: C5 42    CMP $42
7F9A: F0 58    BEQ $7FF4
7F9C: A9 00    LDA #$00
7F9E: 8D 04 B8 STA $B804
7FA1: 20 88 80 JSR $8088
7FA4: F0 F2    BEQ $7F98
7FA6: A9 FF    LDA #$FF
7FA8: 8D 00 B8 STA $B800
7FAB: EE 00 B8 INC $B800
7FAE: AD 00 B8 LDA $B800
7FB1: C9 03    CMP #$03
7FB3: F0 3F    BEQ $7FF4
7FB5: 0A       ASL
7FB6: 6D 00 B8 ADC $B800
7FB9: A8       TAY
7FBA: B9 01 B9 LDA $B901,Y
7FBD: F0 EC    BEQ $7FAB
7FBF: C8       INY
7FC0: BE 01 B9 LDX $B901,Y
7FC3: 86 44    STX $44
7FC5: B9 02 B9 LDA $B902,Y
7FC8: 85 45    STA $45
7FCA: CD D0 B8 CMP $B8D0
7FCD: 90 07    BCC $7FD6
7FCF: D0 DA    BNE $7FAB
7FD1: EC CF B8 CPX $B8CF
7FD4: B0 D5    BCS $7FAB
7FD6: C5 69    CMP $69
7FD8: 90 D1    BCC $7FAB
7FDA: D0 04    BNE $7FE0
7FDC: E4 68    CPX $68
7FDE: 90 CB    BCC $7FAB
7FE0: 86 68    STX $68
7FE2: 85 69    STA $69
7FE4: A5 44    LDA $44
7FE6: A6 45    LDX $45
7FE8: 85 6A    STA $6A
7FEA: 86 6B    STX $6B
7FEC: A9 00    LDA #$00
7FEE: 8D 5F B9 STA $B95F
7FF1: 4C AB 7F JMP $7FAB
7FF4: AD C9 B8 LDA $B8C9
7FF7: AE CA B8 LDX $B8CA
7FFA: 85 44    STA $44
7FFC: 86 45    STX $45
7FFE: EC CE B8 CPX $B8CE
8001: D0 05    BNE $8008
8003: CD CD B8 CMP $B8CD
8006: F0 05    BEQ $800D
8008: 20 75 80 JSR $8075
800B: F0 F1    BEQ $7FFE
800D: 85 61    STA $61
800F: 86 62    STX $62
8011: A9 00    LDA #$00
8013: 8D 04 B8 STA $B804
8016: A5 61    LDA $61
8018: A6 62    LDX $62
801A: EC CC B8 CPX $B8CC
801D: D0 08    BNE $8027
801F: CD CB B8 CMP $B8CB
8022: D0 03    BNE $8027
8024: 4C E6 80 JMP $80E6
8027: 85 44    STA $44
8029: 86 45    STX $45
802B: A0 00    LDY #$00
802D: B1 44    LDA ($44),Y
802F: AA       TAX
8030: 29 0F    AND #$0F
8032: A8       TAY
8033: C8       INY
8034: C8       INY
8035: B1 44    LDA ($44),Y
8037: 65 61    ADC $61
8039: 85 61    STA $61
803B: C8       INY
803C: B1 44    LDA ($44),Y
803E: 65 62    ADC $62
8040: 85 62    STA $62
8042: 8A       TXA
8043: 0A       ASL
8044: 10 D0    BPL $8016
8046: B0 CE    BCS $8016
8048: C8       INY
8049: B1 44    LDA ($44),Y
804B: A0 00    LDY #$00
804D: 0A       ASL
804E: 8D 60 B9 STA $B960
8051: 8A       TXA
8052: 29 0F    AND #$0F
8054: 69 05    ADC #$05
8056: 6D 60 B9 ADC $B960
8059: 65 44    ADC $44
805B: 85 44    STA $44
805D: 90 02    BCC $8061
805F: E6 45    INC $45
8061: A6 45    LDX $45
8063: E4 62    CPX $62
8065: D0 04    BNE $806B
8067: C5 61    CMP $61
8069: F0 AF    BEQ $801A
806B: A9 00    LDA #$00
806D: 8D 04 B8 STA $B804
8070: 20 88 80 JSR $8088
8073: F0 EE    BEQ $8063
8075: A0 00    LDY #$00
8077: B1 44    LDA ($44),Y
8079: 29 0F    AND #$0F
807B: AA       TAX
807C: E8       INX
807D: E8       INX
807E: 8E 04 B8 STX $B804
8081: B1 44    LDA ($44),Y
8083: 0A       ASL
8084: 10 4D    BPL $80D3
8086: B0 43    BCS $80CB
8088: AC 04 B8 LDY $B804
808B: B1 44    LDA ($44),Y
808D: F0 34    BEQ $80C3
808F: C8       INY
8090: B1 44    LDA ($44),Y
8092: AA       TAX
8093: C8       INY
8094: B1 44    LDA ($44),Y
8096: CD D0 B8 CMP $B8D0
8099: 90 07    BCC $80A2
809B: D0 26    BNE $80C3
809D: EC CF B8 CPX $B8CF
80A0: B0 21    BCS $80C3
80A2: C5 69    CMP $69
80A4: 90 1D    BCC $80C3
80A6: D0 04    BNE $80AC
80A8: E4 68    CPX $68
80AA: 90 17    BCC $80C3
80AC: 20 31 81 JSR $8131
80AF: 90 12    BCC $80C3
80B1: 86 68    STX $68
80B3: 85 69    STA $69
80B5: A5 44    LDA $44
80B7: A6 45    LDX $45
80B9: 85 6A    STA $6A
80BB: 86 6B    STX $6B
80BD: AD 04 B8 LDA $B804
80C0: 8D 5F B9 STA $B95F
80C3: AD 04 B8 LDA $B804
80C6: 18       CLC
80C7: 69 03    ADC #$03
80C9: 90 0E    BCC $80D9
80CB: AD 04 B8 LDA $B804
80CE: 18       CLC
80CF: 69 02    ADC #$02
80D1: 90 06    BCC $80D9
80D3: AD 04 B8 LDA $B804
80D6: 18       CLC
80D7: 69 05    ADC #$05
80D9: 65 44    ADC $44
80DB: 85 44    STA $44
80DD: 90 02    BCC $80E1
80DF: E6 45    INC $45
80E1: A6 45    LDX $45
80E3: A0 00    LDY #$00
80E5: 60       RTS
80E6: A6 6B    LDX $6B
80E8: F0 F7    BEQ $80E1
80EA: AC 5F B9 LDY $B95F
80ED: 18       CLC
80EE: B1 6A    LDA ($6A),Y
80F0: 65 68    ADC $68
80F2: 85 63    STA $63
80F4: A5 69    LDA $69
80F6: 69 00    ADC #$00
80F8: 85 64    STA $64
80FA: AD CF B8 LDA $B8CF
80FD: AE D0 B8 LDX $B8D0
8100: 85 61    STA $61
8102: 86 62    STX $62
8104: 20 23 67 JSR $6723
8107: A5 61    LDA $61
8109: A4 62    LDY $62
810B: 8D 69 B9 STA $B969
810E: 8C 6A B9 STY $B96A
8111: 20 7D 81 JSR $817D
8114: AD 69 B9 LDA $B969
8117: AC 6A B9 LDY $B96A
811A: 85 61    STA $61
811C: 84 62    STY $62
811E: AC 5F B9 LDY $B95F
8121: C8       INY
8122: A5 61    LDA $61
8124: 91 6A    STA ($6A),Y
8126: AA       TAX
8127: E6 62    INC $62
8129: A5 62    LDA $62
812B: C8       INY
812C: 91 6A    STA ($6A),Y
812E: 4C 7C 7F JMP $7F7C
8131: 85 6C    STA $6C
8133: 86 6D    STX $6D
8135: A9 FF    LDA #$FF
8137: 8D 00 B8 STA $B800
813A: EE 00 B8 INC $B800
813D: AD 00 B8 LDA $B800
8140: C9 03    CMP #$03
8142: D0 02    BNE $8146
8144: 18       CLC
8145: 60       RTS
8146: 0A       ASL
8147: 6D 00 B8 ADC $B800
814A: A8       TAY
814B: B9 01 B9 LDA $B901,Y
814E: F0 EA    BEQ $813A
8150: 8D 01 B8 STA $B801
8153: C8       INY
8154: A5 6C    LDA $6C
8156: D9 01 B9 CMP $B901,Y
8159: 90 DF    BCC $813A
815B: D0 08    BNE $8165
815D: A5 6D    LDA $6D
815F: AA       TAX
8160: D9 02 B9 CMP $B902,Y
8163: 90 D5    BCC $813A
8165: 18       CLC
8166: 6D 01 B8 ADC $B801
8169: 90 01    BCC $816C
816B: E8       INX
816C: C5 6C    CMP $6C
816E: 90 CA    BCC $813A
8170: D0 06    BNE $8178
8172: E4 6D    CPX $6D
8174: 90 C4    BCC $813A
8176: F0 C2    BEQ $813A
8178: A5 6C    LDA $6C
817A: A6 6D    LDX $6D
817C: 60       RTS
817D: A6 6B    LDX $6B
817F: E0 B9    CPX #$B9
8181: 90 F9    BCC $817C
8183: D0 06    BNE $818B
8185: A5 6A    LDA $6A
8187: C9 01    CMP #$01
8189: 90 F1    BCC $817C
818B: E0 B9    CPX #$B9
818D: B0 ED    BCS $817C
818F: C9 0A    CMP #$0A
8191: B0 E9    BCS $817C
8193: AD C9 B8 LDA $B8C9
8196: AE CA B8 LDX $B8CA
8199: 85 44    STA $44
819B: 86 45    STX $45
819D: 20 31 82 JSR $8231
81A0: 90 08    BCC $81AA
81A2: 20 88 82 JSR $8288
81A5: 20 69 82 JSR $8269
81A8: B0 F3    BCS $819D
81AA: 85 61    STA $61
81AC: 86 62    STX $62
81AE: A9 00    LDA #$00
81B0: 8D 04 B8 STA $B804
81B3: 20 BF 81 JSR $81BF
81B6: 90 06    BCC $81BE
81B8: 20 11 82 JSR $8211
81BB: 4C B3 81 JMP $81B3
81BE: 60       RTS
81BF: A5 61    LDA $61
81C1: A6 62    LDX $62
81C3: EC CC B8 CPX $B8CC
81C6: 90 0B    BCC $81D3
81C8: F0 02    BEQ $81CC
81CA: 18       CLC
81CB: 60       RTS
81CC: CD CB B8 CMP $B8CB
81CF: 90 02    BCC $81D3
81D1: 18       CLC
81D2: 60       RTS
81D3: 85 44    STA $44
81D5: 86 45    STX $45
81D7: A0 00    LDY #$00
81D9: B1 44    LDA ($44),Y
81DB: AA       TAX
81DC: 29 0F    AND #$0F
81DE: A8       TAY
81DF: C8       INY
81E0: C8       INY
81E1: B1 44    LDA ($44),Y
81E3: 65 61    ADC $61
81E5: 85 61    STA $61
81E7: C8       INY
81E8: B1 44    LDA ($44),Y
81EA: 65 62    ADC $62
81EC: 85 62    STA $62
81EE: 8A       TXA
81EF: 0A       ASL
81F0: 10 CD    BPL $81BF
81F2: B0 CB    BCS $81BF
81F4: C8       INY
81F5: B1 44    LDA ($44),Y
81F7: A0 00    LDY #$00
81F9: 0A       ASL
81FA: 8D 60 B9 STA $B960
81FD: 8A       TXA
81FE: 29 0F    AND #$0F
8200: 69 05    ADC #$05
8202: 6D 60 B9 ADC $B960
8205: 65 44    ADC $44
8207: 85 44    STA $44
8209: 90 02    BCC $820D
820B: E6 45    INC $45
820D: A6 45    LDX $45
820F: 38       SEC
8210: 60       RTS
8211: A0 00    LDY #$00
8213: E4 62    CPX $62
8215: D0 05    BNE $821C
8217: C5 61    CMP $61
8219: D0 01    BNE $821C
821B: 60       RTS
821C: B1 44    LDA ($44),Y
821E: F0 03    BEQ $8223
8220: 20 88 82 JSR $8288
8223: A9 03    LDA #$03
8225: 65 44    ADC $44
8227: 85 44    STA $44
8229: 90 E8    BCC $8213
822B: E6 45    INC $45
822D: A6 45    LDX $45
822F: D0 E2    BNE $8213
8231: 20 78 82 JSR $8278
8234: B0 01    BCS $8237
8236: 60       RTS
8237: A0 00    LDY #$00
8239: B1 44    LDA ($44),Y
823B: 29 0F    AND #$0F
823D: AA       TAX
823E: E8       INX
823F: E8       INX
8240: 8E 04 B8 STX $B804
8243: A2 05    LDX #$05
8245: B1 44    LDA ($44),Y
8247: 0A       ASL
8248: 10 0D    BPL $8257
824A: A2 02    LDX #$02
824C: B0 09    BCS $8257
824E: AC 04 B8 LDY $B804
8251: A5 44    LDA $44
8253: A6 45    LDX $45
8255: 38       SEC
8256: 60       RTS
8257: 18       CLC
8258: 8A       TXA
8259: 6D 04 B8 ADC $B804
825C: 65 44    ADC $44
825E: 85 44    STA $44
8260: 90 02    BCC $8264
8262: E6 45    INC $45
8264: A6 45    LDX $45
8266: 4C 31 82 JMP $8231
8269: 18       CLC
826A: 8A       TXA
826B: 6D 04 B8 ADC $B804
826E: 65 44    ADC $44
8270: 85 44    STA $44
8272: 90 02    BCC $8276
8274: E6 45    INC $45
8276: A6 45    LDX $45
8278: EC CE B8 CPX $B8CE
827B: F0 02    BEQ $827F
827D: 38       SEC
827E: 60       RTS
827F: CD CD B8 CMP $B8CD
8282: F0 02    BEQ $8286
8284: 38       SEC
8285: 60       RTS
8286: 18       CLC
8287: 60       RTS
8288: B1 44    LDA ($44),Y
828A: D0 03    BNE $828F
828C: A2 03    LDX #$03
828E: 60       RTS
828F: C8       INY
8290: B1 44    LDA ($44),Y
8292: 85 6C    STA $6C
8294: C8       INY
8295: B1 44    LDA ($44),Y
8297: 85 6D    STA $6D
8299: A0 00    LDY #$00
829B: B1 6A    LDA ($6A),Y
829D: 8D 00 B8 STA $B800
82A0: C8       INY
82A1: C8       INY
82A2: B1 6A    LDA ($6A),Y
82A4: AA       TAX
82A5: 88       DEY
82A6: B1 6A    LDA ($6A),Y
82A8: E4 6D    CPX $6D
82AA: 90 0E    BCC $82BA
82AC: F0 03    BEQ $82B1
82AE: A2 03    LDX #$03
82B0: 60       RTS
82B1: C5 6C    CMP $6C
82B3: 90 05    BCC $82BA
82B5: F0 03    BEQ $82BA
82B7: A2 03    LDX #$03
82B9: 60       RTS
82BA: 18       CLC
82BB: 6D 00 B8 ADC $B800
82BE: 90 01    BCC $82C1
82C0: E8       INX
82C1: E4 6D    CPX $6D
82C3: F0 05    BEQ $82CA
82C5: B0 09    BCS $82D0
82C7: A2 03    LDX #$03
82C9: 60       RTS
82CA: C5 6C    CMP $6C
82CC: 90 F9    BCC $82C7
82CE: F0 F7    BEQ $82C7
82D0: ED 00 B8 SBC $B800
82D3: B0 01    BCS $82D6
82D5: CA       DEX
82D6: 85 63    STA $63
82D8: 86 64    STX $64
82DA: 38       SEC
82DB: AD 69 B9 LDA $B969
82DE: E5 63    SBC $63
82E0: 85 63    STA $63
82E2: AD 6A B9 LDA $B96A
82E5: E5 64    SBC $64
82E7: 85 64    STA $64
82E9: AC 04 B8 LDY $B804
82EC: C8       INY
82ED: 18       CLC
82EE: A5 6C    LDA $6C
82F0: 65 63    ADC $63
82F2: 91 44    STA ($44),Y
82F4: A5 6D    LDA $6D
82F6: 65 64    ADC $64
82F8: C8       INY
82F9: 91 44    STA ($44),Y
82FB: A2 03    LDX #$03
82FD: 60       RTS
82FE: AD C9 B8 LDA $B8C9
8301: AE CA B8 LDX $B8CA
8304: 85 44    STA $44
8306: 86 45    STX $45
8308: 20 31 82 JSR $8231
830B: 90 08    BCC $8315
830D: 20 32 83 JSR $8332
8310: 20 69 82 JSR $8269
8313: B0 F3    BCS $8308
8315: 85 61    STA $61
8317: 86 62    STX $62
8319: A9 00    LDA #$00
831B: 8D 04 B8 STA $B804
831E: A5 61    LDA $61
8320: A6 62    LDX $62
8322: 85 65    STA $65
8324: 86 66    STX $66
8326: 20 BF 81 JSR $81BF
8329: 90 06    BCC $8331
832B: 20 C7 83 JSR $83C7
832E: 4C 1E 83 JMP $831E
8331: 60       RTS
8332: B1 44    LDA ($44),Y
8334: F0 03    BEQ $8339
8336: A2 03    LDX #$03
8338: 60       RTS
8339: 20 44 83 JSR $8344
833C: A2 00    LDX #$00
833E: A9 00    LDA #$00
8340: 8D 04 B8 STA $B804
8343: 60       RTS
8344: A5 44    LDA $44
8346: A4 45    LDY $45
8348: 85 65    STA $65
834A: 84 66    STY $66
834C: 85 60    STA $60
834E: 84 61    STY $61
8350: 18       CLC
8351: AD 04 B8 LDA $B804
8354: 69 03    ADC #$03
8356: 8D 04 B8 STA $B804
8359: 65 44    ADC $44
835B: 85 60    STA $60
835D: 90 02    BCC $8361
835F: E6 61    INC $61
8361: AD CC B8 LDA $B8CC
8364: C5 61    CMP $61
8366: D0 05    BNE $836D
8368: AD CB B8 LDA $B8CB
836B: C5 60    CMP $60
836D: F0 3E    BEQ $83AD
836F: 38       SEC
8370: AD CB B8 LDA $B8CB
8373: E5 60    SBC $60
8375: A8       TAY
8376: AD CC B8 LDA $B8CC
8379: E5 61    SBC $61
837B: AA       TAX
837C: 98       TYA
837D: F0 20    BEQ $839F
837F: 49 FF    EOR #$FF
8381: A8       TAY
8382: C8       INY
8383: 8C 00 B8 STY $B800
8386: 38       SEC
8387: A5 65    LDA $65
8389: ED 00 B8 SBC $B800
838C: 85 65    STA $65
838E: B0 03    BCS $8393
8390: C6 66    DEC $66
8392: 38       SEC
8393: A5 60    LDA $60
8395: ED 00 B8 SBC $B800
8398: 85 60    STA $60
839A: B0 03    BCS $839F
839C: C6 61    DEC $61
839E: E8       INX
839F: B1 60    LDA ($60),Y
83A1: 91 65    STA ($65),Y
83A3: C8       INY
83A4: D0 F9    BNE $839F
83A6: E6 61    INC $61
83A8: E6 66    INC $66
83AA: CA       DEX
83AB: D0 F2    BNE $839F
83AD: A5 65    LDA $65
83AF: A4 66    LDY $66
83B1: 8D CB B8 STA $B8CB
83B4: 8C CC B8 STY $B8CC
83B7: 38       SEC
83B8: AD CD B8 LDA $B8CD
83BB: ED 04 B8 SBC $B804
83BE: 8D CD B8 STA $B8CD
83C1: B0 03    BCS $83C6
83C3: CE CE B8 DEC $B8CE
83C6: 60       RTS
83C7: A0 00    LDY #$00
83C9: E4 62    CPX $62
83CB: D0 10    BNE $83DD
83CD: C5 61    CMP $61
83CF: D0 0C    BNE $83DD
83D1: 20 F0 83 JSR $83F0
83D4: A5 44    LDA $44
83D6: 85 61    STA $61
83D8: A6 45    LDX $45
83DA: 86 62    STX $62
83DC: 60       RTS
83DD: B1 44    LDA ($44),Y
83DF: F0 01    BEQ $83E2
83E1: 60       RTS
83E2: A9 03    LDA #$03
83E4: 65 44    ADC $44
83E6: 85 44    STA $44
83E8: 90 DF    BCC $83C9
83EA: E6 45    INC $45
83EC: A6 45    LDX $45
83EE: D0 D9    BNE $83C9
83F0: A5 65    LDA $65
83F2: A4 66    LDY $66
83F4: 85 44    STA $44
83F6: 84 45    STY $45
83F8: A5 62    LDA $62
83FA: CD CC B8 CMP $B8CC
83FD: D0 05    BNE $8404
83FF: A5 61    LDA $61
8401: CD CB B8 CMP $B8CB
8404: F0 3C    BEQ $8442
8406: 38       SEC
8407: AD CB B8 LDA $B8CB
840A: E5 61    SBC $61
840C: A8       TAY
840D: AD CC B8 LDA $B8CC
8410: E5 62    SBC $62
8412: AA       TAX
8413: 98       TYA
8414: 49 FF    EOR #$FF
8416: A8       TAY
8417: C8       INY
8418: 8C 00 B8 STY $B800
841B: 38       SEC
841C: A5 61    LDA $61
841E: ED 00 B8 SBC $B800
8421: 85 61    STA $61
8423: B0 03    BCS $8428
8425: C6 62    DEC $62
8427: 38       SEC
8428: A5 65    LDA $65
842A: ED 00 B8 SBC $B800
842D: 85 65    STA $65
842F: B0 03    BCS $8434
8431: C6 66    DEC $66
8433: E8       INX
8434: B1 61    LDA ($61),Y
8436: 91 65    STA ($65),Y
8438: C8       INY
8439: D0 F9    BNE $8434
843B: E6 62    INC $62
843D: E6 66    INC $66
843F: CA       DEX
8440: D0 F2    BNE $8434
8442: A5 65    LDA $65
8444: A4 66    LDY $66
8446: 8D CB B8 STA $B8CB
8449: 8C CC B8 STY $B8CC
844C: 60       RTS
844D: A5 72    LDA $72
844F: 48       PHA
8450: A5 73    LDA $73
8452: 48       PHA
8453: 20 82 9C JSR $9C82
8456: 20 31 7D JSR $7D31
8459: 68       PLA
845A: 85 7E    STA $7E
845C: 68       PLA
845D: 85 7D    STA $7D
845F: A0 00    LDY #$00
8461: B1 7D    LDA ($7D),Y
8463: 18       CLC
8464: 71 72    ADC ($72),Y
8466: 90 05    BCC $846D
8468: A2 0D    LDX #$0D
846A: 4C 9F 67 JMP $679F
846D: 20 BE 7E JSR $7EBE
8470: 20 8A 84 JSR $848A
8473: A5 6C    LDA $6C
8475: A4 6D    LDY $6D
8477: 20 BA 84 JSR $84BA
847A: 20 9C 84 JSR $849C
847D: A5 7D    LDA $7D
847F: A4 7E    LDY $7E
8481: 20 BA 84 JSR $84BA
8484: 20 0F 7F JSR $7F0F
8487: 4C 95 9B JMP $9B95
848A: A0 00    LDY #$00
848C: B1 7D    LDA ($7D),Y
848E: 48       PHA
848F: C8       INY
8490: B1 7D    LDA ($7D),Y
8492: AA       TAX
8493: C8       INY
8494: B1 7D    LDA ($7D),Y
8496: A8       TAY
8497: 68       PLA
8498: 86 44    STX $44
849A: 84 45    STY $45
849C: A8       TAY
849D: F0 0A    BEQ $84A9
849F: 48       PHA
84A0: 88       DEY
84A1: B1 44    LDA ($44),Y
84A3: 91 FE    STA ($FE),Y
84A5: 98       TYA
84A6: D0 F8    BNE $84A0
84A8: 68       PLA
84A9: 18       CLC
84AA: 65 FE    ADC $FE
84AC: 85 FE    STA $FE
84AE: 90 02    BCC $84B2
84B0: E6 FF    INC $FF
84B2: 60       RTS
84B3: 20 31 7D JSR $7D31
84B6: A5 72    LDA $72
84B8: A4 73    LDY $73
84BA: 85 44    STA $44
84BC: 84 45    STY $45
84BE: 20 F0 84 JSR $84F0
84C1: 08       PHP
84C2: A0 00    LDY #$00
84C4: B1 44    LDA ($44),Y
84C6: 48       PHA
84C7: C8       INY
84C8: B1 44    LDA ($44),Y
84CA: AA       TAX
84CB: C8       INY
84CC: B1 44    LDA ($44),Y
84CE: A8       TAY
84CF: 68       PLA
84D0: 28       PLP
84D1: D0 18    BNE $84EB
84D3: CC D0 B8 CPY $B8D0
84D6: D0 13    BNE $84EB
84D8: EC CF B8 CPX $B8CF
84DB: D0 0E    BNE $84EB
84DD: 48       PHA
84DE: 18       CLC
84DF: 6D CF B8 ADC $B8CF
84E2: 8D CF B8 STA $B8CF
84E5: 90 03    BCC $84EA
84E7: EE D0 B8 INC $B8D0
84EA: 68       PLA
84EB: 86 44    STX $44
84ED: 84 45    STY $45
84EF: 60       RTS

84F0: C4 48    CPY $48
84F2: D0 0C    BNE $8500
84F4: C5 43    CMP $43
84F6: D0 08    BNE $8500
84F8: 85 42    STA $42
84FA: E9 03    SBC #$03
84FC: 85 43    STA $43
84FE: A0 00    LDY #$00
8500: 60       RTS

8501: 00 06 C0 INT $C006
8504: 48       PHA
8505: A9 01    LDA #$01
8507: 20 C6 7E JSR $7EC6
850A: 68       PLA
850B: A0 00    LDY #$00
850D: 91 70    STA ($70),Y
850F: 4C 0F 7F JMP $7F0F

; CHR$ function
8512: 20 CA 85 JSR $85CA
8515: 8A       TXA
8516: 48       PHA
8517: A9 01    LDA #$01
8519: 20 C6 7E JSR $7EC6
851C: 68       PLA
851D: A0 00    LDY #$00
851F: 91 70    STA ($70),Y
8521: 68       PLA
8522: 68       PLA
8523: 4C 0F 7F JMP $7F0F

; LEFT$ function
8526: 20 85 85 JSR $8585
8529: D1 6C    CMP ($6C),Y
852B: 98       TYA
852C: 90 04    BCC $8532
852E: B1 6C    LDA ($6C),Y
8530: AA       TAX
8531: 98       TYA
8532: 48       PHA
8533: 8A       TXA
8534: 48       PHA
8535: 20 C6 7E JSR $7EC6
8538: A5 6C    LDA $6C
853A: A4 6D    LDY $6D
853C: 20 BA 84 JSR $84BA
853F: 68       PLA
8540: A8       TAY
8541: 68       PLA
8542: 18       CLC
8543: 65 44    ADC $44
8545: 85 44    STA $44
8547: 90 02    BCC $854B
8549: E6 45    INC $45
854B: 98       TYA
854C: 20 9C 84 JSR $849C
854F: 4C 0F 7F JMP $7F0F

; RIGHT$ function
8552: 20 85 85 JSR $8585
8555: 18       CLC
8556: F1 6C    SBC ($6C),Y
8558: 49 FF    EOR #$FF
855A: 4C 2C 85 JMP $852C

; MID$ function
855D: A9 FF    LDA #$FF
855F: 85 73    STA $73
8561: 20 3A 66 JSR $663A
8564: C9 29    CMP #$29
8566: F0 06    BEQ $856E
8568: 20 F2 9C JSR $9CF2
856B: 20 C7 85 JSR $85C7
856E: 20 85 85 JSR $8585
8571: CA       DEX
8572: 8A       TXA
8573: 48       PHA
8574: 18       CLC
8575: A2 00    LDX #$00
8577: F1 6C    SBC ($6C),Y
8579: B0 B8    BCS $8533
857B: 49 FF    EOR #$FF
857D: C5 73    CMP $73
857F: 90 B3    BCC $8534
8581: A5 73    LDA $73
8583: B0 AF    BCS $8534
8585: 20 EC 9C JSR $9CEC
8588: 68       PLA
8589: A8       TAY
858A: 68       PLA
858B: 8D 5F B9 STA $B95F
858E: 68       PLA
858F: 68       PLA
8590: 68       PLA
8591: AA       TAX
8592: 68       PLA
8593: 85 6C    STA $6C
8595: 68       PLA
8596: 85 6D    STA $6D
8598: AD 5F B9 LDA $B95F
859B: 48       PHA
859C: 98       TYA
859D: 48       PHA
859E: A0 00    LDY #$00
85A0: 8A       TXA
85A1: F0 1E    BEQ $85C1
85A3: 60       RTS

; LEN function
85A4: 20 AA 85 JSR $85AA
85A7: 4C E0 7D JMP $7DE0

85AA: 20 B3 84 JSR $84B3
85AD: A2 00    LDX #$00
85AF: 8E 08 B8 STX $B808
85B2: A8       TAY
85B3: 60       RTS

; ASC function
85B4: 20 AA 85 JSR $85AA
85B7: F0 08    BEQ $85C1
85B9: A0 00    LDY #$00
85BB: B1 44    LDA ($44),Y
85BD: A8       TAY
85BE: 4C E0 7D JMP $7DE0

85C1: 4C 99 99 JMP $9999
85C4: 20 34 66 JSR $6634
85C7: 20 2C 7D JSR $7D2C
85CA: 20 A8 98 JSR $98A8
85CD: A6 72    LDX $72
85CF: D0 F0    BNE $85C1
85D1: A6 73    LDX $73
85D3: 4C 3A 66 JMP $663A

85D6: 20 AA 85 JSR $85AA
85D9: D0 03    BNE $85DE
85DB: 4C 47 9E JMP $9E47
85DE: A6 5E    LDX $5E
85E0: A4 5F    LDY $5F
85E2: 86 52    STX $52
85E4: 84 53    STY $53
85E6: A8       TAY
85E7: A9 00    LDA #$00
85E9: 4C EE 85 JMP $85EE
85EC: B1 44    LDA ($44),Y
85EE: 99 99 B9 STA $B999,Y
85F1: 88       DEY
85F2: 10 F8    BPL $85EC
85F4: A9 99    LDA #$99
85F6: 85 5E    STA $5E
85F8: A9 B9    LDA #$B9
85FA: 85 5F    STA $5F
85FC: 20 3A 66 JSR $663A
85FF: 20 93 A3 JSR $A393
8602: A6 52    LDX $52
8604: A4 53    LDY $53
8606: 86 5E    STX $5E
8608: 84 5F    STY $5F
860A: 60       RTS
860B: 20 2C 7D JSR $7D2C
860E: 20 17 86 JSR $8617
8611: 20 F2 9C JSR $9CF2
8614: 4C C7 85 JMP $85C7
8617: A5 6F    LDA $6F
8619: C9 91    CMP #$91
861B: B0 A4    BCS $85C1
861D: 20 7B A2 JSR $A27B
8620: A5 72    LDA $72
8622: A4 73    LDY $73
8624: 84 40    STY $40
8626: 85 41    STA $41
8628: 60       RTS

; PEEK function
8629: A5 40    LDA $40
862B: 48       PHA
862C: A5 41    LDA $41
862E: 48       PHA
862F: 20 17 86 JSR $8617
8632: A0 00    LDY #$00
8634: B1 40    LDA ($40),Y
8636: A8       TAY
8637: 68       PLA
8638: 85 41    STA $41
863A: 68       PLA
863B: 85 40    STA $40
863D: 4C E0 7D JMP $7DE0

8640: 4C 42 77 JMP $7742

; TRACE statement
; set TRACE flag
8643: 38       SEC
8644: 90            ; BCC $865E

; NOTRACE statement
; clear TRACE flag
8645: 18       CLC
8646: 6E 11 B8 ROR $B811
8649: 60       RTS

; NORMAL statement
864A: A9 00    LDA #$00
864C: F0 11    BEQ $865F

864E: A9 01    LDA #$01
8650: D0 05    BNE $8657

8652: A9 02    LDA #$02
8654: 0D 12 B8 ORA $B812
8657: AE 15 B8 LDX $B815
865A: E0 FF    CPX #$FF
865C: D0 01    BNE $865F
865E: 60       RTS

865F: 8D 12 B8 STA $B812

8662: 60       RTS

8663: 8E 20 B8 STX $B820
8666: AE 26 B8 LDX $B826
8669: 8E 21 B8 STX $B821
866C: AD 14 B8 LDA $B814
866F: 8D 1C B8 STA $B81C
8672: AD 15 B8 LDA $B815
8675: 8D 1D B8 STA $B81D
8678: AD D3 B8 LDA $B8D3
867B: 8D 1E B8 STA $B81E
867E: AD D4 B8 LDA $B8D4
8681: 8D 1F B8 STA $B81F
8684: AD 22 B8 LDA $B822
8687: 85 5E    STA $5E
8689: AD 23 B8 LDA $B823
868C: 85 5F    STA $5F
868E: AD 24 B8 LDA $B824
8691: 8D 14 B8 STA $B814
8694: AD 25 B8 LDA $B825
8697: 8D 15 B8 STA $B815
869A: 20 3A 66 JSR $663A
869D: 20 BE 75 JSR $75BE
86A0: 4C F1 60 JMP $60F1

86A3: 4C 42 77 JMP $7742
86A6: 4C 42 77 JMP $7742
86A9: F0 3F    BEQ $86EA
86AB: AE B5 03 LDX $03B5
86AE: 8E C5 B8 STX $B8C5
86B1: C9 2C    CMP #$2C
86B3: F0 1E    BEQ $86D3
86B5: A5 5E    LDA $5E
86B7: D0 02    BNE $86BB
86B9: C6 5F    DEC $5F
86BB: C6 5E    DEC $5E
86BD: 20 C4 85 JSR $85C4
86C0: E0 06    CPX #$06
86C2: B0 29    BCS $86ED
86C4: A8       TAY
86C5: 8A       TXA
86C6: F0 25    BEQ $86ED
86C8: CA       DEX
86C9: 8E C5 B8 STX $B8C5
86CC: 98       TYA
86CD: F0 14    BEQ $86E3
86CF: C9 2C    CMP #$2C
86D1: D0 17    BNE $86EA
86D3: 20 C4 85 JSR $85C4
86D6: D0 12    BNE $86EA
86D8: E0 15    CPX #$15
86DA: B0 11    BCS $86ED
86DC: 8A       TXA
86DD: F0 0E    BEQ $86ED
86DF: CA       DEX
86E0: 8E B4 03 STX $03B4
86E3: AE C5 B8 LDX $B8C5
86E6: 8E B5 03 STX $03B5
86E9: 60       RTS
86EA: 4C FD 9C JMP $9CFD
86ED: 4C 99 99 JMP $9999
86F0: F0 F8    BEQ $86EA
86F2: A5 5E    LDA $5E
86F4: D0 02    BNE $86F8
86F6: C6 5F    DEC $5F
86F8: C6 5E    DEC $5E
86FA: 20 C4 85 JSR $85C4
86FD: C9 2C    CMP #$2C
86FF: D0 E9    BNE $86EA
8701: 8E C3 03 STX $03C3
8704: 20 C4 85 JSR $85C4
8707: C9 2C    CMP #$2C
8709: D0 DF    BNE $86EA
870B: 8E C4 03 STX $03C4
870E: 60       RTS
870F: F0 D9    BEQ $86EA
8711: A5 5E    LDA $5E
8713: D0 02    BNE $8717
8715: C6 5F    DEC $5F
8717: C6 5E    DEC $5E
8719: 20 C4 85 JSR $85C4
871C: C9 2C    CMP #$2C
871E: D0 CA    BNE $86EA
8720: 8E C7 03 STX $03C7
8723: 20 C4 85 JSR $85C4
8726: 08       PHP
8727: A0 01    LDY #$01
8729: 8E C8 03 STX $03C8
872C: 28       PLP
872D: F0 0C    BEQ $873B
872F: C9 2C    CMP #$2C
8731: D0 B7    BNE $86EA
8733: 20 C4 85 JSR $85C4
8736: D0 B2    BNE $86EA
8738: 20 1A 88 JSR $881A
873B: 8C C9 03 STY $03C9
873E: 00 04 CA INT $CA04
8741: 60       RTS

; 画线
8742: 20 F0 86 JSR $86F0
8745: 20 C4 85 JSR $85C4
8748: C9 2C    CMP #$2C
874A: D0 9E    BNE $86EA
874C: 8E C5 03 STX $03C5
874F: 20 C4 85 JSR $85C4
8752: 08       PHP
8753: A0 01    LDY #$01
8755: 8E C6 03 STX $03C6
8758: 28       PLP
8759: F0 0C    BEQ $8767
875B: C9 2C    CMP #$2C
875D: D0 8B    BNE $86EA
875F: 20 C4 85 JSR $85C4
8762: D0 86    BNE $86EA
8764: 20 1A 88 JSR $881A
8767: 8C C9 03 STY $03C9
876A: 00 0B CA INT $CA0B
876D: 60       RTS

; 画矩形
876E: 20 F0 86 JSR $86F0
8771: 20 C4 85 JSR $85C4
8774: C9 2C    CMP #$2C
8776: D0 25    BNE $879D
8778: 8E C5 03 STX $03C5
877B: 20 C4 85 JSR $85C4
877E: 08       PHP
877F: 8E C6 03 STX $03C6
8782: A0 01    LDY #$01
8784: A2 00    LDX #$00
8786: 28       PLP
8787: F0 03    BEQ $878C
8789: 20 A0 87 JSR $87A0
878C: 8E DA 03 STX $03DA
878F: 8C C9 03 STY $03C9
8792: 8A       TXA
8793: D0 04    BNE $8799
8795: 00 0C CA INT $CA0C
8798: 60       RTS
8799: 00 0A CA INT $CA0A
879C: 60       RTS

879D: 4C FD 9C JMP $9CFD
87A0: C9 2C    CMP #$2C
87A2: D0 F9    BNE $879D
87A4: 20 C4 85 JSR $85C4
87A7: 08       PHP
87A8: 8D C5 B8 STA $B8C5
87AB: A0 01    LDY #$01
87AD: 8A       TXA
87AE: 29 01    AND #$01
87B0: AA       TAX
87B1: 28       PLP
87B2: F0 15    BEQ $87C9
87B4: AD C5 B8 LDA $B8C5
87B7: C9 2C    CMP #$2C
87B9: D0 E2    BNE $879D
87BB: 8E C5 B8 STX $B8C5
87BE: 20 C4 85 JSR $85C4
87C1: D0 DA    BNE $879D
87C3: 20 1A 88 JSR $881A
87C6: AE C5 B8 LDX $B8C5
87C9: 60       RTS

; 画圆 circle
87CA: 20 F0 86 JSR $86F0
87CD: 20 C4 85 JSR $85C4
87D0: 08       PHP
87D1: 8E D6 03 STX $03D6
87D4: A0 01    LDY #$01
87D6: A2 00    LDX #$00
87D8: 28       PLP
87D9: F0 03    BEQ $87DE
87DB: 20 A0 87 JSR $87A0
87DE: 8C C9 03 STY $03C9
87E1: 8A       TXA
87E2: D0 04    BNE $87E8
87E4: 00 0E CA INT $CA0E
87E7: 60       RTS
87E8: 00 10 CA INT $CA10
87EB: 60       RTS

; 画椭圆 ellipse
87EC: 20 F0 86 JSR $86F0
87EF: 20 C4 85 JSR $85C4
87F2: F0 A9    BEQ $879D
87F4: C9 2C    CMP #$2C
87F6: D0 A5    BNE $879D
87F8: 8E DB 03 STX $03DB
87FB: 20 C4 85 JSR $85C4
87FE: 08       PHP
87FF: 8E DC 03 STX $03DC
8802: A0 01    LDY #$01
8804: A2 00    LDX #$00
8806: 28       PLP
8807: F0 03    BEQ $880C
8809: 20 A0 87 JSR $87A0
880C: 8C C9 03 STY $03C9
880F: 8A       TXA
8810: D0 04    BNE $8816
8812: 00 0F CA INT $CA0F
8815: 60       RTS
8816: 00 11 CA INT $CA11
8819: 60       RTS

881A: 8A       TXA
881B: 29 07    AND #$07
881D: A8       TAY
881E: C0 06    CPY #$06
8820: 90 02    BCC $8824
8822: A0 01    LDY #$01
8824: 60       RTS
8825: 4C 42 77 JMP $7742
8828: D0 03    BNE $882D
882A: 4C 12 E0 JMP $E012
882D: A2 01    LDX #$01
882F: 4C 9F 67 JMP $679F

8832: AD 15 B8 LDA $B815
8835: C9 FF    CMP #$FF
8837: F0 03    BEQ $883C
8839: 4C FD 9C JMP $9CFD

883C: A9 00    LDA #$00
883E: 8D E2 03 STA $03E2
8841: 8D 08 04 STA $0408
8844: 8D 06 04 STA $0406
8847: 85 C7    STA $C7

; restore stack content in $BCE0
8849: AD 45 B9 LDA $B945
884C: 85 80    STA $80
884E: AD 46 B9 LDA $B946
8851: 85 81    STA $81
8853: A0 00    LDY #$00
8855: B1 80    LDA ($80),Y
8857: AA       TAX
8858: 9A       TXS
8859: C8       INY
885A: B1 80    LDA ($80),Y
885C: 9D 00 01 STA $0100,X
885F: C8       INY
8860: E8       INX
8861: D0 F7    BNE $885A
8863: 60       RTS

8864: F0 03    BEQ $8869
8866: 4C FD 9C JMP $9CFD

8869: A9 00    LDA #$00
886B: 8D 12 B8 STA $B812
886E: 8D 68 B9 STA $B968
8871: 8D B3 03 STA $03B3
8874: A9 01    LDA #$01
8876: 8D C4 B8 STA $B8C4
8879: 4C 8C 88 JMP $888C

887C: F0 03    BEQ $8881
887E: 4C FD 9C JMP $9CFD
8881: 20 E5 7D JSR $7DE5
8884: A9 80    LDA #$80
8886: 8D 68 B9 STA $B968
8889: 8D B3 03 STA $03B3

; CLS statement
888C: 20 E2 AC JSR $ACE2  ; clear screen and text buffer
888F: A9 00    LDA #$00
8891: 8D C2 B8 STA $B8C2
8894: 8D B4 03 STA $03B4  ; caret x
8897: 8D B5 03 STA $03B5  ; caret y
889A: A9 00    LDA #$00
889C: A0 0C    LDY #$0C
889E: 99 2B B9 STA $B92B,Y  ; clear $B92B-$B937
88A1: 88       DEY
88A2: 10 FA    BPL $889E
88A4: 60       RTS

88A5: 20 D5 89 JSR $89D5
88A8: A2 00    LDX #$00
88AA: A0 00    LDY #$00
88AC: B1 44    LDA ($44),Y
88AE: C9 1F    CMP #$1F
88B0: F0 04    BEQ $88B6
88B2: 9D 0A B9 STA $B90A,X
88B5: E8       INX
88B6: C8       INY
88B7: CC 00 B8 CPY $B800
88BA: 90 03    BCC $88BF
88BC: 4C C3 88 JMP $88C3
88BF: E0 0E    CPX #$0E
88C1: 90 E9    BCC $88AC
88C3: E0 05    CPX #$05
88C5: 90 1A    BCC $88E1
88C7: 8A       TXA
88C8: A8       TAY
88C9: 48       PHA
88CA: A2 03    LDX #$03
88CC: 88       DEY
88CD: B1 44    LDA ($44),Y
88CF: DD F0 88 CMP $88F0,X
88D2: D0 05    BNE $88D9
88D4: CA       DEX
88D5: 10 F5    BPL $88CC
88D7: 68       PLA
88D8: 60       RTS
88D9: 68       PLA
88DA: AA       TAX
88DB: E0 0A    CPX #$0A
88DD: 90 02    BCC $88E1
88DF: A2 0E    LDX #$0E
88E1: A0 00    LDY #$00
88E3: B9 F0 88 LDA $88F0,Y
88E6: 9D 0A B9 STA $B90A,X
88E9: E8       INX
88EA: C8       INY
88EB: C0 04    CPY #$04
88ED: 90 F4    BCC $88E3
88EF: 60       RTS
88F0: 00 00 00 INT $0000
88F3: 00 AD 0A INT $0AAD
88F6: B9 F0 19 LDA $19F0,Y
88F9: A2 0D    LDX #$0D
88FB: BD 0A B9 LDA $B90A,X
88FE: C9 2F    CMP #$2F
8900: F0 10    BEQ $8912
8902: CA       DEX
8903: 10 F6    BPL $88FB
8905: A2 0D    LDX #$0D
8907: A9 00    LDA #$00
8909: 3D 0A B9 AND $B90A,X
890C: CA       DEX
890D: 10 FA    BPL $8909
890F: 09 00    ORA #$00
8911: 60       RTS
8912: A9 FF    LDA #$FF
8914: 60       RTS
8915: 4C 42 77 JMP $7742

; open and read .BAS file
8918: A9 80    LDA #$80
891A: 8D C9 08 STA $08C9
891D: 00 15 05 INT $0515
8920: A2 14    LDX #$14 ; error number: file open
8922: 90 03    BCC $8927
8924: 4C A0 89 JMP $89A0

8927: AD C8 08 LDA $08C8
892A: 8D D9 B8 STA $B8D9
892D: 00 14 05 INT $0514
8930: A2 14    LDX #$14 ; error number: file open
8932: 90 03    BCC $8937
8934: 4C C5 89 JMP $89C5

8937: AD FD 08 LDA $08FD
893A: 0D FE 08 ORA $08FE
893D: F0 07    BEQ $8946
893F: A2 26    LDX #$26  ; error number: file length read
8941: 90 03    BCC $8946
8943: 4C C5 89 JMP $89C5

8946: AD FC 08 LDA $08FC
8949: C9 20    CMP #$20
894B: D0 05    BNE $8952
894D: AD FB 08 LDA $08FB
8950: C9 00    CMP #$00
8952: 90 03    BCC $8957
8954: 4C B2 89 JMP $89B2

; if length of .BAS file is less than 8KB, read entire file to $2000
8957: 18       CLC
8958: AD FB 08 LDA $08FB
895B: 69 00    ADC #$00
895D: 8D 8D BA STA $BA8D
8960: AD FC 08 LDA $08FC
8963: 69 20    ADC #$20
8965: 8D 8E BA STA $BA8E
8968: AD FB 08 LDA $08FB
896B: 8D C6 08 STA $08C6
896E: AD FC 08 LDA $08FC
8971: 8D C7 08 STA $08C7
8974: A9 00    LDA #$00
8976: 85 E0    STA $E0
8978: A9 20    LDA #$20
897A: 85 E1    STA $E1
897C: 00 16 05 INT $0516
897F: A2 16    LDX #$16
8981: B0 10    BCS $8993
8983: 00 17 05 INT $0517
8986: A2 15    LDX #$15
8988: B0 09    BCS $8993

898A: A9 00    LDA #$00
898C: 8D 4E B9 STA $B94E
898F: 20 7C 68 JSR $687C
8992: 60       RTS

8993: 8A       TXA
8994: 48       PHA
8995: AD D9 B8 LDA $B8D9
8998: 8D C8 08 STA $08C8
899B: 00 17 05 INT $0517
899E: 68       PLA
899F: AA       TAX

89A0: A9 00    LDA #$00
89A2: 8D D9 B8 STA $B8D9
89A5: A9 00    LDA #$00
89A7: 8D DA B8 STA $B8DA
89AA: 4C 9F 67 JMP $679F

89AD: A2 25    LDX #$25
89AF: 4C 9F 67 JMP $679F

; length of .BAS files exceeds 8KB
89B2: A9 80    LDA #$80
89B4: 8D 4E B9 STA $B94E
89B7: A9 00    LDA #$00
89B9: 8D 8D BA STA $BA8D
89BC: A9 24    LDA #$24
89BE: 8D 8E BA STA $BA8E
89C1: 60       RTS

89C2: 4C 42 77 JMP $7742

89C5: 8A       TXA
89C6: 48       PHA
89C7: AD D9 B8 LDA $B8D9
89CA: 8D C8 08 STA $08C8
89CD: 00 17 05 INT $0517
89D0: 68       PLA
89D1: AA       TAX
89D2: 4C 9F 67 JMP $679F

89D5: A9 00    LDA #$00
89D7: A2 11    LDX #$11
89D9: 9D 0A B9 STA $B90A,X
89DC: CA       DEX
89DD: 10 FA    BPL $89D9
89DF: 60       RTS
89E0: 4C 42 77 JMP $7742
89E3: 4C 42 77 JMP $7742
89E6: 20 E5 7D JSR $7DE5
89E9: 48       PHA
89EA: 68       PLA
89EB: D0 06    BNE $89F3
89ED: A2 01    LDX #$01
89EF: 4C 9F 67 JMP $679F
89F2: 60       RTS
89F3: 20 7A 9B JSR $9B7A
89F6: 2C 08 B8 BIT $B808
89F9: 30 05    BMI $8A00
89FB: A2 01    LDX #$01
89FD: 4C 9F 67 JMP $679F
8A00: 20 B6 84 JSR $84B6
8A03: 8D 00 B8 STA $B800
8A06: AD 00 B8 LDA $B800
8A09: D0 03    BNE $8A0E
8A0B: 4C FB 89 JMP $89FB
8A0E: 20 A5 88 JSR $88A5
8A11: 20 F4 88 JSR $88F4
8A14: 10 03    BPL $8A19
8A16: 4C AD 89 JMP $89AD
8A19: 20 20 8A JSR $8A20
8A1C: 20 92 8A JSR $8A92
8A1F: 60       RTS
8A20: A5 5E    LDA $5E
8A22: D0 02    BNE $8A26
8A24: C6 5F    DEC $5F
8A26: C6 5E    DEC $5E
8A28: 20 34 66 JSR $6634
8A2B: C9 81    CMP #$81
8A2D: D0 03    BNE $8A32
8A2F: 20 34 66 JSR $6634
8A32: 48       PHA
8A33: A5 5E    LDA $5E
8A35: 85 80    STA $80
8A37: A5 5F    LDA $5F
8A39: 85 81    STA $81
8A3B: 68       PLA
8A3C: A2 01    LDX #$01
8A3E: C9 84    CMP #$84
8A40: D0 03    BNE $8A45
8A42: 4C 7C 8A JMP $8A7C
8A45: A9 7F    LDA #$7F
8A47: 85 6F    STA $6F
8A49: A9 8A    LDA #$8A
8A4B: 85 70    STA $70
8A4D: A2 01    LDX #$01
8A4F: E8       INX
8A50: A0 FF    LDY #$FF
8A52: C8       INY
8A53: B1 6F    LDA ($6F),Y
8A55: F0 17    BEQ $8A6E
8A57: D1 80    CMP ($80),Y
8A59: F0 F7    BEQ $8A52
8A5B: E9 80    SBC #$80
8A5D: D1 80    CMP ($80),Y
8A5F: F0 11    BEQ $8A72
8A61: 18       CLC
8A62: A5 6F    LDA $6F
8A64: 69 06    ADC #$06
8A66: 85 6F    STA $6F
8A68: 90 E5    BCC $8A4F
8A6A: E6 70    INC $70
8A6C: D0 E1    BNE $8A4F
8A6E: A2 04    LDX #$04
8A70: A0 00    LDY #$00
8A72: 98       TYA
8A73: 18       CLC
8A74: 65 5E    ADC $5E
8A76: 85 5E    STA $5E
8A78: 90 02    BCC $8A7C
8A7A: E6 5F    INC $5F
8A7C: 86 6A    STX $6A
8A7E: 60       RTS

8A7F: 4F       ??
8A80: 55 54    EOR $54,X
8A82: 50 55    BVC $8AD9
8A84: D4       ??
8A85: 41 50    EOR ($50,X)
8A87: 50 45    BVC $8ACE
8A89: 4E C4 52 LSR $52C4
8A8C: 41 4E    EOR ($4E,X)
8A8E: 44       ??
8A8F: 4F       ??
8A90: CD 00 20 CMP $2000
8A93: 34       ??
8A94: 66 C9    ROR $C9
8A96: 41 F0    EOR ($F0,X)
8A98: 03       ??

8A99: 4C FB 89 JMP $89FB
8A9C: 20 34 66 JSR $6634
8A9F: C9 53    CMP #$53
8AA1: F0 03    BEQ $8AA6
8AA3: 4C FB 89 JMP $89FB
8AA6: 20 34 66 JSR $6634
8AA9: C9 23    CMP #$23
8AAB: D0 03    BNE $8AB0
8AAD: 20 34 66 JSR $6634
8AB0: C9 31    CMP #$31
8AB2: 90 2B    BCC $8ADF
8AB4: C9 34    CMP #$34
8AB6: B0 27    BCS $8ADF
8AB8: 38       SEC
8AB9: E9 31    SBC #$31
8ABB: AA       TAX
8ABC: 0A       ASL
8ABD: A8       TAY
8ABE: B9 EC B8 LDA $B8EC,Y
8AC1: D0 19    BNE $8ADC
8AC3: A5 6A    LDA $6A
8AC5: 9D F2 B8 STA $B8F2,X
8AC8: 86 6A    STX $6A
8ACA: 0A       ASL
8ACB: AA       TAX
8ACC: BD E5 8A LDA $8AE5,X
8ACF: 8D 5F B9 STA $B95F
8AD2: BD E6 8A LDA $8AE6,X
8AD5: 8D 60 B9 STA $B960
8AD8: 20 5E B9 JSR $B95E
8ADB: 60       RTS
8ADC: A2 14    LDX #$14
8ADE: 2C A2 01 BIT $01A2
8AE1: 4C 9F 67 JMP $679F
8AE4: 60       RTS

8AE5: 00 00 3B INT $3B00
8AE8: 8B       ??
8AE9: A0 8B    LDY #$8B
8AEB: 12       ??
8AEC: 8C A9 8C STY $8CA9

8AEF: A9 00    LDA #$00
8AF1: 8D 00 B8 STA $B800
8AF4: 0A       ASL
8AF5: 0A       ASL
8AF6: A8       TAY
8AF7: A2 00    LDX #$00
8AF9: BD 8D 08 LDA $088D,X
8AFC: D9 6B B9 CMP $B96B,Y
8AFF: D0 07    BNE $8B08
8B01: C8       INY
8B02: E8       INX
8B03: E0 04    CPX #$04
8B05: 90 F2    BCC $8AF9
8B07: 60       RTS
8B08: EE 00 B8 INC $B800
8B0B: AD 00 B8 LDA $B800
8B0E: C9 03    CMP #$03
8B10: 90 E2    BCC $8AF4
8B12: AD 00 B8 LDA $B800
8B15: 60       RTS
8B16: A5 6A    LDA $6A
8B18: 0A       ASL
8B19: 0A       ASL
8B1A: AA       TAX
8B1B: A0 00    LDY #$00
8B1D: B9 1C B9 LDA $B91C,Y
8B20: 9D 6B B9 STA $B96B,X
8B23: E8       INX
8B24: C8       INY
8B25: C0 04    CPY #$04
8B27: 90 F4    BCC $8B1D
8B29: 60       RTS
8B2A: 0A       ASL
8B2B: 0A       ASL
8B2C: AA       TAX
8B2D: A9 00    LDA #$00
8B2F: A0 00    LDY #$00
8B31: 9D 6B B9 STA $B96B,X
8B34: E8       INX
8B35: C8       INY
8B36: C0 04    CPY #$04
8B38: 90 F7    BCC $8B31
8B3A: 60       RTS
8B3B: A2 0E    LDX #$0E
8B3D: BD 09 B9 LDA $B909,X
8B40: 9D 8C 08 STA $088C,X
8B43: CA       DEX
8B44: D0 F7    BNE $8B3D
8B46: A9 80    LDA #$80
8B48: 8D C9 08 STA $08C9
8B4B: 00 15 05 INT $0515
8B4E: 90 15    BCC $8B65
8B50: AD CC 08 LDA $08CC
8B53: C9 1A    CMP #$1A
8B55: D0 05    BNE $8B5C
8B57: A2 27    LDX #$27
8B59: 4C 9F 67 JMP $679F
8B5C: C9 02    CMP #$02
8B5E: D0 0D    BNE $8B6D
8B60: A2 1E    LDX #$1E
8B62: 4C 9F 67 JMP $679F
8B65: 00 14 05 INT $0514
8B68: 90 08    BCC $8B72
8B6A: 00 17 05 INT $0517
8B6D: A2 14    LDX #$14
8B6F: 4C 9F 67 JMP $679F
8B72: AD FD 08 LDA $08FD
8B75: 0D FE 08 ORA $08FE
8B78: D0 F0    BNE $8B6A
8B7A: A6 6A    LDX $6A
8B7C: 8A       TXA
8B7D: 0A       ASL
8B7E: AA       TAX
8B7F: AD C8 08 LDA $08C8
8B82: 18       CLC
8B83: 69 01    ADC #$01
8B85: 9D EC B8 STA $B8EC,X
8B88: AD FB 08 LDA $08FB
8B8B: 9D F5 B8 STA $B8F5,X
8B8E: AD FC 08 LDA $08FC
8B91: 9D F6 B8 STA $B8F6,X
8B94: A9 00    LDA #$00
8B96: 9D FB B8 STA $B8FB,X
8B99: 9D FC B8 STA $B8FC,X
8B9C: 20 34 66 JSR $6634
8B9F: 60       RTS
8BA0: A2 0E    LDX #$0E
8BA2: BD 09 B9 LDA $B909,X
8BA5: 9D 8C 08 STA $088C,X
8BA8: CA       DEX
8BA9: D0 F7    BNE $8BA2
8BAB: A9 50    LDA #$50
8BAD: 8D C9 08 STA $08C9
8BB0: 00 15 05 INT $0515
8BB3: 90 37    BCC $8BEC
8BB5: AD CC 08 LDA $08CC
8BB8: C9 1A    CMP #$1A
8BBA: D0 05    BNE $8BC1
8BBC: A2 27    LDX #$27
8BBE: 4C 9F 67 JMP $679F
8BC1: A2 14    LDX #$14
8BC3: C9 02    CMP #$02
8BC5: F0 03    BEQ $8BCA
8BC7: 4C 9F 67 JMP $679F
8BCA: A9 EF    LDA #$EF
8BCC: 8D CA 08 STA $08CA
8BCF: A9 EF    LDA #$EF
8BD1: 8D CB 08 STA $08CB
8BD4: A9 60    LDA #$60
8BD6: 8D C9 08 STA $08C9
8BD9: 00 15 05 INT $0515
8BDC: 90 0E    BCC $8BEC
8BDE: A2 13    LDX #$13
8BE0: AD CC 08 LDA $08CC
8BE3: C9 0E    CMP #$0E
8BE5: D0 02    BNE $8BE9
8BE7: A2 12    LDX #$12
8BE9: 4C 9F 67 JMP $679F
8BEC: AD C8 08 LDA $08C8
8BEF: 18       CLC
8BF0: 69 01    ADC #$01
8BF2: 8D 20 B9 STA $B920
8BF5: A6 6A    LDX $6A
8BF7: 8A       TXA
8BF8: 0A       ASL
8BF9: AA       TAX
8BFA: AD 20 B9 LDA $B920
8BFD: 9D EC B8 STA $B8EC,X
8C00: A9 00    LDA #$00
8C02: 9D F5 B8 STA $B8F5,X
8C05: 9D F6 B8 STA $B8F6,X
8C08: 9D FB B8 STA $B8FB,X
8C0B: 9D FC B8 STA $B8FC,X
8C0E: 20 34 66 JSR $6634
8C11: 60       RTS
8C12: A2 0E    LDX #$0E
8C14: BD 09 B9 LDA $B909,X
8C17: 9D 8C 08 STA $088C,X
8C1A: CA       DEX
8C1B: D0 F7    BNE $8C14
8C1D: A9 C0    LDA #$C0
8C1F: 8D C9 08 STA $08C9
8C22: 00 15 05 INT $0515
8C25: 90 41    BCC $8C68
8C27: A2 27    LDX #$27
8C29: AD CC 08 LDA $08CC
8C2C: C9 1A    CMP #$1A
8C2E: D0 03    BNE $8C33
8C30: 4C 9F 67 JMP $679F
8C33: A2 14    LDX #$14
8C35: C9 02    CMP #$02
8C37: F0 03    BEQ $8C3C
8C39: 4C 9F 67 JMP $679F
8C3C: A9 EF    LDA #$EF
8C3E: 8D CA 08 STA $08CA
8C41: A9 EF    LDA #$EF
8C43: 8D CB 08 STA $08CB
8C46: A9 E0    LDA #$E0
8C48: 8D C9 08 STA $08C9
8C4B: 00 15 05 INT $0515
8C4E: A9 00    LDA #$00
8C50: 8D FB 08 STA $08FB
8C53: A9 00    LDA #$00
8C55: 8D FC 08 STA $08FC
8C58: 90 2B    BCC $8C85
8C5A: A2 13    LDX #$13
8C5C: AD CC 08 LDA $08CC
8C5F: C9 0E    CMP #$0E
8C61: D0 02    BNE $8C65
8C63: A2 12    LDX #$12
8C65: 4C 9F 67 JMP $679F
8C68: 00 14 05 INT $0514
8C6B: 90 08    BCC $8C75
8C6D: 00 17 05 INT $0517
8C70: A2 14    LDX #$14
8C72: 4C 9F 67 JMP $679F
8C75: AD FD 08 LDA $08FD
8C78: 0D FE 08 ORA $08FE
8C7B: F0 08    BEQ $8C85
8C7D: 00 17 05 INT $0517
8C80: A2 24    LDX #$24
8C82: 4C 9F 67 JMP $679F
8C85: A6 6A    LDX $6A
8C87: 8A       TXA
8C88: 0A       ASL
8C89: AA       TAX
8C8A: AD C8 08 LDA $08C8
8C8D: 18       CLC
8C8E: 69 01    ADC #$01
8C90: 9D EC B8 STA $B8EC,X
8C93: AD FB 08 LDA $08FB
8C96: 8D F5 B8 STA $B8F5
8C99: 9D FB B8 STA $B8FB,X
8C9C: AD FC 08 LDA $08FC
8C9F: 8D F6 B8 STA $B8F6
8CA2: 9D FC B8 STA $B8FC,X
8CA5: 20 34 66 JSR $6634
8CA8: 60       RTS
8CA9: 20 12 8C JSR $8C12
8CAC: A6 6A    LDX $6A
8CAE: 8E 0A B9 STX $B90A
8CB1: 8A       TXA
8CB2: 0A       ASL
8CB3: AA       TAX
8CB4: A9 00    LDA #$00
8CB6: 9D FB B8 STA $B8FB,X
8CB9: 9D FC B8 STA $B8FC,X
8CBC: A2 14    LDX #$14
8CBE: 20 3A 66 JSR $663A
8CC1: C9 E0    CMP #$E0
8CC3: D0 16    BNE $8CDB
8CC5: 20 34 66 JSR $6634
8CC8: C9 D1    CMP #$D1
8CCA: F0 03    BEQ $8CCF
8CCC: 4C 9F 67 JMP $679F
8CCF: 20 C4 85 JSR $85C4
8CD2: E0 01    CPX #$01
8CD4: 90 05    BCC $8CDB
8CD6: E0 81    CPX #$81
8CD8: B0 01    BCS $8CDB
8CDA: 2C A2 20 BIT $20A2
8CDD: AD 0A B9 LDA $B90A
8CE0: 0A       ASL
8CE1: 18       CLC
8CE2: 6D 0A B9 ADC $B90A
8CE5: A8       TAY
8CE6: 8A       TXA
8CE7: 99 01 B9 STA $B901,Y
8CEA: C8       INY
8CEB: 8C 0A B9 STY $B90A
8CEE: 20 38 7F JSR $7F38
8CF1: 8E 0B B9 STX $B90B
8CF4: 8C 0C B9 STY $B90C
8CF7: AC 0A B9 LDY $B90A
8CFA: AD 0B B9 LDA $B90B
8CFD: 99 01 B9 STA $B901,Y
8D00: AD 0C B9 LDA $B90C
8D03: 99 02 B9 STA $B902,Y
8D06: 60       RTS
8D07: 08       PHP
8D08: 20 E5 7D JSR $7DE5
8D0B: 28       PLP
8D0C: D0 05    BNE $8D13
8D0E: A2 01    LDX #$01
8D10: 4C 9F 67 JMP $679F
8D13: C9 23    CMP #$23
8D15: F0 08    BEQ $8D1F
8D17: A5 5E    LDA $5E
8D19: D0 02    BNE $8D1D
8D1B: C6 5F    DEC $5F
8D1D: C6 5E    DEC $5E
8D1F: 20 C4 85 JSR $85C4
8D22: 8A       TXA
8D23: A2 01    LDX #$01
8D25: C9 04    CMP #$04
8D27: 90 03    BCC $8D2C
8D29: 4C 9F 67 JMP $679F
8D2C: C9 01    CMP #$01
8D2E: B0 03    BCS $8D33
8D30: 4C 9F 67 JMP $679F
8D33: AA       TAX
8D34: CA       DEX
8D35: BD F2 B8 LDA $B8F2,X
8D38: C9 04    CMP #$04
8D3A: F0 03    BEQ $8D3F
8D3C: 4C A5 8D JMP $8DA5
8D3F: 8E 1C B9 STX $B91C
8D42: 18       CLC
8D43: AD 1C B9 LDA $B91C
8D46: 0A       ASL
8D47: 6D 1C B9 ADC $B91C
8D4A: AA       TAX
8D4B: 18       CLC
8D4C: BD 02 B9 LDA $B902,X
8D4F: 85 6F    STA $6F
8D51: 7D 01 B9 ADC $B901,X
8D54: 85 77    STA $77
8D56: BD 03 B9 LDA $B903,X
8D59: 85 70    STA $70
8D5B: 85 78    STA $78
8D5D: 90 02    BCC $8D61
8D5F: E6 78    INC $78
8D61: A9 00    LDA #$00
8D63: 9D 01 B9 STA $B901,X
8D66: 9D 02 B9 STA $B902,X
8D69: 9D 03 B9 STA $B903,X
8D6C: AD C9 B8 LDA $B8C9
8D6F: AE CA B8 LDX $B8CA
8D72: 85 44    STA $44
8D74: 86 45    STX $45
8D76: 20 31 82 JSR $8231
8D79: 90 08    BCC $8D83
8D7B: 20 C4 8D JSR $8DC4
8D7E: 20 69 82 JSR $8269
8D81: B0 F3    BCS $8D76
8D83: 85 61    STA $61
8D85: 86 62    STX $62
8D87: A9 00    LDA #$00
8D89: 8D 04 B8 STA $B804
8D8C: A5 61    LDA $61
8D8E: A6 62    LDX $62
8D90: 85 65    STA $65
8D92: 86 66    STX $66
8D94: 20 BF 81 JSR $81BF
8D97: 90 06    BCC $8D9F
8D99: 20 E9 8D JSR $8DE9
8D9C: 4C 8C 8D JMP $8D8C
8D9F: 20 FE 82 JSR $82FE
8DA2: AE 1C B9 LDX $B91C
8DA5: 8A       TXA
8DA6: 0A       ASL
8DA7: AA       TAX
8DA8: BD EC B8 LDA $B8EC,X
8DAB: 38       SEC
8DAC: E9 01    SBC #$01
8DAE: 8D C8 08 STA $08C8
8DB1: A9 00    LDA #$00
8DB3: 9D EC B8 STA $B8EC,X
8DB6: 9D ED B8 STA $B8ED,X
8DB9: 00 17 05 INT $0517
8DBC: A2 15    LDX #$15
8DBE: 90 03    BCC $8DC3
8DC0: 4C 9F 67 JMP $679F
8DC3: 60       RTS
8DC4: B1 44    LDA ($44),Y
8DC6: F0 1E    BEQ $8DE6
8DC8: C8       INY
8DC9: B1 44    LDA ($44),Y
8DCB: AA       TAX
8DCC: C8       INY
8DCD: B1 44    LDA ($44),Y
8DCF: C5 70    CMP $70
8DD1: 90 13    BCC $8DE6
8DD3: E4 6F    CPX $6F
8DD5: 90 0F    BCC $8DE6
8DD7: C5 78    CMP $78
8DD9: B0 0B    BCS $8DE6
8DDB: E4 77    CPX $77
8DDD: B0 07    BCS $8DE6
8DDF: A9 00    LDA #$00
8DE1: AC 04 B8 LDY $B804
8DE4: 91 44    STA ($44),Y
8DE6: A2 03    LDX #$03
8DE8: 60       RTS
8DE9: E4 62    CPX $62
8DEB: D0 05    BNE $8DF2
8DED: C5 61    CMP $61
8DEF: D0 01    BNE $8DF2
8DF1: 60       RTS
8DF2: A0 00    LDY #$00
8DF4: 8C 04 B8 STY $B804
8DF7: 20 C4 8D JSR $8DC4
8DFA: 18       CLC
8DFB: 8A       TXA
8DFC: 6D 04 B8 ADC $B804
8DFF: 65 44    ADC $44
8E01: 85 44    STA $44
8E03: 90 02    BCC $8E07
8E05: E6 45    INC $45
8E07: A6 45    LDX $45
8E09: 4C E9 8D JMP $8DE9
8E0C: 20 C4 85 JSR $85C4
8E0F: 8A       TXA
8E10: A2 01    LDX #$01
8E12: C9 04    CMP #$04
8E14: 90 03    BCC $8E19
8E16: 4C 9F 67 JMP $679F
8E19: C9 01    CMP #$01
8E1B: B0 03    BCS $8E20
8E1D: 4C 9F 67 JMP $679F
8E20: AA       TAX
8E21: CA       DEX
8E22: 8E 28 B9 STX $B928
8E25: BD F2 B8 LDA $B8F2,X
8E28: C9 01    CMP #$01
8E2A: F0 05    BEQ $8E31
8E2C: A2 01    LDX #$01
8E2E: 4C 9F 67 JMP $679F
8E31: 8A       TXA
8E32: 0A       ASL
8E33: AA       TAX
8E34: BD EC B8 LDA $B8EC,X
8E37: D0 05    BNE $8E3E
8E39: A2 01    LDX #$01
8E3B: 4C 9F 67 JMP $679F
8E3E: BD EC B8 LDA $B8EC,X
8E41: 8D 20 B9 STA $B920
8E44: BD ED B8 LDA $B8ED,X
8E47: 8D 21 B9 STA $B921
8E4A: BD FB B8 LDA $B8FB,X
8E4D: 8D 24 B9 STA $B924
8E50: BD F5 B8 LDA $B8F5,X
8E53: 8D 26 B9 STA $B926
8E56: BD FC B8 LDA $B8FC,X
8E59: 8D 25 B9 STA $B925
8E5C: BD F6 B8 LDA $B8F6,X
8E5F: 8D 27 B9 STA $B927
8E62: 20 DE 95 JSR $95DE
8E65: 20 3A 66 JSR $663A
8E68: C9 2C    CMP #$2C
8E6A: F0 05    BEQ $8E71
8E6C: A2 01    LDX #$01
8E6E: 4C 9F 67 JMP $679F
8E71: 20 34 66 JSR $6634
8E74: 20 D8 96 JSR $96D8
8E77: 85 5C    STA $5C
8E79: 84 5D    STY $5D
8E7B: A6 5E    LDX $5E
8E7D: A4 5F    LDY $5F
8E7F: 8E 05 B8 STX $B805
8E82: 8C 06 B8 STY $B806
8E85: 20 04 96 JSR $9604
8E88: D0 03    BNE $8E8D
8E8A: 4C F6 8E JMP $8EF6
8E8D: 20 28 96 JSR $9628
8E90: 2C 08 B8 BIT $B808
8E93: 10 1B    BPL $8EB0
8E95: 8D 00 B8 STA $B800
8E98: C9 22    CMP #$22
8E9A: F0 08    BEQ $8EA4
8E9C: A9 FF    LDA #$FF
8E9E: 8D 00 B8 STA $B800
8EA1: A9 2C    LDA #$2C
8EA3: 18       CLC
8EA4: 8D 01 B8 STA $B801
8EA7: 20 FE 8E JSR $8EFE
8EAA: 20 F3 77 JSR $77F3
8EAD: 4C BC 8E JMP $8EBC
8EB0: 20 1A 96 JSR $961A
8EB3: 20 D8 A2 JSR $A2D8
8EB6: AD 09 B8 LDA $B809
8EB9: 20 DB 77 JSR $77DB
8EBC: 20 04 96 JSR $9604
8EBF: F0 0E    BEQ $8ECF
8EC1: AD 2A B9 LDA $B92A
8EC4: C9 FF    CMP #$FF
8EC6: F0 07    BEQ $8ECF
8EC8: C9 2C    CMP #$2C
8ECA: F0 03    BEQ $8ECF
8ECC: 4C F9 8E JMP $8EF9
8ECF: AD 05 B8 LDA $B805
8ED2: AC 06 B8 LDY $B806
8ED5: 85 5E    STA $5E
8ED7: 84 5F    STY $5F
8ED9: 20 3A 66 JSR $663A
8EDC: F0 06    BEQ $8EE4
8EDE: 20 F2 9C JSR $9CF2
8EE1: 4C 74 8E JMP $8E74
8EE4: AD 28 B9 LDA $B928
8EE7: 0A       ASL
8EE8: AA       TAX
8EE9: AD 24 B9 LDA $B924
8EEC: 9D FB B8 STA $B8FB,X
8EEF: AD 25 B9 LDA $B925
8EF2: 9D FC B8 STA $B8FC,X
8EF5: 60       RTS
8EF6: A2 03    LDX #$03
8EF8: 2C A2 0C BIT $0CA2
8EFB: 4C 9F 67 JMP $679F
8EFE: 90 03    BCC $8F03
8F00: 20 1A 96 JSR $961A
8F03: AD 24 B9 LDA $B924
8F06: 85 56    STA $56
8F08: AD 25 B9 LDA $B925
8F0B: 85 57    STA $57
8F0D: A0 FF    LDY #$FF
8F0F: 8C 02 B8 STY $B802
8F12: EE 02 B8 INC $B802
8F15: 20 1A 96 JSR $961A
8F18: CD 00 B8 CMP $B800
8F1B: F0 05    BEQ $8F22
8F1D: CD 01 B8 CMP $B801
8F20: D0 F0    BNE $8F12
8F22: A6 56    LDX $56
8F24: 8E 24 B9 STX $B924
8F27: A6 57    LDX $57
8F29: 8E 25 B9 STX $B925
8F2C: 85 56    STA $56
8F2E: AD 02 B8 LDA $B802
8F31: 20 BE 7E JSR $7EBE
8F34: 20 DE 95 JSR $95DE
8F37: A0 00    LDY #$00
8F39: 8C 00 B8 STY $B800
8F3C: 20 1A 96 JSR $961A
8F3F: AC 00 B8 LDY $B800
8F42: 91 70    STA ($70),Y
8F44: C8       INY
8F45: CC 02 B8 CPY $B802
8F48: 90 EF    BCC $8F39
8F4A: A5 56    LDA $56
8F4C: C9 22    CMP #$22
8F4E: D0 03    BNE $8F53
8F50: 20 1A 96 JSR $961A
8F53: 20 1A 96 JSR $961A
8F56: A6 42    LDX $42
8F58: E0 52    CPX #$52
8F5A: D0 05    BNE $8F61
8F5C: A2 0E    LDX #$0E
8F5E: 4C 9F 67 JMP $679F
8F61: 20 1A 7F JSR $7F1A
8F64: 60       RTS
8F65: 48       PHA
8F66: 20 E5 7D JSR $7DE5
8F69: A9 00    LDA #$00
8F6B: 8D 0C B8 STA $B80C
8F6E: 68       PLA
8F6F: D0 03    BNE $8F74
8F71: 4C AD 78 JMP $78AD
8F74: C9 23    CMP #$23
8F76: D0 71    BNE $8FE9
8F78: A9 FF    LDA #$FF
8F7A: 8D 0C B8 STA $B80C
8F7D: 20 C4 85 JSR $85C4
8F80: 8A       TXA
8F81: A2 01    LDX #$01
8F83: C9 04    CMP #$04
8F85: 90 03    BCC $8F8A
8F87: 4C 9F 67 JMP $679F
8F8A: C9 01    CMP #$01
8F8C: B0 03    BCS $8F91
8F8E: 4C 9F 67 JMP $679F
8F91: AA       TAX
8F92: CA       DEX
8F93: 8E 28 B9 STX $B928
8F96: BD F2 B8 LDA $B8F2,X
8F99: C9 02    CMP #$02
8F9B: F0 09    BEQ $8FA6
8F9D: C9 03    CMP #$03
8F9F: F0 05    BEQ $8FA6
8FA1: A2 01    LDX #$01
8FA3: 4C 9F 67 JMP $679F
8FA6: 8A       TXA
8FA7: 0A       ASL
8FA8: AA       TAX
8FA9: BD EC B8 LDA $B8EC,X
8FAC: D0 05    BNE $8FB3
8FAE: A2 01    LDX #$01
8FB0: 4C 9F 67 JMP $679F
8FB3: BD EC B8 LDA $B8EC,X
8FB6: 8D 20 B9 STA $B920
8FB9: BD ED B8 LDA $B8ED,X
8FBC: 8D 21 B9 STA $B921
8FBF: B9 F5 B8 LDA $B8F5,Y
8FC2: 8D 26 B9 STA $B926
8FC5: B9 FB B8 LDA $B8FB,Y
8FC8: 8D 24 B9 STA $B924
8FCB: B9 F6 B8 LDA $B8F6,Y
8FCE: 8D 27 B9 STA $B927
8FD1: B9 FC B8 LDA $B8FC,Y
8FD4: 8D 25 B9 STA $B925
8FD7: 20 DE 95 JSR $95DE
8FDA: 20 3A 66 JSR $663A
8FDD: C9 2C    CMP #$2C
8FDF: F0 05    BEQ $8FE6
8FE1: A2 01    LDX #$01
8FE3: 4C 9F 67 JMP $679F
8FE6: 20 34 66 JSR $6634
8FE9: 48       PHA
8FEA: A9 00    LDA #$00
8FEC: 8D C6 B8 STA $B8C6
8FEF: 68       PLA
8FF0: 20 7A 9B JSR $9B7A
8FF3: AD 08 B8 LDA $B808
8FF6: 8D 03 B8 STA $B803
8FF9: 30 06    BMI $9001
8FFB: 20 8E A4 JSR $A48E
8FFE: 20 D0 7E JSR $7ED0
9001: AD 03 B8 LDA $B803
9004: 10 05    BPL $900B
9006: A9 22    LDA #$22
9008: 20 1A 73 JSR $731A
900B: 20 97 79 JSR $7997
900E: CE C6 B8 DEC $B8C6
9011: AD 03 B8 LDA $B803
9014: 10 05    BPL $901B
9016: A9 22    LDA #$22
9018: 20 1A 73 JSR $731A
901B: 20 3A 66 JSR $663A
901E: D0 35    BNE $9055
9020: AD 0C B8 LDA $B80C
9023: 10 05    BPL $902A
9025: A9 FF    LDA #$FF
9027: 20 1A 73 JSR $731A
902A: A9 00    LDA #$00
902C: 20 1A 73 JSR $731A
902F: AD 0C B8 LDA $B80C
9032: 10 1B    BPL $904F
9034: 20 7F 90 JSR $907F
9037: AD 28 B9 LDA $B928
903A: 0A       ASL
903B: AA       TAX
903C: AD 24 B9 LDA $B924
903F: 9D F5 B8 STA $B8F5,X
9042: 9D FB B8 STA $B8FB,X
9045: AD 25 B9 LDA $B925
9048: 9D F6 B8 STA $B8F6,X
904B: 9D FC B8 STA $B8FC,X
904E: 60       RTS
904F: 20 9C 6F JSR $6F9C
9052: 4C 9A AD JMP $AD9A
9055: C9 2C    CMP #$2C
9057: F0 03    BEQ $905C
9059: 4C E9 8F JMP $8FE9
905C: 20 34 66 JSR $6634
905F: D0 03    BNE $9064
9061: 4C 20 90 JMP $9020
9064: A9 2C    LDA #$2C
9066: 20 1A 73 JSR $731A
9069: A9 00    LDA #$00
906B: 20 1A 73 JSR $731A
906E: AD 0C B8 LDA $B80C
9071: 10 06    BPL $9079
9073: 20 7F 90 JSR $907F
9076: 4C E9 8F JMP $8FE9
9079: 20 9C 6F JSR $6F9C
907C: 4C E9 8F JMP $8FE9
907F: A5 5E    LDA $5E
9081: 8D 05 B8 STA $B805
9084: A5 5F    LDA $5F
9086: 8D 06 B8 STA $B806
9089: A0 00    LDY #$00
908B: B9 99 B9 LDA $B999,Y
908E: F0 06    BEQ $9096
9090: C8       INY
9091: D0 F8    BNE $908B
9093: 4C A7 90 JMP $90A7
9096: 98       TYA
9097: F0 0E    BEQ $90A7
9099: 8D 00 B8 STA $B800
909C: A9 99    LDA #$99
909E: 85 80    STA $80
90A0: A9 B9    LDA #$B9
90A2: 85 81    STA $81
90A4: 20 7B 96 JSR $967B
90A7: AD 05 B8 LDA $B805
90AA: 85 5E    STA $5E
90AC: AD 06 B8 LDA $B806
90AF: 85 5F    STA $5F
90B1: 60       RTS
90B2: 08       PHP
90B3: 20 E5 7D JSR $7DE5
90B6: 28       PLP
90B7: D0 03    BNE $90BC
90B9: 4C 8E 91 JMP $918E
90BC: C9 23    CMP #$23
90BE: F0 08    BEQ $90C8
90C0: A5 5E    LDA $5E
90C2: D0 02    BNE $90C6
90C4: C6 5F    DEC $5F
90C6: C6 5E    DEC $5E
90C8: A9 00    LDA #$00
90CA: 8D 01 B8 STA $B801
90CD: 20 C4 85 JSR $85C4
90D0: 8A       TXA
90D1: A2 01    LDX #$01
90D3: C9 04    CMP #$04
90D5: 90 03    BCC $90DA
90D7: 4C 9F 67 JMP $679F
90DA: C9 01    CMP #$01
90DC: B0 03    BCS $90E1
90DE: 4C 9F 67 JMP $679F
90E1: AA       TAX
90E2: CA       DEX
90E3: 8A       TXA
90E4: 8E 00 B8 STX $B800
90E7: 0A       ASL
90E8: 6D 00 B8 ADC $B800
90EB: A8       TAY
90EC: BD F2 B8 LDA $B8F2,X
90EF: C9 04    CMP #$04
90F1: F0 03    BEQ $90F6
90F3: 4C 8E 91 JMP $918E
90F6: 8A       TXA
90F7: 0A       ASL
90F8: AA       TAX
90F9: BD EC B8 LDA $B8EC,X
90FC: D0 03    BNE $9101
90FE: 4C 8E 91 JMP $918E
9101: B9 01 B9 LDA $B901,Y
9104: 8D 00 B8 STA $B800
9107: C8       INY
9108: B9 01 B9 LDA $B901,Y
910B: 85 56    STA $56
910D: B9 02 B9 LDA $B902,Y
9110: 85 57    STA $57
9112: A9 00    LDA #$00
9114: A0 00    LDY #$00
9116: 91 56    STA ($56),Y
9118: C8       INY
9119: CC 00 B8 CPY $B800
911C: 90 F8    BCC $9116
911E: 20 3A 66 JSR $663A
9121: C9 2C    CMP #$2C
9123: F0 03    BEQ $9128
9125: 4C 8E 91 JMP $918E
9128: 20 C4 85 JSR $85C4
912B: 18       CLC
912C: AD 01 B8 LDA $B801
912F: 65 73    ADC $73
9131: 8D 01 B8 STA $B801
9134: CD 00 B8 CMP $B800
9137: 90 07    BCC $9140
9139: F0 05    BEQ $9140
913B: A2 03    LDX #$03
913D: 4C 9F 67 JMP $679F
9140: 20 3A 66 JSR $663A
9143: C9 41    CMP #$41
9145: F0 03    BEQ $914A
9147: 4C 8E 91 JMP $918E
914A: 20 34 66 JSR $6634
914D: C9 53    CMP #$53
914F: F0 03    BEQ $9154
9151: 4C 8E 91 JMP $918E
9154: 20 34 66 JSR $6634
9157: 20 D8 96 JSR $96D8
915A: 2C 08 B8 BIT $B808
915D: 30 03    BMI $9162
915F: 4C 8E 91 JMP $918E
9162: 85 5C    STA $5C
9164: 84 5D    STY $5D
9166: A0 00    LDY #$00
9168: A5 73    LDA $73
916A: 91 5C    STA ($5C),Y
916C: C8       INY
916D: A5 56    LDA $56
916F: 91 5C    STA ($5C),Y
9171: C8       INY
9172: A5 57    LDA $57
9174: 91 5C    STA ($5C),Y
9176: 20 3A 66 JSR $663A
9179: D0 01    BNE $917C
917B: 60       RTS
917C: C9 2C    CMP #$2C
917E: D0 0E    BNE $918E
9180: 18       CLC
9181: A5 73    LDA $73
9183: 65 56    ADC $56
9185: 85 56    STA $56
9187: 90 02    BCC $918B
9189: E6 57    INC $57
918B: 4C 28 91 JMP $9128
918E: A2 01    LDX #$01
9190: 4C 9F 67 JMP $679F

9193: A2 21    LDX #$21
9195: 4C 9F 67 JMP $679F

9198: 08       PHP
9199: 20 E5 7D JSR $7DE5
919C: 28       PLP
919D: D0 03    BNE $91A2
919F: 4C 8E 91 JMP $918E
91A2: C9 23    CMP #$23
91A4: F0 08    BEQ $91AE
91A6: A5 5E    LDA $5E
91A8: D0 02    BNE $91AC
91AA: C6 5F    DEC $5F
91AC: C6 5E    DEC $5E
91AE: 20 C4 85 JSR $85C4
91B1: E0 04    CPX #$04
91B3: 90 03    BCC $91B8
91B5: 4C 93 91 JMP $9193
91B8: E0 01    CPX #$01
91BA: B0 03    BCS $91BF
91BC: 4C 93 91 JMP $9193
91BF: CA       DEX
91C0: 8A       TXA
91C1: 8E 28 B9 STX $B928
91C4: BD F2 B8 LDA $B8F2,X
91C7: C9 04    CMP #$04
91C9: F0 03    BEQ $91CE
91CB: 4C 8E 91 JMP $918E
91CE: 8A       TXA
91CF: 0A       ASL
91D0: AA       TAX
91D1: BD EC B8 LDA $B8EC,X
91D4: D0 03    BNE $91D9
91D6: 4C 8E 91 JMP $918E
91D9: BD EC B8 LDA $B8EC,X
91DC: 8D 20 B9 STA $B920
91DF: BD ED B8 LDA $B8ED,X
91E2: 8D 21 B9 STA $B921
91E5: BD F5 B8 LDA $B8F5,X
91E8: 8D 26 B9 STA $B926
91EB: BD F6 B8 LDA $B8F6,X
91EE: 8D 27 B9 STA $B927
91F1: 8A       TXA
91F2: 18       CLC
91F3: 6D 28 B9 ADC $B928
91F6: 8D 00 B8 STA $B800
91F9: 20 F2 9C JSR $9CF2
91FC: 20 7A 9B JSR $9B7A
91FF: AD 08 B8 LDA $B808
9202: 10 03    BPL $9207
9204: 4C 8E 91 JMP $918E
9207: 20 E3 A1 JSR $A1E3
920A: 20 AC 98 JSR $98AC
920D: AE 00 B8 LDX $B800
9210: BD 01 B9 LDA $B901,X
9213: 8D 00 B8 STA $B800
9216: E8       INX
9217: BD 01 B9 LDA $B901,X
921A: 85 6F    STA $6F
921C: BD 02 B9 LDA $B902,X
921F: 85 70    STA $70
9221: 20 B4 92 JSR $92B4
9224: A5 72    LDA $72
9226: 05 73    ORA $73
9228: D0 03    BNE $922D
922A: 4C 0C 94 JMP $940C
922D: A5 72    LDA $72
922F: A6 73    LDX $73
9231: 86 72    STX $72
9233: 85 73    STA $73
9235: A5 72    LDA $72
9237: D0 02    BNE $923B
9239: C6 73    DEC $73
923B: C6 72    DEC $72
923D: A5 72    LDA $72
923F: 85 80    STA $80
9241: A5 73    LDA $73
9243: 85 81    STA $81
9245: AD 00 B8 LDA $B800
9248: 85 82    STA $82
924A: 20 3F A9 JSR $A93F
924D: A5 85    LDA $85
924F: F0 03    BEQ $9254
9251: 4C 0C 94 JMP $940C
9254: 18       CLC
9255: A5 83    LDA $83
9257: 6D 00 B8 ADC $B800
925A: 85 80    STA $80
925C: A5 84    LDA $84
925E: 69 00    ADC #$00
9260: 85 81    STA $81
9262: A5 81    LDA $81
9264: CD 27 B9 CMP $B927
9267: D0 05    BNE $926E
9269: A5 80    LDA $80
926B: CD 26 B9 CMP $B926
926E: 90 05    BCC $9275
9270: F0 03    BEQ $9275
9272: 4C 0C 94 JMP $940C
9275: A5 83    LDA $83
9277: 8D 24 B9 STA $B924
927A: A5 84    LDA $84
927C: 8D 25 B9 STA $B925
927F: 20 DE 95 JSR $95DE
9282: A5 5E    LDA $5E
9284: 8D 05 B8 STA $B805
9287: A5 5F    LDA $5F
9289: 8D 06 B8 STA $B806
928C: A9 00    LDA #$00
928E: 8D 01 B8 STA $B801
9291: 20 04 96 JSR $9604
9294: F0 13    BEQ $92A9
9296: 20 1A 96 JSR $961A
9299: AC 01 B8 LDY $B801
929C: 91 6F    STA ($6F),Y
929E: EE 01 B8 INC $B801
92A1: AD 01 B8 LDA $B801
92A4: CD 00 B8 CMP $B800
92A7: 90 E8    BCC $9291
92A9: AD 05 B8 LDA $B805
92AC: 85 5E    STA $5E
92AE: AD 06 B8 LDA $B806
92B1: 85 5F    STA $5F
92B3: 60       RTS
92B4: A0 00    LDY #$00
92B6: A9 00    LDA #$00
92B8: 91 6F    STA ($6F),Y
92BA: C8       INY
92BB: CC 00 B8 CPY $B800
92BE: 90 F8    BCC $92B8
92C0: 60       RTS
92C1: 08       PHP
92C2: 20 E5 7D JSR $7DE5
92C5: 28       PLP
92C6: D0 03    BNE $92CB
92C8: 4C 8E 91 JMP $918E
92CB: C9 23    CMP #$23
92CD: F0 08    BEQ $92D7
92CF: A5 5E    LDA $5E
92D1: D0 02    BNE $92D5
92D3: C6 5F    DEC $5F
92D5: C6 5E    DEC $5E
92D7: 20 C4 85 JSR $85C4
92DA: E0 04    CPX #$04
92DC: 90 03    BCC $92E1
92DE: 4C 8E 91 JMP $918E
92E1: E0 01    CPX #$01
92E3: B0 03    BCS $92E8
92E5: 4C 8E 91 JMP $918E
92E8: CA       DEX
92E9: 8A       TXA
92EA: 8E 28 B9 STX $B928
92ED: BD F2 B8 LDA $B8F2,X
92F0: C9 04    CMP #$04
92F2: F0 03    BEQ $92F7
92F4: 4C 8E 91 JMP $918E
92F7: 8A       TXA
92F8: 0A       ASL
92F9: AA       TAX
92FA: BD EC B8 LDA $B8EC,X
92FD: D0 03    BNE $9302
92FF: 4C 8E 91 JMP $918E
9302: BD EC B8 LDA $B8EC,X
9305: 8D 20 B9 STA $B920
9308: BD ED B8 LDA $B8ED,X
930B: 8D 21 B9 STA $B921
930E: BD F5 B8 LDA $B8F5,X
9311: 8D 26 B9 STA $B926
9314: BD F6 B8 LDA $B8F6,X
9317: 8D 27 B9 STA $B927
931A: 8A       TXA
931B: 18       CLC
931C: 6D 28 B9 ADC $B928
931F: 8D 00 B8 STA $B800
9322: 20 F2 9C JSR $9CF2
9325: 20 7A 9B JSR $9B7A
9328: AD 08 B8 LDA $B808
932B: 10 03    BPL $9330
932D: 4C 8E 91 JMP $918E
9330: 20 E3 A1 JSR $A1E3
9333: 20 AC 98 JSR $98AC
9336: AE 00 B8 LDX $B800
9339: BD 01 B9 LDA $B901,X
933C: 8D 00 B8 STA $B800
933F: E8       INX
9340: BD 01 B9 LDA $B901,X
9343: 85 6F    STA $6F
9345: BD 02 B9 LDA $B902,X
9348: 85 70    STA $70
934A: A5 72    LDA $72
934C: 05 73    ORA $73
934E: D0 03    BNE $9353
9350: 4C 0C 94 JMP $940C
9353: A5 72    LDA $72
9355: A6 73    LDX $73
9357: 86 72    STX $72
9359: 85 73    STA $73
935B: A5 72    LDA $72
935D: D0 02    BNE $9361
935F: C6 73    DEC $73
9361: C6 72    DEC $72
9363: A5 72    LDA $72
9365: 85 80    STA $80
9367: A5 73    LDA $73
9369: 85 81    STA $81
936B: AD 00 B8 LDA $B800
936E: 85 82    STA $82
9370: 20 3F A9 JSR $A93F
9373: A5 85    LDA $85
9375: F0 03    BEQ $937A
9377: 4C 0C 94 JMP $940C
937A: A5 84    LDA $84
937C: CD 27 B9 CMP $B927
937F: D0 05    BNE $9386
9381: A5 83    LDA $83
9383: CD 26 B9 CMP $B926
9386: F0 05    BEQ $938D
9388: 90 03    BCC $938D
938A: 4C 0C 94 JMP $940C
938D: 18       CLC
938E: A5 83    LDA $83
9390: 6D 00 B8 ADC $B800
9393: 85 80    STA $80
9395: A5 84    LDA $84
9397: 69 00    ADC #$00
9399: 85 81    STA $81
939B: B0 0C    BCS $93A9
939D: A5 81    LDA $81
939F: C9 FF    CMP #$FF
93A1: D0 04    BNE $93A7
93A3: A5 80    LDA $80
93A5: C9 FE    CMP #$FE
93A7: 90 05    BCC $93AE
93A9: A2 26    LDX #$26
93AB: 4C 9F 67 JMP $679F
93AE: A5 83    LDA $83
93B0: 8D 24 B9 STA $B924
93B3: A5 84    LDA $84
93B5: 8D 25 B9 STA $B925
93B8: 20 DE 95 JSR $95DE
93BB: A5 5E    LDA $5E
93BD: 8D 05 B8 STA $B805
93C0: A5 5F    LDA $5F
93C2: 8D 06 B8 STA $B806
93C5: AC 00 B8 LDY $B800
93C8: B1 6F    LDA ($6F),Y
93CA: 99 99 B9 STA $B999,Y
93CD: 88       DEY
93CE: D0 F8    BNE $93C8
93D0: B1 6F    LDA ($6F),Y
93D2: 99 99 B9 STA $B999,Y
93D5: A9 99    LDA #$99
93D7: 85 80    STA $80
93D9: A9 B9    LDA #$B9
93DB: 85 81    STA $81
93DD: 20 7B 96 JSR $967B
93E0: AD 28 B9 LDA $B928
93E3: 0A       ASL
93E4: AA       TAX
93E5: AD 25 B9 LDA $B925
93E8: DD F6 B8 CMP $B8F6,X
93EB: D0 06    BNE $93F3
93ED: AD 24 B9 LDA $B924
93F0: DD F5 B8 CMP $B8F5,X
93F3: 90 0C    BCC $9401
93F5: AD 24 B9 LDA $B924
93F8: 9D F5 B8 STA $B8F5,X
93FB: AD 25 B9 LDA $B925
93FE: 9D F6 B8 STA $B8F6,X
9401: AD 05 B8 LDA $B805
9404: 85 5E    STA $5E
9406: AD 06 B8 LDA $B806
9409: 85 5F    STA $5F
940B: 60       RTS
940C: A2 20    LDX #$20
940E: 4C 9F 67 JMP $679F
9411: 20 4F 94 JSR $944F
9414: CD 00 B8 CMP $B800
9417: B0 10    BCS $9429
9419: 8D 00 B8 STA $B800
941C: A0 00    LDY #$00
941E: B1 44    LDA ($44),Y
9420: 91 60    STA ($60),Y
9422: C8       INY
9423: CC 00 B8 CPY $B800
9426: 90 F6    BCC $941E
9428: 60       RTS
9429: ED 00 B8 SBC $B800
942C: F0 6F    BEQ $949D
942E: 8E 00 B8 STX $B800
9431: 8D 01 B8 STA $B801
9434: A0 00    LDY #$00
9436: A9 20    LDA #$20
9438: 91 60    STA ($60),Y
943A: C8       INY
943B: CC 01 B8 CPY $B801
943E: 90 F8    BCC $9438
9440: A5 44    LDA $44
9442: ED 01 B8 SBC $B801
9445: 85 44    STA $44
9447: B0 02    BCS $944B
9449: C6 45    DEC $45
944B: 4C 1E 94 JMP $941E
944E: 60       RTS
944F: 20 D8 96 JSR $96D8
9452: 85 5C    STA $5C
9454: 84 5D    STY $5D
9456: AD 08 B8 LDA $B808
9459: 30 03    BMI $945E
945B: 4C 8E 91 JMP $918E
945E: A9 D1    LDA #$D1
9460: 20 F4 9C JSR $9CF4
9463: AD 08 B8 LDA $B808
9466: 48       PHA
9467: 20 7A 9B JSR $9B7A
946A: 68       PLA
946B: 2A       ROL
946C: 20 32 7D JSR $7D32
946F: 20 B6 84 JSR $84B6
9472: 8D 00 B8 STA $B800
9475: A0 01    LDY #$01
9477: B1 5C    LDA ($5C),Y
9479: 85 60    STA $60
947B: C8       INY
947C: B1 5C    LDA ($5C),Y
947E: 85 61    STA $61
9480: A0 00    LDY #$00
9482: B1 5C    LDA ($5C),Y
9484: D0 03    BNE $9489
9486: 68       PLA
9487: 68       PLA
9488: 60       RTS
9489: AA       TAX
948A: 60       RTS
948B: 20 4F 94 JSR $944F
948E: CD 00 B8 CMP $B800
9491: A9 00    LDA #$00
9493: F0 03    BEQ $9498
9495: 90 01    BCC $9498
9497: 8A       TXA
9498: 8D 01 B8 STA $B801
949B: A0 00    LDY #$00
949D: B1 44    LDA ($44),Y
949F: 91 60    STA ($60),Y
94A1: C8       INY
94A2: CC 00 B8 CPY $B800
94A5: 90 F6    BCC $949D
94A7: AD 01 B8 LDA $B801
94AA: D0 01    BNE $94AD
94AC: 60       RTS
94AD: A9 20    LDA #$20
94AF: 91 60    STA ($60),Y
94B1: C8       INY
94B2: CC 01 B8 CPY $B801
94B5: 90 F8    BCC $94AF
94B7: 60       RTS

94B8: 20 2F 7D JSR $7D2F
94BB: A9 03    LDA #$03
94BD: 20 5F 67 JSR $675F
94C0: A2 99    LDX #$99
94C2: A0 B9    LDY #$B9
94C4: 86 7D    STX $7D
94C6: 84 7E    STY $7E
94C8: 20 99 A1 JSR $A199
94CB: 68       PLA
94CC: 68       PLA
94CD: A0 05    LDY #$05
94CF: 20 04 7F JSR $7F04
94D2: 60       RTS

94D3: 20 2F 7D JSR $7D2F
94D6: 20 E3 A1 JSR $A1E3
94D9: 20 AC 98 JSR $98AC
94DC: A9 01    LDA #$01
94DE: 20 5F 67 JSR $675F
94E1: A0 00    LDY #$00
94E3: A5 73    LDA $73
94E5: 99 99 B9 STA $B999,Y
94E8: C8       INY
94E9: A5 72    LDA $72
94EB: 99 99 B9 STA $B999,Y
94EE: 68       PLA
94EF: 68       PLA
94F0: A2 99    LDX #$99
94F2: A0 B9    LDY #$B9
94F4: 86 7D    STX $7D
94F6: 84 7E    STY $7E
94F8: A0 02    LDY #$02
94FA: 4C 04 7F JMP $7F04

94FD: 20 31 7D JSR $7D31
9500: 20 B6 84 JSR $84B6
9503: D0 01    BNE $9506
9505: 60       RTS
9506: C9 05    CMP #$05
9508: F0 05    BEQ $950F
950A: A2 01    LDX #$01
950C: 4C 9F 67 JMP $679F
950F: A9 00    LDA #$00
9511: 8D 08 B8 STA $B808
9514: 8D 09 B8 STA $B809
9517: A5 44    LDA $44
9519: A4 45    LDY $45
951B: 20 66 A1 JSR $A166
951E: 60       RTS
951F: 20 31 7D JSR $7D31
9522: 20 B6 84 JSR $84B6
9525: D0 01    BNE $9528
9527: 60       RTS
9528: C9 02    CMP #$02
952A: F0 05    BEQ $9531
952C: A2 01    LDX #$01
952E: 4C 9F 67 JMP $679F
9531: A9 00    LDA #$00
9533: 8D 08 B8 STA $B808
9536: A9 80    LDA #$80
9538: 8D 09 B8 STA $B809
953B: A0 01    LDY #$01
953D: B1 44    LDA ($44),Y
953F: AA       TAX
9540: 88       DEY
9541: B1 44    LDA ($44),Y
9543: A8       TAY
9544: 8A       TXA
9545: 4C CF 7D JMP $7DCF

9548: 08       PHP
9549: 20 E5 7D JSR $7DE5
954C: 28       PLP
954D: 20 2F 7D JSR $7D2F
9550: 20 E3 A1 JSR $A1E3
9553: 20 AC 98 JSR $98AC
9556: A5 72    LDA $72
9558: F0 03    BEQ $955D
955A: 4C 93 91 JMP $9193
955D: A5 73    LDA $73
955F: C9 04    CMP #$04
9561: 90 03    BCC $9566
9563: 4C 93 91 JMP $9193
9566: C9 01    CMP #$01
9568: B0 03    BCS $956D
956A: 4C 93 91 JMP $9193
956D: E9 01    SBC #$01
956F: AA       TAX
9570: BD F2 B8 LDA $B8F2,X
9573: C9 04    CMP #$04
9575: F0 03    BEQ $957A
9577: 4C D9 95 JMP $95D9
957A: 8A       TXA
957B: 0A       ASL
957C: AA       TAX
957D: BD F5 B8 LDA $B8F5,X
9580: A8       TAY
9581: BD F6 B8 LDA $B8F6,X
9584: 85 70    STA $70
9586: 84 71    STY $71
9588: 4C 22 A2 JMP $A222

958B: 08       PHP
958C: 20 E5 7D JSR $7DE5
958F: 28       PLP
9590: 20 2F 7D JSR $7D2F
9593: 20 E3 A1 JSR $A1E3
9596: 20 AC 98 JSR $98AC
9599: A5 72    LDA $72
959B: F0 03    BEQ $95A0
959D: 4C 93 91 JMP $9193
95A0: A5 73    LDA $73
95A2: C9 04    CMP #$04
95A4: 90 03    BCC $95A9
95A6: 4C 93 91 JMP $9193
95A9: C9 01    CMP #$01
95AB: B0 03    BCS $95B0
95AD: 4C 93 91 JMP $9193
95B0: E9 01    SBC #$01
95B2: AA       TAX
95B3: BD F2 B8 LDA $B8F2,X
95B6: C9 01    CMP #$01
95B8: F0 03    BEQ $95BD
95BA: 4C D9 95 JMP $95D9
95BD: 8A       TXA
95BE: 0A       ASL
95BF: AA       TAX
95C0: A0 00    LDY #$00
95C2: BD FB B8 LDA $B8FB,X
95C5: DD F5 B8 CMP $B8F5,X
95C8: D0 06    BNE $95D0
95CA: BD FC B8 LDA $B8FC,X
95CD: DD F6 B8 CMP $B8F6,X
95D0: D0 02    BNE $95D4
95D2: A0 01    LDY #$01
95D4: A9 00    LDA #$00
95D6: 4C CF 7D JMP $7DCF
95D9: A2 22    LDX #$22
95DB: 20 9F 67 JSR $679F
95DE: AD 20 B9 LDA $B920
95E1: 38       SEC
95E2: E9 01    SBC #$01
95E4: 8D C8 08 STA $08C8
95E7: A9 00    LDA #$00
95E9: 8D D1 08 STA $08D1
95EC: AD 24 B9 LDA $B924
95EF: 8D CD 08 STA $08CD
95F2: AD 25 B9 LDA $B925
95F5: 8D CE 08 STA $08CE
95F8: A9 00    LDA #$00
95FA: 8D CF 08 STA $08CF
95FD: 8D D0 08 STA $08D0
9600: 00 19 05 INT $0519
9603: 60       RTS

9604: AD 25 B9 LDA $B925
9607: CD 27 B9 CMP $B927
960A: D0 06    BNE $9612
960C: AD 24 B9 LDA $B924
960F: CD 26 B9 CMP $B926
9612: B0 03    BCS $9617
9614: A9 FF    LDA #$FF
9616: 60       RTS
9617: A9 00    LDA #$00
9619: 60       RTS
961A: 20 31 96 JSR $9631
961D: EE 24 B9 INC $B924
9620: D0 03    BNE $9625
9622: EE 25 B9 INC $B925
9625: 4C 6D 96 JMP $966D
9628: 20 31 96 JSR $9631
962B: 20 DE 95 JSR $95DE
962E: 4C 6D 96 JMP $966D
9631: AD 25 B9 LDA $B925
9634: CD 27 B9 CMP $B927
9637: D0 06    BNE $963F
9639: AD 24 B9 LDA $B924
963C: CD 26 B9 CMP $B926
963F: 90 06    BCC $9647
9641: A9 FF    LDA #$FF
9643: 8D 2A B9 STA $B92A
9646: 60       RTS
9647: AD 20 B9 LDA $B920
964A: 38       SEC
964B: E9 01    SBC #$01
964D: 8D C8 08 STA $08C8
9650: A9 2A    LDA #$2A
9652: 85 E0    STA $E0
9654: A9 B9    LDA #$B9
9656: 85 E1    STA $E1
9658: A9 01    LDA #$01
965A: 8D C6 08 STA $08C6
965D: A9 00    LDA #$00
965F: 8D C7 08 STA $08C7
9662: 00 16 05 INT $0516
9665: A2 16    LDX #$16
9667: 90 03    BCC $966C
9669: 4C 9F 67 JMP $679F
966C: 60       RTS
966D: AD 2A B9 LDA $B92A
9670: C9 3A    CMP #$3A
9672: B0 06    BCS $967A
9674: 38       SEC
9675: E9 30    SBC #$30
9677: 38       SEC
9678: E9 D0    SBC #$D0
967A: 60       RTS
967B: AD 00 B8 LDA $B800
967E: 2C A9 01 BIT $01A9
9681: 8D C6 08 STA $08C6
9684: 18       CLC
9685: 6D 24 B9 ADC $B924
9688: 8D 24 B9 STA $B924
968B: 90 05    BCC $9692
968D: EE 25 B9 INC $B925
9690: F0 0E    BEQ $96A0
9692: AD 25 B9 LDA $B925
9695: C9 FF    CMP #$FF
9697: D0 05    BNE $969E
9699: AD 24 B9 LDA $B924
969C: C9 FE    CMP #$FE
969E: 90 05    BCC $96A5
96A0: A2 26    LDX #$26
96A2: 4C 9F 67 JMP $679F
96A5: AD 20 B9 LDA $B920
96A8: 38       SEC
96A9: E9 01    SBC #$01
96AB: 8D C8 08 STA $08C8
96AE: A5 80    LDA $80
96B0: 85 E0    STA $E0
96B2: A5 81    LDA $81
96B4: 85 E1    STA $E1
96B6: A9 00    LDA #$00
96B8: 8D C7 08 STA $08C7
96BB: 00 18 05 INT $0518
96BE: B0 01    BCS $96C1
96C0: 60       RTS
96C1: AD CC 08 LDA $08CC

96C4: A2 17    LDX #$17
96C6: C9 0E    CMP #$0E
96C8: D0 02    BNE $96CC
96CA: A2 12    LDX #$12
96CC: 4C 9F 67 JMP $679F
96CF: 4C 42 77 JMP $7742
96D2: 4C 42 77 JMP $7742
96D5: 4C 42 77 JMP $7742

; get name and pointer to a variable.
; pointer to variable data in $58, $59 and A, Y
96D8: A2 00    LDX #$00
96DA: 8A       TXA

96DB: 8E 07 B8 STX $B807
96DE: 85 58    STA $58
96E0: A5 5E    LDA $5E   ;  save starting address of identifier in ($B81A, $B81B)
96E2: 8D 1A B8 STA $B81A
96E5: A5 5F    LDA $5F
96E7: 8D 1B B8 STA $B81B
96EA: 20 3A 66 JSR $663A ; read a character without moving forward (ignoring spaces)
96ED: 20 43 9B JSR $9B43 ; test if A is uppercase letter
96F0: B0 03    BCS $96F5 ; branch if A is uppercase letter
96F2: 4C FD 9C JMP $9CFD ; report syntax error

96F5: A0 00    LDY #$00
96F7: 8C 08 B8 STY $B808  ; clear type flag to numeric
96FA: 8C 09 B8 STY $B809  ; clear number type to float
96FD: 20 58 9B JSR $9B58  ; read an identifier
9700: 88       DEY
9701: 98       TYA        ; A = length of identifier
9702: 88       DEY
9703: 84 59    STY $59    ; $59 = index of last character of identifier
9705: 18       CLC
9706: 65 5E    ADC $5E
9708: 85 5E    STA $5E
970A: 90 02    BCC $970E
970C: E6 5F    INC $5F

; skip rest characters of an identifier if length exceeds 17
970E: 20 34 66 JSR $6634  ; read a character
9711: 90 FB    BCC $970E  ; branch if character is digit
9713: 20 43 9B JSR $9B43  ; test if character
9716: B0 F6    BCS $970E

9718: C9 24    CMP #$24   ; '$'
971A: D0 07    BNE $9723
971C: A9 FF    LDA #$FF
971E: 8D 08 B8 STA $B808  ; set string type flag
9721: D0 11    BNE $9734

9723: C9 25    CMP #$25   ; '%'
9725: D0 10    BNE $9737
9727: AD 0B B8 LDA $B80B
972A: 10 03    BPL $972F
972C: 4C FD 9C JMP $9CFD  ; integer variable is not allowed in subscript, FOR or FN,
                          ; report syntax error

972F: A9 80    LDA #$80
9731: 8D 09 B8 STA $B809  ; set integer type flag

9734: 20 34 66 JSR $6634  ; read a character

9737: 38       SEC
9738: 0D 0B B8 ORA $B80B  
973B: E9 28    SBC #$28   ; '('
973D: D0 03    BNE $9742  ; branch if not '('
973F: 4C C1 98 JMP $98C1

9742: 2C 0B B8 BIT $B80B
9745: 30 05    BMI $974C
9747: 50 03    BVC $974C
9749: 4C C1 98 JMP $98C1

974C: A5 58    LDA $58
974E: 8D 0B B8 STA $B80B
9751: 20 2E 9B JSR $9B2E  ; swap ($5E, $5F) and ($B81A, B81B)
                          ; now ($5E, $5F) is starting address of identifier,
                          ; ($B81A, $B81B) is the address immediately after identifier.
9754: A5 5E    LDA $5E    ; decrement ($5E, $5F)
9756: D0 02    BNE $975A
9758: C6 5F    DEC $5F
975A: C6 5E    DEC $5E
975C: AD C9 B8 LDA $B8C9
975F: AE CA B8 LDX $B8CA
9762: 86 69    STX $69
9764: 85 68    STA $68
9766: A0 00    LDY #$00
9768: CD CD B8 CMP $B8CD
976B: D0 07    BNE $9774
976D: A5 69    LDA $69
976F: CD CE B8 CMP $B8CE
9772: F0 65    BEQ $97D9

; search in variable table
9774: A2 07    LDX #$07
9776: 8E 02 B8 STX $B802
9779: B1 68    LDA ($68),Y
977B: 0A       ASL
977C: 10 1B    BPL $9799
977E: B0 0D    BCS $978D
9780: A2 05    LDX #$05
9782: 8E 02 B8 STX $B802
9785: AE 08 B8 LDX $B808
9788: E8       INX
9789: D0 3A    BNE $97C5
978B: F0 1F    BEQ $97AC

978D: A2 04    LDX #$04
978F: 8E 02 B8 STX $B802
9792: AE 09 B8 LDX $B809
9795: 10 2E    BPL $97C5
9797: 30 13    BMI $97AC

9799: B0 0C    BCS $97A7
979B: AE 08 B8 LDX $B808
979E: D0 25    BNE $97C5
97A0: AE 09 B8 LDX $B809
97A3: 30 20    BMI $97C5
97A5: 10 05    BPL $97AC

97A7: AE 0B B8 LDX $B80B
97AA: 10 19    BPL $97C5

97AC: B1 68    LDA ($68),Y
97AE: 29 0F    AND #$0F
97B0: 85 58    STA $58
97B2: C5 59    CMP $59
97B4: D0 17    BNE $97CD
97B6: AA       TAX
97B7: C8       INY
97B8: B9 DB B8 LDA $B8DB,Y
97BB: D1 68    CMP ($68),Y
97BD: D0 06    BNE $97C5
97BF: CA       DEX
97C0: 10 F5    BPL $97B7
97C2: 4C 63 98 JMP $9863  ; found the variable

; continue searching
97C5: A0 00    LDY #$00
97C7: B1 68    LDA ($68),Y
97C9: 29 0F    AND #$0F
97CB: 85 58    STA $58

97CD: 18       CLC
97CE: 6D 02 B8 ADC $B802
97D1: 65 68    ADC $68
97D3: 90 8F    BCC $9764
97D5: E6 69    INC $69
97D7: D0 8B    BNE $9764

; variable not found, allocate one
97D9: A4 59    LDY $59
97DB: 84 58    STY $58
97DD: C8       INY
97DE: C8       INY
97DF: 84 59    STY $59
97E1: A9 05    LDA #$05
97E3: AE 0B B8 LDX $B80B
97E6: 30 10    BMI $97F8
97E8: AE 09 B8 LDX $B809
97EB: 10 04    BPL $97F1
97ED: A9 02    LDA #$02
97EF: D0 07    BNE $97F8
97F1: AE 08 B8 LDX $B808
97F4: F0 02    BEQ $97F8
97F6: A9 03    LDA #$03
97F8: 8D 02 B8 STA $B802
97FB: AD CD B8 LDA $B8CD
97FE: AC CE B8 LDY $B8CE
9801: 85 68    STA $68
9803: 84 69    STY $69
9805: AD CB B8 LDA $B8CB
9808: AC CC B8 LDY $B8CC
980B: 85 63    STA $63
980D: 84 64    STY $64
980F: 18       CLC
9810: A5 59    LDA $59
9812: 6D 02 B8 ADC $B802
9815: 8D 02 B8 STA $B802
9818: 65 63    ADC $63
981A: 90 01    BCC $981D
981C: C8       INY
981D: 85 61    STA $61
981F: 84 62    STY $62
9821: 20 1A 67 JSR $671A
9824: A5 61    LDA $61
9826: A4 62    LDY $62
9828: C8       INY
9829: 8D CD B8 STA $B8CD
982C: 8C CE B8 STY $B8CE
982F: A0 00    LDY #$00
9831: AD 0B B8 LDA $B80B
9834: 10 04    BPL $983A
9836: A9 80    LDA #$80
9838: D0 10    BNE $984A
983A: AD 08 B8 LDA $B808
983D: F0 04    BEQ $9843
983F: A9 40    LDA #$40
9841: D0 07    BNE $984A
9843: AD 09 B8 LDA $B809
9846: 10 02    BPL $984A
9848: A9 C0    LDA #$C0
984A: 05 58    ORA $58
984C: 91 68    STA ($68),Y
984E: C8       INY
984F: B9 DB B8 LDA $B8DB,Y
9852: 91 68    STA ($68),Y
9854: C8       INY
9855: C4 59    CPY $59
9857: 90 F6    BCC $984F
9859: A9 00    LDA #$00
985B: 91 68    STA ($68),Y
985D: C8       INY
985E: CC 02 B8 CPY $B802
9861: 90 F8    BCC $985B

9863: A6 58    LDX $58
9865: E8       INX
9866: E8       INX
9867: 8A       TXA
9868: 18       CLC
9869: 65 68    ADC $68
986B: A4 69    LDY $69
986D: 90 01    BCC $9870
986F: C8       INY
9870: 85 58    STA $58
9872: 84 59    STY $59
9874: AE 1A B8 LDX $B81A
9877: 86 5E    STX $5E
9879: AE 1B B8 LDX $B81B
987C: 86 5F    STX $5F
987E: A2 00    LDX #$00
9880: 8E 0B B8 STX $B80B
9883: 60       RTS

9884: A5 58    LDA $58
9886: 18       CLC
9887: 69 05    ADC #$05
9889: 85 59    STA $59
988B: AD 02 B8 LDA $B802
988E: 0A       ASL
988F: 65 59    ADC $59
9891: 65 68    ADC $68
9893: A4 69    LDY $69
9895: 90 01    BCC $9898
9897: C8       INY
9898: 85 61    STA $61
989A: 84 62    STY $62
989C: 60       RTS

989D: .db $90, $80, $00, $00, $00  ; -32768

98A2: 20 34 66 JSR $6634  ; read a character
98A5: 20 2C 7D JSR $7D2C
98A8: A5 74    LDA $74
98AA: 30 0D    BMI $98B9

98AC: A5 6F    LDA $6F
98AE: C9 90    CMP #$90
98B0: 90 0C    BCC $98BE  ; branches if exponent < +16
; if exponent >= 16, then only -32768 can be stored in an integer variable.
98B2: A9 9D    LDA #$9D
98B4: A0 98    LDY #$98
98B6: 20 3A A2 JSR $A23A  ; compare FAC1 with A, Y (-32768)
98B9: F0 03    BEQ $98BE
98BB: 4C 99 99 JMP $9999
98BE: 4C 7B A2 JMP $A27B

98C1: AD 0B B8 LDA $B80B
98C4: D0 63    BNE $9929
98C6: AD 07 B8 LDA $B807
98C9: 0D 09 B8 ORA $B809
98CC: 48       PHA
98CD: AD 08 B8 LDA $B808
98D0: 48       PHA
98D1: A0 00    LDY #$00
98D3: A9 03    LDA #$03
98D5: 20 5F 67 JSR $675F  ; check out of memory error
98D8: 98       TYA
98D9: 48       PHA
98DA: AD 1A B8 LDA $B81A
98DD: 48       PHA
98DE: AD 1B B8 LDA $B81B
98E1: 48       PHA
98E2: A5 59    LDA $59
98E4: 48       PHA
98E5: 20 A2 98 JSR $98A2
98E8: 68       PLA
98E9: 85 59    STA $59
98EB: 68       PLA
98EC: 8D 1B B8 STA $B81B
98EF: 68       PLA
98F0: 8D 1A B8 STA $B81A
98F3: 68       PLA
98F4: A8       TAY
98F5: BA       TSX
98F6: BD 02 01 LDA $0102,X
98F9: 48       PHA
98FA: BD 01 01 LDA $0101,X
98FD: 48       PHA
98FE: A5 72    LDA $72
9900: 9D 02 01 STA $0102,X
9903: A5 73    LDA $73
9905: 9D 01 01 STA $0101,X
9908: C8       INY
9909: 98       TYA
990A: 48       PHA
990B: 20 3A 66 JSR $663A
990E: AA       TAX
990F: 68       PLA
9910: A8       TAY
9911: 8A       TXA
9912: C9 2C    CMP #$2C
9914: F0 BD    BEQ $98D3
9916: 8C 02 B8 STY $B802
9919: 20 EC 9C JSR $9CEC
991C: 68       PLA
991D: 8D 08 B8 STA $B808
9920: 68       PLA
9921: 8D 09 B8 STA $B809
9924: 29 7F    AND #$7F
9926: 8D 07 B8 STA $B807

9929: 20 2E 9B JSR $9B2E
992C: 20 58 9B JSR $9B58
992F: A5 5E    LDA $5E
9931: D0 02    BNE $9935
9933: C6 5F    DEC $5F
9935: C6 5E    DEC $5E
9937: AE CD B8 LDX $B8CD
993A: AD CE B8 LDA $B8CE
993D: 86 68    STX $68
993F: 85 69    STA $69
9941: CD CC B8 CMP $B8CC
9944: D0 05    BNE $994B
9946: EC CB B8 CPX $B8CB
9949: F0 7E    BEQ $99C9
994B: A0 00    LDY #$00
994D: B1 68    LDA ($68),Y
994F: 29 0F    AND #$0F
9951: 85 58    STA $58
9953: C5 59    CMP $59
9955: D0 2E    BNE $9985
9957: AA       TAX
9958: B1 68    LDA ($68),Y
995A: 30 0F    BMI $996B
995C: 0A       ASL
995D: 30 13    BMI $9972
995F: AD 08 B8 LDA $B808
9962: D0 21    BNE $9985
9964: AD 09 B8 LDA $B809
9967: 30 1C    BMI $9985
9969: 10 0C    BPL $9977
996B: AD 09 B8 LDA $B809
996E: 10 15    BPL $9985
9970: 30 05    BMI $9977
9972: AD 08 B8 LDA $B808
9975: F0 0E    BEQ $9985
9977: C8       INY
9978: B9 DB B8 LDA $B8DB,Y
997B: D1 68    CMP ($68),Y
997D: D0 06    BNE $9985
997F: CA       DEX
9980: 10 F5    BPL $9977
9982: 4C 9E 99 JMP $999E
9985: A4 58    LDY $58
9987: C8       INY
9988: C8       INY
9989: B1 68    LDA ($68),Y
998B: 18       CLC
998C: 65 68    ADC $68
998E: AA       TAX
998F: C8       INY
9990: B1 68    LDA ($68),Y
9992: 65 69    ADC $69
9994: 90 A7    BCC $993D
9996: A2 08    LDX #$08
9998: 2C A2 04 BIT $04A2
999B: 4C 9F 67 JMP $679F
999E: A2 09    LDX #$09
99A0: AD 07 B8 LDA $B807
99A3: D0 F6    BNE $999B
99A5: AD 0B B8 LDA $B80B
99A8: F0 0C    BEQ $99B6
99AA: AE 1A B8 LDX $B81A
99AD: 86 5E    STX $5E
99AF: AE 1B B8 LDX $B81B
99B2: 86 5F    STX $5F
99B4: 38       SEC
99B5: 60       RTS
99B6: 20 84 98 JSR $9884
99B9: A4 58    LDY $58
99BB: C8       INY
99BC: C8       INY
99BD: C8       INY
99BE: C8       INY
99BF: AD 02 B8 LDA $B802
99C2: D1 68    CMP ($68),Y
99C4: D0 D0    BNE $9996
99C6: 4C 80 9A JMP $9A80
99C9: A4 59    LDY $59
99CB: 84 58    STY $58
99CD: AD 0B B8 LDA $B80B
99D0: F0 05    BEQ $99D7
99D2: A2 03    LDX #$03
99D4: 4C 9F 67 JMP $679F
99D7: 20 84 98 JSR $9884
99DA: 20 6C 67 JSR $676C
99DD: A9 00    LDA #$00
99DF: A8       TAY
99E0: 85 53    STA $53
99E2: AE 08 B8 LDX $B808
99E5: D0 0F    BNE $99F6
99E7: AE 09 B8 LDX $B809
99EA: 30 04    BMI $99F0
99EC: A2 05    LDX #$05
99EE: D0 0A    BNE $99FA
99F0: A2 02    LDX #$02
99F2: A9 C0    LDA #$C0
99F4: D0 04    BNE $99FA
99F6: A2 03    LDX #$03
99F8: A9 40    LDA #$40
99FA: 86 52    STX $52
99FC: 05 58    ORA $58
99FE: 91 68    STA ($68),Y
9A00: A6 58    LDX $58
9A02: C8       INY
9A03: B9 DB B8 LDA $B8DB,Y
9A06: 91 68    STA ($68),Y
9A08: CA       DEX
9A09: 10 F7    BPL $9A02
9A0B: AD 02 B8 LDA $B802
9A0E: C8       INY
9A0F: C8       INY
9A10: C8       INY
9A11: 91 68    STA ($68),Y
9A13: A2 0B    LDX #$0B
9A15: A9 00    LDA #$00
9A17: 2C 07 B8 BIT $B807
9A1A: 50 08    BVC $9A24
9A1C: 68       PLA
9A1D: 18       CLC
9A1E: 69 01    ADC #$01
9A20: AA       TAX
9A21: 68       PLA
9A22: 69 00    ADC #$00
9A24: C8       INY
9A25: 91 68    STA ($68),Y
9A27: C8       INY
9A28: 8A       TXA
9A29: 91 68    STA ($68),Y
9A2B: 20 F6 9A JSR $9AF6
9A2E: 86 52    STX $52
9A30: 85 53    STA $53
9A32: A4 44    LDY $44
9A34: CE 02 B8 DEC $B802
9A37: D0 DA    BNE $9A13
9A39: 65 62    ADC $62
9A3B: B0 65    BCS $9AA2
9A3D: 85 62    STA $62
9A3F: A8       TAY
9A40: 8A       TXA
9A41: 65 61    ADC $61
9A43: 90 03    BCC $9A48
9A45: C8       INY
9A46: F0 5A    BEQ $9AA2
9A48: 20 6C 67 JSR $676C
9A4B: 8D CB B8 STA $B8CB
9A4E: 8C CC B8 STY $B8CC
9A51: A9 00    LDA #$00
9A53: E6 53    INC $53
9A55: A4 52    LDY $52
9A57: F0 05    BEQ $9A5E
9A59: 88       DEY
9A5A: 91 61    STA ($61),Y
9A5C: D0 FB    BNE $9A59
9A5E: C6 62    DEC $62
9A60: C6 53    DEC $53
9A62: D0 F5    BNE $9A59
9A64: E6 62    INC $62
9A66: 38       SEC
9A67: AD CB B8 LDA $B8CB
9A6A: E5 68    SBC $68
9A6C: A4 58    LDY $58
9A6E: C8       INY
9A6F: C8       INY
9A70: 91 68    STA ($68),Y
9A72: AD CC B8 LDA $B8CC
9A75: C8       INY
9A76: E5 69    SBC $69
9A78: 91 68    STA ($68),Y
9A7A: AD 07 B8 LDA $B807
9A7D: D0 64    BNE $9AE3
9A7F: C8       INY
9A80: B1 68    LDA ($68),Y
9A82: 8D 02 B8 STA $B802
9A85: A9 00    LDA #$00
9A87: 85 52    STA $52
9A89: 85 53    STA $53
9A8B: C8       INY
9A8C: 68       PLA
9A8D: AA       TAX
9A8E: 85 72    STA $72
9A90: 68       PLA
9A91: 85 73    STA $73
9A93: D1 68    CMP ($68),Y
9A95: 90 0E    BCC $9AA5
9A97: D0 06    BNE $9A9F
9A99: C8       INY
9A9A: 8A       TXA
9A9B: D1 68    CMP ($68),Y
9A9D: 90 07    BCC $9AA6
9A9F: 4C 96 99 JMP $9996
9AA2: 4C 9D 67 JMP $679D
9AA5: C8       INY
9AA6: A5 53    LDA $53
9AA8: 05 52    ORA $52
9AAA: 18       CLC
9AAB: F0 0A    BEQ $9AB7
9AAD: 20 F6 9A JSR $9AF6
9AB0: 8A       TXA
9AB1: 65 72    ADC $72
9AB3: AA       TAX
9AB4: 98       TYA
9AB5: A4 44    LDY $44
9AB7: 65 73    ADC $73
9AB9: 86 52    STX $52
9ABB: CE 02 B8 DEC $B802
9ABE: D0 C9    BNE $9A89
9AC0: 85 53    STA $53
9AC2: A2 05    LDX #$05
9AC4: AD 08 B8 LDA $B808
9AC7: D0 25    BNE $9AEE
9AC9: AD 09 B8 LDA $B809
9ACC: 30 24    BMI $9AF2
9ACE: 8E 4A B9 STX $B94A
9AD1: A9 00    LDA #$00
9AD3: 20 00 9B JSR $9B00
9AD6: 8A       TXA
9AD7: 65 61    ADC $61
9AD9: 85 58    STA $58
9ADB: 98       TYA
9ADC: 65 62    ADC $62
9ADE: 85 59    STA $59
9AE0: A8       TAY
9AE1: A5 58    LDA $58
9AE3: AE 1A B8 LDX $B81A
9AE6: 86 5E    STX $5E
9AE8: AE 1B B8 LDX $B81B
9AEB: 86 5F    STX $5F
9AED: 60       RTS
9AEE: A2 03    LDX #$03
9AF0: D0 DC    BNE $9ACE
9AF2: A2 02    LDX #$02
9AF4: D0 D8    BNE $9ACE
9AF6: 84 44    STY $44
9AF8: B1 68    LDA ($68),Y
9AFA: 8D 4A B9 STA $B94A
9AFD: 88       DEY
9AFE: B1 68    LDA ($68),Y
9B00: 8D 4B B9 STA $B94B
9B03: A9 10    LDA #$10
9B05: 85 66    STA $66
9B07: A2 00    LDX #$00
9B09: A0 00    LDY #$00
9B0B: 8A       TXA
9B0C: 0A       ASL
9B0D: AA       TAX
9B0E: 98       TYA
9B0F: 2A       ROL
9B10: A8       TAY
9B11: B0 8F    BCS $9AA2
9B13: 06 52    ASL $52
9B15: 26 53    ROL $53
9B17: 90 10    BCC $9B29
9B19: 18       CLC
9B1A: 8A       TXA
9B1B: 6D 4A B9 ADC $B94A
9B1E: AA       TAX
9B1F: 98       TYA
9B20: 6D 4B B9 ADC $B94B
9B23: A8       TAY
9B24: 90 03    BCC $9B29
9B26: 4C A2 9A JMP $9AA2
9B29: C6 66    DEC $66
9B2B: D0 DE    BNE $9B0B
9B2D: 60       RTS

; swap ($5E, $5F) and ($B81A, $B81B)
9B2E: A6 5E    LDX $5E
9B30: AD 1A B8 LDA $B81A
9B33: 8E 1A B8 STX $B81A
9B36: 85 5E    STA $5E
9B38: A6 5F    LDX $5F
9B3A: AD 1B B8 LDA $B81B
9B3D: 8E 1B B8 STX $B81B
9B40: 85 5F    STA $5F
9B42: 60       RTS

; check if A is uppercase letter, the result is in C
9B43: C9 41    CMP #$41
9B45: 90 05    BCC $9B4C ; A < 'A'
9B47: E9 5B    SBC #$5B
9B49: 38       SEC
9B4A: E9 A5    SBC #$A5
9B4C: 60       RTS

; check if A is not digit, the result is in C
9B4D: C9 3A    CMP #$3A ; ':'
9B4F: B0 06    BCS $9B57
9B51: 38       SEC
9B52: E9 30    SBC #$30
9B54: 38       SEC
9B55: E9 D0    SBC #$D0
9B57: 60       RTS

; read an identifier and store it in $B8DB...
; Y = length of identifier + 1
; ($5E, $5F) = address before identifier
9B58: A0 00    LDY #$00
9B5A: A5 5E    LDA $5E
9B5C: D0 02    BNE $9B60
9B5E: C6 5F    DEC $5F
9B60: C6 5E    DEC $5E
9B62: 4C 68 9B JMP $9B68

9B65: 99 DB B8 STA $B8DB,Y

9B68: C8       INY
9B69: C0 11    CPY #$11 ; max variable length = 17
9B6B: F0 0C    BEQ $9B79

9B6D: B1 5E    LDA ($5E),Y
9B6F: 20 4D 9B JSR $9B4D  ; test if A is not digit
9B72: 90 F1    BCC $9B65  ; branch if A is digit
9B74: 20 43 9B JSR $9B43  ; test if A is uppercase letter
9B77: B0 EC    BCS $9B65  ; branch if A is uppercase letter
9B79: 60       RTS

; evaluate expression
9B7A: A6 5E    LDX $5E
9B7C: D0 02    BNE $9B80
9B7E: C6 5F    DEC $5F
9B80: C6 5E    DEC $5E
9B82: A2 00    LDX #$00
9B84: 24           ; junk code: BIT $48

9B85: 48       PHA
9B86: 8A       TXA
9B87: 48       PHA
9B88: A9 09    LDA #$09
9B8A: 20 5F 67 JSR $675F  ; check out of memory error
9B8D: 20 82 9C JSR $9C82
9B90: A9 00    LDA #$00
9B92: 8D 03 B8 STA $B803
9B95: 20 3A 66 JSR $663A
9B98: 38       SEC
9B99: E9 D0    SBC #$D0
9B9B: 90 30    BCC $9BCD
9B9D: C9 03    CMP #$03
9B9F: B0 2C    BCS $9BCD
9BA1: AA       TAX
9BA2: AD 03 B8 LDA $B803
9BA5: 29 02    AND #$02
9BA7: D0 18    BNE $9BC1
9BA9: AD 03 B8 LDA $B803
9BAC: 4A       LSR
9BAD: 90 04    BCC $9BB3
9BAF: E0 02    CPX #$02
9BB1: F0 0E    BEQ $9BC1
9BB3: 8A       TXA
9BB4: C9 01    CMP #$01
9BB6: 2A       ROL
9BB7: 49 01    EOR #$01
9BB9: 4D 03 B8 EOR $B803
9BBC: CD 03 B8 CMP $B803
9BBF: B0 03    BCS $9BC4
9BC1: 4C FD 9C JMP $9CFD
9BC4: 8D 03 B8 STA $B803
9BC7: 20 34 66 JSR $6634
9BCA: 4C 98 9B JMP $9B98
9BCD: AE 03 B8 LDX $B803
9BD0: D0 32    BNE $9C04
9BD2: 90 03    BCC $9BD7
9BD4: 4C 55 9C JMP $9C55
9BD7: 69 07    ADC #$07
9BD9: 90 7A    BCC $9C55
9BDB: 6D 08 B8 ADC $B808
9BDE: D0 03    BNE $9BE3
9BE0: 4C 4D 84 JMP $844D
9BE3: 69 FF    ADC #$FF
9BE5: 85 44    STA $44
9BE7: 0A       ASL
9BE8: 65 44    ADC $44
9BEA: A8       TAY
9BEB: 68       PLA
9BEC: D9 71 9D CMP $9D71,Y
9BEF: B0 69    BCS $9C5A
9BF1: 20 2F 7D JSR $7D2F
9BF4: 48       PHA
9BF5: 20 1F 9C JSR $9C1F
9BF8: 68       PLA
9BF9: AC 05 B8 LDY $B805
9BFC: 10 1A    BPL $9C18
9BFE: AA       TAX
9BFF: D0 63    BNE $9C64
9C01: 4C 7F 9C JMP $9C7F
9C04: 4E 08 B8 LSR $B808
9C07: 8A       TXA
9C08: 2A       ROL
9C09: A6 5E    LDX $5E
9C0B: D0 02    BNE $9C0F
9C0D: C6 5F    DEC $5F
9C0F: C6 5E    DEC $5E
9C11: A0 1B    LDY #$1B
9C13: 8D 03 B8 STA $B803
9C16: D0 D3    BNE $9BEB
9C18: D9 71 9D CMP $9D71,Y
9C1B: B0 47    BCS $9C64
9C1D: 90 D5    BCC $9BF4
9C1F: B9 73 9D LDA $9D73,Y
9C22: 48       PHA
9C23: B9 72 9D LDA $9D72,Y
9C26: 48       PHA
9C27: 20 30 9C JSR $9C30
9C2A: AD 03 B8 LDA $B803
9C2D: 4C 85 9B JMP $9B85
9C30: A5 74    LDA $74
9C32: BE 71 9D LDX $9D71,Y

9C35: A8       TAY
9C36: 68       PLA
9C37: 85 44    STA $44
9C39: E6 44    INC $44
9C3B: 68       PLA
9C3C: 85 45    STA $45
9C3E: 98       TYA
9C3F: 48       PHA

; push FAC1 mantissa and exponent onto stack and goto ($44, $45)
9C40: 20 E3 A1 JSR $A1E3  ; round FAC1
9C43: A5 73    LDA $73
9C45: 48       PHA
9C46: A5 72    LDA $72
9C48: 48       PHA
9C49: A5 71    LDA $71
9C4B: 48       PHA
9C4C: A5 70    LDA $70
9C4E: 48       PHA
9C4F: A5 6F    LDA $6F
9C51: 48       PHA
9C52: 6C 44 00 JMP ($0044)

9C55: A0 FF    LDY #$FF
9C57: 68       PLA
9C58: F0 25    BEQ $9C7F
9C5A: C9 64    CMP #$64
9C5C: F0 03    BEQ $9C61
9C5E: 20 2F 7D JSR $7D2F
9C61: 8C 05 B8 STY $B805
9C64: 68       PLA
9C65: 4A       LSR
9C66: 8D 0D B8 STA $B80D
9C69: 68       PLA
9C6A: 85 77    STA $77
9C6C: 68       PLA
9C6D: 85 78    STA $78
9C6F: 68       PLA
9C70: 85 79    STA $79
9C72: 68       PLA
9C73: 85 7A    STA $7A
9C75: 68       PLA
9C76: 85 7B    STA $7B
9C78: 68       PLA
9C79: 85 7C    STA $7C
9C7B: 45 74    EOR $74
9C7D: 85 7D    STA $7D
9C7F: A5 6F    LDA $6F
9C81: 60       RTS

9C82: A9 00    LDA #$00
9C84: 8D 08 B8 STA $B808
9C87: 20 34 66 JSR $6634  ; read a character
9C8A: B0 04    BCS $9C90  ; branch if character >= '0'
9C8C: 20 93 A3 JSR $A393
9C8F: 60       RTS

9C90: 20 43 9B JSR $9B43
9C93: 90 03    BCC $9C98
9C95: 4C 09 9D JMP $9D09
9C98: C9 2E    CMP #$2E
9C9A: F0 F0    BEQ $9C8C
9C9C: C9 CA    CMP #$CA
9C9E: D0 03    BNE $9CA3
9CA0: 4C 02 9D JMP $9D02
9CA3: C9 C9    CMP #$C9
9CA5: F0 E0    BEQ $9C87
9CA7: C9 22    CMP #$22
9CA9: D0 0F    BNE $9CBA
9CAB: A5 5E    LDA $5E
9CAD: A4 5F    LDY $5F
9CAF: 69 00    ADC #$00
9CB1: 90 01    BCC $9CB4
9CB3: C8       INY
9CB4: 20 D0 7E JSR $7ED0
9CB7: 4C 02 86 JMP $8602
9CBA: C9 C7    CMP #$C7
9CBC: D0 10    BNE $9CCE
9CBE: A0 18    LDY #$18
9CC0: D0 42    BNE $9D04
9CC2: A5 6F    LDA $6F
9CC4: D0 03    BNE $9CC9
9CC6: A0 01    LDY #$01
9CC8: 2C A0 00 BIT $00A0
9CCB: 4C E0 7D JMP $7DE0
9CCE: C9 A5    CMP #$A5
9CD0: D0 06    BNE $9CD8
9CD2: 20 34 66 JSR $6634
9CD5: 4C 01 85 JMP $8501
9CD8: C9 C2    CMP #$C2
9CDA: D0 03    BNE $9CDF
9CDC: 4C 3D 7E JMP $7E3D
9CDF: C9 D3    CMP #$D3
9CE1: 90 03    BCC $9CE6
9CE3: 4C 30 9D JMP $9D30
9CE6: 20 EF 9C JSR $9CEF
9CE9: 20 7A 9B JSR $9B7A

9CEC: A9 29    LDA #$29  ; ')'
9CEE: 2C       ; junk code BIT $28A9
9CEF: A9 28    LDA #$28  ; '('
9CF1: 2C       ; junk code BIT $2CA9

; make sure the current token is ','
9CF2: A9 2C    LDA #$2C  ; ','

; make sure the current token is equal to A, and then read a character
9CF4: A0 00    LDY #$00
9CF6: D1 5E    CMP ($5E),Y
9CF8: D0 03    BNE $9CFD
9CFA: 4C 34 66 JMP $6634

; error: syntax error
9CFD: A2 01    LDX #$01
9CFF: 4C 9F 67 JMP $679F

9D02: A0 15    LDY #$15
9D04: 68       PLA
9D05: 68       PLA
9D06: 4C F5 9B JMP $9BF5
9D09: 20 D8 96 JSR $96D8
9D0C: 85 72    STA $72
9D0E: 84 73    STY $73
9D10: AE 08 B8 LDX $B808
9D13: F0 06    BEQ $9D1B
9D15: A2 00    LDX #$00
9D17: 8E 0E B8 STX $B80E
9D1A: 60       RTS
9D1B: AE 09 B8 LDX $B809
9D1E: 30 03    BMI $9D23
9D20: 4C 66 A1 JMP $A166
9D23: A0 00    LDY #$00
9D25: B1 72    LDA ($72),Y
9D27: AA       TAX
9D28: C8       INY
9D29: B1 72    LDA ($72),Y
9D2B: A8       TAY
9D2C: 8A       TXA
9D2D: 4C CF 7D JMP $7DCF
9D30: 0A       ASL
9D31: 48       PHA
9D32: AA       TAX
9D33: 20 34 66 JSR $6634
9D36: E0 D5    CPX #$D5
9D38: 90 20    BCC $9D5A
9D3A: 20 EF 9C JSR $9CEF
9D3D: 20 7A 9B JSR $9B7A
9D40: 20 F2 9C JSR $9CF2
9D43: 20 31 7D JSR $7D31
9D46: 68       PLA
9D47: AA       TAX
9D48: A5 73    LDA $73
9D4A: 48       PHA
9D4B: A5 72    LDA $72
9D4D: 48       PHA
9D4E: 8A       TXA
9D4F: 48       PHA
9D50: 20 C7 85 JSR $85C7
9D53: 68       PLA
9D54: A8       TAY
9D55: 8A       TXA
9D56: 48       PHA
9D57: 4C 5F 9D JMP $9D5F
9D5A: 20 E6 9C JSR $9CE6
9D5D: 68       PLA
9D5E: A8       TAY
9D5F: B9 9D 61 LDA $619D,Y
9D62: 8D 5F B9 STA $B95F
9D65: B9 9E 61 LDA $619E,Y
9D68: 8D 60 B9 STA $B960
9D6B: 20 5E B9 JSR $B95E
9D6E: 4C 2F 7D JMP $7D2F

9D71: 79 AF 9D ADC $9DAF,Y
9D74: 79 98 9D ADC $9D98,Y
9D77: 7B       ??
9D78: CB       ??
9D79: 9F       ??
9D7A: 7B       ??
9D7B: C4 A0    CPY $A0
9D7D: 7D F0 A5 ADC $A5F0,X
9D80: 50 46    BVC $9DC8
9D82: 7D 46 40 ADC $4046,X
9D85: 7D 7F 2A ADC $2A7F,X
9D88: A6 7F    LDX $7F
9D8A: C1 9C    CMP ($9C,X)
9D8C: 64       ??
9D8D: 56 7D    LSR $7D,X

; add 0.5 to float accum
9D8F: A9 BE    LDA #$BE
9D91: A0 A5    LDY #$A5
9D93: 4C AD 9D JMP $9DAD

; - operator
9D96: 20 3F A0 JSR $A03F
9D99: A5 74    LDA $74
9D9B: 49 FF    EOR #$FF
9D9D: 85 74    STA $74
9D9F: 45 7C    EOR $7C
9DA1: 85 7D    STA $7D
9DA3: A5 6F    LDA $6F
9DA5: 4C B0 9D JMP $9DB0
9DA8: 20 39 9F JSR $9F39
9DAB: 90 42    BCC $9DEF

; add float indexed by AY to FAC1
9DAD: 20 3F A0 JSR $A03F

; + operator
9DB0: D0 03    BNE $9DB5  ; branch if FAC1 is not zero
9DB2: 4C C2 A1 JMP $A1C2  ; if FAC1 is zero, copy FAC2 to FAC1

9DB5: AE 0E B8 LDX $B80E  ; copy FAC1 extra mantissa to FAC2
9DB8: 8E 60 B9 STX $B960
9DBB: A2 77    LDX #$77  ; X = FAC2 exponent address
9DBD: A5 77    LDA $77  ; get exponent of FAC2

9DBF: A8       TAY        ; copy exponent
9DC0: D0 01    BNE $9DC3  ; branch if exponent not zero
9DC2: 60       RTS

9DC3: 38       SEC
9DC4: E5 6F    SBC $6F   ; subtract exponent of FAC1
9DC6: F0 27    BEQ $9DEF  ; branch if exponent are equal
9DC8: 90 13    BCC $9DDD  ; branch if exponent of FAC2 < FAC1

; exponent of FAC2 > FAC1
9DCA: 84 6F    STY $6F   ; save FAC2 exponent to FAC1
9DCC: A4 7C    LDY $7C  ; copy sign of FAC2 into FAC1
9DCE: 84 74    STY $74
9DD0: 49 FF    EOR #$FF  ; negate exponent diff
9DD2: 69 00    ADC #$00
9DD4: A0 00    LDY #$00
9DD6: 8C 60 B9 STY $B960  ; clear extra mantissa of FAC2
9DD9: A2 6F    LDX #$6F   ; FAC1 exponent address
9DDB: D0 05    BNE $9DE2

; exponent of FAC2 < FAC1
9DDD: A0 00    LDY #$00
9DDF: 8C 0E B8 STY $B80E  ; clear extra mantissa of FAC1

9DE2: C9 F9    CMP #$F9   ; compare exponent diff with $F9  ?
9DE4: 30 C2    BMI $9DA8  ; if exponent diff is $79-$F8, byte shift mantissa
9DE6: A8       TAY        ; copy exponent diff to Y
9DE7: AD 0E B8 LDA $B80E  ; A = extra mantissa of FAC1
9DEA: 56 01    LSR $01,X  ; right shift FAC1 or FAC2 higher mantissa
9DEC: 20 51 9F JSR $9F51  ; right shift FAC1 or FAC2 mantissa

9DEF: 24 7D    BIT $7D
9DF1: 10 5B    BPL $9E4E
9DF3: A0 6F    LDY #$6F  ; Y = FAC1 exponent address
9DF5: E0 77    CPX #$77
9DF7: F0 02    BEQ $9DFB  ; branch if we have shifted FAC2
9DF9: A0 77    LDY #$77   ; Y = FAC2 exponent address
9DFB: 38       SEC
9DFC: 49 FF    EOR #$FF
9DFE: 6D 60 B9 ADC $B960
9E01: 8D 0E B8 STA $B80E
9E04: B9 04 00 LDA $0004,Y
9E07: F5 04    SBC $04,X
9E09: 85 73    STA $73
9E0B: B9 03 00 LDA $0003,Y
9E0E: F5 03    SBC $03,X
9E10: 85 72    STA $72
9E12: B9 02 00 LDA $0002,Y
9E15: F5 02    SBC $02,X
9E17: 85 71    STA $71
9E19: B9 01 00 LDA $0001,Y
9E1C: F5 01    SBC $01,X
9E1E: 85 70    STA $70

9E20: B0 03    BCS $9E25 ; branch if positive
9E22: 20 9B 9E JSR $9E9B ; negate mantissa

9E25: A0 00    LDY #$00
9E27: 98       TYA
9E28: 18       CLC

; shift mantissa by bytes, removing leading zero bytes.
9E29: A6 70    LDX $70
9E2B: D0 4F    BNE $9E7C ; after byte shift, shift mantissa by bits.
9E2D: A6 71    LDX $71
9E2F: 86 70    STX $70
9E31: A6 72    LDX $72
9E33: 86 71    STX $71
9E35: A6 73    LDX $73
9E37: 86 72    STX $72
9E39: AE 0E B8 LDX $B80E
9E3C: 86 73    STX $73
9E3E: 8C 0E B8 STY $B80E ; clear extra mantissa
9E41: 69 08    ADC #$08  ; add 8 to exponent offset
9E43: C9 20    CMP #$20  ; shift at most 32 bits
9E45: D0 E2    BNE $9E29

9E47: A9 00    LDA #$00
9E49: 85 6F    STA $6F  ; clear FAC1 exponent, set FAC1 to zero

9E4B: 85 74    STA $74  ; set FAC1 sign
9E4D: 60       RTS

; add mantissas
9E4E: 6D 60 B9 ADC $B960
9E51: 8D 0E B8 STA $B80E
9E54: A5 73    LDA $73
9E56: 65 7B    ADC $7B
9E58: 85 73    STA $73
9E5A: A5 72    LDA $72
9E5C: 65 7A    ADC $7A
9E5E: 85 72    STA $72
9E60: A5 71    LDA $71
9E62: 65 79    ADC $79
9E64: 85 71    STA $71
9E66: A5 70    LDA $70
9E68: 65 78    ADC $78
9E6A: 85 70    STA $70
9E6C: 4C 89 9E JMP $9E89

; left bit-shift mantissa
9E6F: 69 01    ADC #$01
9E71: 0E 0E B8 ASL $B80E
9E74: 26 73    ROL $73
9E76: 26 72    ROL $72
9E78: 26 71    ROL $71
9E7A: 26 70    ROL $70

9E7C: 10 F1    BPL $9E6F
9E7E: 38       SEC
9E7F: E5 6F    SBC $6F  ; exponent offset - FAC1 exponent
9E81: B0 C4    BCS $9E47 ; if exponent offset >= FAC1 exponent, set FAC1 to zero
9E83: 49 FF    EOR #$FF  ; negate exponent diff
9E85: 69 01    ADC #$01
9E87: 85 6F    STA $6F  ; FAC1 exponent = FAC1 exponent - exponent offset
9E89: 90 0F    BCC $9E9A ; always branch ?

; right bit shift mantissa of FAC1 for C=1
9E8B: E6 6F    INC $6F ; increment exponent
9E8D: F0 46    BEQ $9ED5 ; if exponent is zero, overflow error
9E8F: 66 70    ROR $70
9E91: 66 71    ROR $71
9E93: 66 72    ROR $72
9E95: 66 73    ROR $73
9E97: 6E 0E B8 ROR $B80E
9E9A: 60       RTS

; negate mantissa and sign  (negate sign, ~mantissa + 1)
9E9B: A5 74    LDA $74
9E9D: 49 FF    EOR #$FF
9E9F: 85 74    STA $74

; negate mantissa (~mantissa + 1)
9EA1: A5 70    LDA $70
9EA3: 49 FF    EOR #$FF
9EA5: 85 70    STA $70
9EA7: A5 71    LDA $71
9EA9: 49 FF    EOR #$FF
9EAB: 85 71    STA $71
9EAD: A5 72    LDA $72
9EAF: 49 FF    EOR #$FF
9EB1: 85 72    STA $72
9EB3: A5 73    LDA $73
9EB5: 49 FF    EOR #$FF
9EB7: 85 73    STA $73
9EB9: AD 0E B8 LDA $B80E
9EBC: 49 FF    EOR #$FF
9EBE: 8D 0E B8 STA $B80E
9EC1: EE 0E B8 INC $B80E
9EC4: D0 0E    BNE $9ED4

; increment FAC1 mantissa
9EC6: E6 73    INC $73
9EC8: D0 0A    BNE $9ED4
9ECA: E6 72    INC $72
9ECC: D0 06    BNE $9ED4
9ECE: E6 71    INC $71
9ED0: D0 02    BNE $9ED4
9ED2: E6 70    INC $70
9ED4: 60       RTS

; error: overflow
9ED5: A2 05    LDX #$05
9ED7: 4C 9F 67 JMP $679F

9EDA: AC 4B B9 LDY $B94B
9EDD: 8C 0E B8 STY $B80E
9EE0: AC 4A B9 LDY $B94A
9EE3: 8C 4B B9 STY $B94B
9EE6: AC 49 B9 LDY $B949
9EE9: 8C 4A B9 STY $B94A
9EEC: AC 48 B9 LDY $B948
9EEF: 8C 49 B9 STY $B949
9EF2: AC 4D B9 LDY $B94D
9EF5: 8C 48 B9 STY $B948
9EF8: 69 08    ADC #$08
9EFA: 30 DE    BMI $9EDA
9EFC: F0 DC    BEQ $9EDA
9EFE: E9 08    SBC #$08
9F00: A8       TAY
9F01: AD 0E B8 LDA $B80E
9F04: B0 1B    BCS $9F21
9F06: 0E 48 B9 ASL $B948
9F09: 90 03    BCC $9F0E
9F0B: EE 48 B9 INC $B948
9F0E: 6E 48 B9 ROR $B948
9F11: 6E 48 B9 ROR $B948
9F14: 6E 49 B9 ROR $B949
9F17: 6E 4A B9 ROR $B94A
9F1A: 6E 4B B9 ROR $B94B
9F1D: 6A       ROR
9F1E: C8       INY
9F1F: D0 E5    BNE $9F06
9F21: 18       CLC
9F22: 60       RTS

9F23: B4 04    LDY $04,X
9F25: 8C 0E B8 STY $B80E
9F28: B4 03    LDY $03,X
9F2A: 94 04    STY $04,X
9F2C: B4 02    LDY $02,X
9F2E: 94 03    STY $03,X
9F30: B4 01    LDY $01,X
9F32: 94 02    STY $02,X
9F34: AC 4D B9 LDY $B94D
9F37: 94 01    STY $01,X

9F39: 69 08    ADC #$08
9F3B: 30 E6    BMI $9F23
9F3D: F0 E4    BEQ $9F23
9F3F: E9 08    SBC #$08
9F41: A8       TAY
9F42: AD 0E B8 LDA $B80E
9F45: B0 14    BCS $9F5B

; A is extra mantissa
9F47: 16 01    ASL $01,X
9F49: 90 02    BCC $9F4D   ; branch if positive
9F4B: F6 01    INC $01,X   ; this will set C=1 after the following ROR
9F4D: 76 01    ROR $01,X   ; undo ASL and set C=1
9F4F: 76 01    ROR $01,X   ; after ROR, C is always 1

9F51: 76 02    ROR $02,X
9F53: 76 03    ROR $03,X
9F55: 76 04    ROR $04,X
9F57: 6A       ROR         ; shift extra mantissa
9F58: C8       INY
9F59: D0 EC    BNE $9F47

9F5B: 18       CLC
9F5C: 60       RTS

9F5D: .db $81, $00, $00, $00, $00 ; 1
9F62: .db $03                     ; series counter
9F63: .db $7F, $5e, $56, $cb, $79 ; 0.434255942
9F68: .db $80, $13, $9b, $0b, $64 ; 0.576584541
9F6D: .db $80, $76, $38, $93, $16 ; 0.961800759
9F72: .db $82, $38, $aa, $3b, $20 ; 2.88539007
9F77: .db $80, $35, $04, $f3, $34 ; 1 / sqr(2)
9F7C: .db $81, $35, $04, $f3, $34 ; sqr(2)
9F81: .db $80, $80, $00, $00, $00 ; -0.5
9F86: .db $80, $31, $72, $17, $f8 ; log(2)

; LOG function
9F8B: 20 F4 A1 JSR $A1F4
9F8E: F0 02    BEQ $9F92
9F90: 10 03    BPL $9F95
9F92: 4C 99 99 JMP $9999

9F95: A5 6F    LDA $6F
9F97: E9 7F    SBC #$7F
9F99: 48       PHA
9F9A: A9 80    LDA #$80
9F9C: 85 6F    STA $6F
9F9E: A9 77    LDA #$77
9FA0: A0 9F    LDY #$9F
9FA2: 20 AD 9D JSR $9DAD
9FA5: A9 7C    LDA #$7C
9FA7: A0 9F    LDY #$9F
9FA9: 20 C2 A0 JSR $A0C2
9FAC: A9 5D    LDA #$5D
9FAE: A0 9F    LDY #$9F
9FB0: 20 96 9D JSR $9D96
9FB3: A9 62    LDA #$62
9FB5: A0 9F    LDY #$9F
9FB7: 20 BC A6 JSR $A6BC
9FBA: A9 81    LDA #$81
9FBC: A0 9F    LDY #$9F
9FBE: 20 AD 9D JSR $9DAD
9FC1: 68       PLA
9FC2: 20 2D A4 JSR $A42D
9FC5: A9 86    LDA #$86
9FC7: A0 9F    LDY #$9F
9FC9: 20 3F A0 JSR $A03F

; * operator
9FCC: D0 03    BNE $9FD1
9FCE: 4C 3E A0 JMP $A03E

9FD1: 20 6A A0 JSR $A06A
9FD4: A9 00    LDA #$00
9FD6: 8D 48 B9 STA $B948
9FD9: 8D 49 B9 STA $B949
9FDC: 8D 4A B9 STA $B94A
9FDF: 8D 4B B9 STA $B94B
9FE2: AD 0E B8 LDA $B80E
9FE5: 20 FF 9F JSR $9FFF
9FE8: A5 73    LDA $73
9FEA: 20 FF 9F JSR $9FFF
9FED: A5 72    LDA $72
9FEF: 20 FF 9F JSR $9FFF
9FF2: A5 71    LDA $71
9FF4: 20 FF 9F JSR $9FFF
9FF7: A5 70    LDA $70
9FF9: 20 04 A0 JSR $A004
9FFC: 4C 4F A1 JMP $A14F

9FFF: D0 03    BNE $A004
A001: 4C DA 9E JMP $9EDA

A004: 4A       LSR
A005: 09 80    ORA #$80
A007: A8       TAY
A008: 90 21    BCC $A02B
A00A: 18       CLC
A00B: AD 4B B9 LDA $B94B
A00E: 65 7B    ADC $7B
A010: 8D 4B B9 STA $B94B
A013: AD 4A B9 LDA $B94A
A016: 65 7A    ADC $7A
A018: 8D 4A B9 STA $B94A
A01B: AD 49 B9 LDA $B949
A01E: 65 79    ADC $79
A020: 8D 49 B9 STA $B949
A023: AD 48 B9 LDA $B948
A026: 65 78    ADC $78
A028: 8D 48 B9 STA $B948
A02B: 6E 48 B9 ROR $B948
A02E: 6E 49 B9 ROR $B949
A031: 6E 4A B9 ROR $B94A
A034: 6E 4B B9 ROR $B94B
A037: 6E 0E B8 ROR $B80E
A03A: 98       TYA
A03B: 4A       LSR
A03C: D0 C9    BNE $A007
A03E: 60       RTS

; move float indexed by AY into FAC2
A03F: 85 44    STA $44
A041: 84 45    STY $45
A043: A0 04    LDY #$04
A045: B1 44    LDA ($44),Y
A047: 85 7B    STA $7B
A049: 88       DEY
A04A: B1 44    LDA ($44),Y
A04C: 85 7A    STA $7A
A04E: 88       DEY
A04F: B1 44    LDA ($44),Y
A051: 85 79    STA $79
A053: 88       DEY
A054: B1 44    LDA ($44),Y
A056: 85 7C    STA $7C
A058: 45 74    EOR $74
A05A: 85 7D    STA $7D
A05C: A5 7C    LDA $7C
A05E: 09 80    ORA #$80
A060: 85 78    STA $78
A062: 88       DEY
A063: B1 44    LDA ($44),Y
A065: 85 77    STA $77
A067: A5 6F    LDA $6F
A069: 60       RTS

; add exponents
A06A: A5 77    LDA $77
A06C: F0 1F    BEQ $A08D
A06E: 18       CLC
A06F: 65 6F    ADC $6F
A071: 90 04    BCC $A077
A073: 30 1D    BMI $A092
A075: 18       CLC
A076: 2C 10 14 BIT $1410
A079: 69 80    ADC #$80
A07B: 85 6F    STA $6F
A07D: D0 03    BNE $A082
A07F: 4C 4B 9E JMP $9E4B
A082: A5 7D    LDA $7D
A084: 85 74    STA $74
A086: 60       RTS
A087: A5 74    LDA $74
A089: 49 FF    EOR #$FF
A08B: 30 05    BMI $A092
A08D: 68       PLA
A08E: 68       PLA
A08F: 4C 47 9E JMP $9E47
A092: 4C D5 9E JMP $9ED5  ; overflow error

; multiply FAC1 by 10
A095: 20 D3 A1 JSR $A1D3  ; round FAC1 then move into FAC2
A098: AA       TAX
A099: F0 10    BEQ $A0AB  ; if zero, do nothing
A09B: 18       CLC
A09C: 69 02    ADC #$02
A09E: B0 F2    BCS $A092   ; report overflow error if FAC1 * 4 overflows
A0A0: A2 00    LDX #$00
A0A2: 86 7D    STX $7D
A0A4: 20 BF 9D JSR $9DBF
A0A7: E6 6F    INC $6F     ; FAC1 * 2
A0A9: F0 E7    BEQ $A092   ; overflow
A0AB: 60       RTS

; constant 10 for division
A0AC: .db $84, $20, $00, $00, $00

; divide float by 10
A0B1: 20 D3 A1 JSR $A1D3
A0B4: A9 AC    LDA #$AC
A0B6: A0 A0    LDY #$A0
A0B8: A2 00    LDX #$00
A0BA: 86 7D    STX $7D
A0BC: 20 66 A1 JSR $A166
A0BF: 4C C5 A0 JMP $A0C5

; divide operator
A0C2: 20 3F A0 JSR $A03F
A0C5: D0 03    BNE $A0CA
A0C7: 4C 4A A1 JMP $A14A
A0CA: 20 E3 A1 JSR $A1E3
A0CD: A9 00    LDA #$00
A0CF: 38       SEC
A0D0: E5 6F    SBC $6F
A0D2: 85 6F    STA $6F
A0D4: 20 6A A0 JSR $A06A
A0D7: E6 6F    INC $6F
A0D9: F0 B7    BEQ $A092
A0DB: A2 FC    LDX #$FC
A0DD: A9 01    LDA #$01
A0DF: A4 78    LDY $78
A0E1: C4 70    CPY $70
A0E3: D0 10    BNE $A0F5
A0E5: A4 79    LDY $79
A0E7: C4 71    CPY $71
A0E9: D0 0A    BNE $A0F5
A0EB: A4 7A    LDY $7A
A0ED: C4 72    CPY $72
A0EF: D0 04    BNE $A0F5
A0F1: A4 7B    LDY $7B
A0F3: C4 73    CPY $73
A0F5: 08       PHP
A0F6: 2A       ROL
A0F7: 90 12    BCC $A10B
A0F9: E8       INX
A0FA: 10 06    BPL $A102
A0FC: 9D 4B B8 STA $B84B,X
A0FF: 4C 05 A1 JMP $A105
A102: 9D 4B B9 STA $B94B,X
A105: F0 32    BEQ $A139
A107: 10 34    BPL $A13D
A109: A9 01    LDA #$01
A10B: 28       PLP
A10C: B0 0E    BCS $A11C
A10E: 06 7B    ASL $7B
A110: 26 7A    ROL $7A
A112: 26 79    ROL $79
A114: 26 78    ROL $78
A116: B0 DD    BCS $A0F5
A118: 30 C5    BMI $A0DF
A11A: 10 D9    BPL $A0F5
A11C: A8       TAY
A11D: A5 7B    LDA $7B
A11F: E5 73    SBC $73
A121: 85 7B    STA $7B
A123: A5 7A    LDA $7A
A125: E5 72    SBC $72
A127: 85 7A    STA $7A
A129: A5 79    LDA $79
A12B: E5 71    SBC $71
A12D: 85 79    STA $79
A12F: A5 78    LDA $78
A131: E5 70    SBC $70
A133: 85 78    STA $78
A135: 98       TYA
A136: 4C 0E A1 JMP $A10E
A139: A9 40    LDA #$40
A13B: D0 CE    BNE $A10B
A13D: 0A       ASL
A13E: 0A       ASL
A13F: 0A       ASL
A140: 0A       ASL
A141: 0A       ASL
A142: 0A       ASL
A143: 8D 0E B8 STA $B80E
A146: 28       PLP
A147: 4C 4F A1 JMP $A14F
A14A: A2 0A    LDX #$0A ; error number: division by zero
A14C: 4C 9F 67 JMP $679F

A14F: AD 48 B9 LDA $B948
A152: 85 70    STA $70
A154: AD 49 B9 LDA $B949
A157: 85 71    STA $71
A159: AD 4A B9 LDA $B94A
A15C: 85 72    STA $72
A15E: AD 4B B9 LDA $B94B
A161: 85 73    STA $73
A163: 4C 25 9E JMP $9E25

; unpack float in (A, Y) into FAC1
A166: 85 44    STA $44
A168: 84 45    STY $45
A16A: A0 04    LDY #$04
A16C: B1 44    LDA ($44),Y
A16E: 85 73    STA $73
A170: 88       DEY
A171: B1 44    LDA ($44),Y
A173: 85 72    STA $72
A175: 88       DEY
A176: B1 44    LDA ($44),Y
A178: 85 71    STA $71
A17A: 88       DEY
A17B: B1 44    LDA ($44),Y
A17D: 85 74    STA $74
A17F: 09 80    ORA #$80
A181: 85 70    STA $70
A183: 88       DEY
A184: B1 44    LDA ($44),Y
A186: 85 6F    STA $6F
A188: 8C 0E B8 STY $B80E
A18B: 60       RTS

; store FAC1 at $65-$69
A18C: A2 65    LDX #$65
A18E: .DB $2c   ;   junk code: BIT $60A2

; store FAC1 at $60-$64
A18F: A2 60    LDX #$60
A191: A0 00    LDY #$00
A193: F0 04    BEQ $A199

; store FAC1 into ($5C, $5D)
A195: A6 5C    LDX $5C
A197: A4 5D    LDY $5D

; store FAC1 into (X, Y)
A199: 20 E3 A1 JSR $A1E3  ; round FAC1
A19C: 86 44    STX $44
A19E: 84 45    STY $45
A1A0: A0 04    LDY #$04
A1A2: A5 73    LDA $73
A1A4: 91 44    STA ($44),Y
A1A6: 88       DEY
A1A7: A5 72    LDA $72
A1A9: 91 44    STA ($44),Y
A1AB: 88       DEY
A1AC: A5 71    LDA $71
A1AE: 91 44    STA ($44),Y
A1B0: 88       DEY
A1B1: A5 74    LDA $74
A1B3: 09 7F    ORA #$7F
A1B5: 25 70    AND $70
A1B7: 91 44    STA ($44),Y
A1B9: 88       DEY
A1BA: A5 6F    LDA $6F
A1BC: 91 44    STA ($44),Y
A1BE: 8C 0E B8 STY $B80E ; clear extra mantissa
A1C1: 60       RTS

; move FAC2 into FAC1
A1C2: A5 7C    LDA $7C  ; copy sign
A1C4: 85 74    STA $74
A1C6: A2 05    LDX #$05  ; copy 
A1C8: B5 76    LDA $76,X
A1CA: 95 6E    STA $6E,X
A1CC: CA       DEX
A1CD: D0 F9    BNE $A1C8
A1CF: 8E 0E B8 STX $B80E  ; clear extra mantissa of FAC1
A1D2: 60       RTS

; move rounded FAC1 into FAC2
; A = exponent of FAC1
A1D3: 20 E3 A1 JSR $A1E3  ; round FAC1
A1D6: A2 06    LDX #$06
A1D8: B5 6E    LDA $6E,X
A1DA: 95 76    STA $76,X
A1DC: CA       DEX
A1DD: D0 F9    BNE $A1D8
A1DF: 8E 0E B8 STX $B80E  ; clear extra mantissa of FAC1
A1E2: 60       RTS

; round FAC1
A1E3: A5 6F    LDA $6F
A1E5: F0 FB    BEQ $A1E2 ; exit if zero
A1E7: 0E 0E B8 ASL $B80E
A1EA: 90 F6    BCC $A1E2 ; exit if no overflow
A1EC: 20 C6 9E JSR $9EC6 ; increment mantissa
A1EF: D0 F1    BNE $A1E2 ; exit if no overflow
A1F1: 4C 8B 9E JMP $9E8B ; right bit shift mantissa

; get sign of FAC1 in A ($00 = 0, $01 = positive, $FF = negative)
A1F4: A5 6F    LDA $6F
A1F6: F0 09    BEQ $A201
A1F8: A5 74    LDA $74
A1FA: 2A       ROL
A1FB: A9 FF    LDA #$FF
A1FD: B0 02    BCS $A201
A1FF: A9 01    LDA #$01
A201: 60       RTS

; SGN function
A202: 20 F4 A1 JSR $A1F4

; move signed number from A into FAC1
A205: 85 70    STA $70
A207: A9 00    LDA #$00
A209: 85 71    STA $71
A20B: A2 88    LDX #$88  ; exponent = +8

A20D: A5 70    LDA $70
A20F: 49 FF    EOR #$FF
A211: 2A       ROL     ; sign bit into C (C=1 positive, C=0 negative)
A212: A9 00    LDA #$00  ; clear mantissa 3 & 4
A214: 85 73    STA $73
A216: 85 72    STA $72
A218: 86 6F    STX $6F  ; save exponent
A21A: 8D 0E B8 STA $B80E ; clear extra mantissa
A21D: 85 74    STA $74  ; clear sign
A21F: 4C 20 9E JMP $9E20

A222: A9 91    LDA #$91
A224: 85 6F    STA $6F
A226: A9 00    LDA #$00
A228: 85 72    STA $72
A22A: 85 73    STA $73
A22C: 85 74    STA $74
A22E: 46 70    LSR $70
A230: 66 71    ROR $71
A232: 66 72    ROR $72
A234: 4C 25 9E JMP $9E25

; ABS function
A237: 46 74    LSR $74 ; clear FAC1 sign
A239: 60       RTS

; compare FAC1 with float (A, Y)
; A = 00  if FAC1 = (A, Y)
; A = 01  if FAC1 > (A, Y)
; A = FF  if FAC1 < (A, Y)
A23A: 85 46    STA $46
A23C: 84 47    STY $47
A23E: A0 00    LDY #$00
A240: B1 46    LDA ($46),Y
A242: C8       INY
A243: AA       TAX
A244: F0 AE    BEQ $A1F4
A246: B1 46    LDA ($46),Y
A248: 45 74    EOR $74
A24A: 30 AC    BMI $A1F8
A24C: E4 6F    CPX $6F
A24E: D0 22    BNE $A272
A250: B1 46    LDA ($46),Y
A252: 09 80    ORA #$80
A254: C5 70    CMP $70
A256: D0 1A    BNE $A272
A258: C8       INY
A259: B1 46    LDA ($46),Y
A25B: C5 71    CMP $71
A25D: D0 13    BNE $A272
A25F: C8       INY
A260: B1 46    LDA ($46),Y
A262: C5 72    CMP $72
A264: D0 0C    BNE $A272
A266: C8       INY
A267: A9 7F    LDA #$7F
A269: CD 0E B8 CMP $B80E
A26C: B1 46    LDA ($46),Y
A26E: E5 73    SBC $73
A270: F0 2A    BEQ $A29C
A272: A5 74    LDA $74
A274: 90 02    BCC $A278
A276: 49 FF    EOR #$FF
A278: 4C FA A1 JMP $A1FA

; convert float  to a 4 byte signed integer
A27B: A5 6F    LDA $6F
A27D: F0 4F    BEQ $A2CE
A27F: 38       SEC
A280: E9 A0    SBC #$A0
A282: 24 74    BIT $74
A284: 10 0A    BPL $A290  ; branch if FAC1 is positive
A286: AA       TAX
A287: A9 FF    LDA #$FF
A289: 8D 4D B9 STA $B94D
A28C: 20 A1 9E JSR $9EA1  ; negate mantissa
A28F: 8A       TXA

A290: A2 6F    LDX #$6F
A292: C9 F9    CMP #$F9
A294: 10 07    BPL $A29D
A296: 20 39 9F JSR $9F39
A299: 8C 4D B9 STY $B94D
A29C: 60       RTS

A29D: A8       TAY
A29E: A5 74    LDA $74
A2A0: 29 80    AND #$80
A2A2: 46 70    LSR $70
A2A4: 05 70    ORA $70
A2A6: 85 70    STA $70
A2A8: 20 51 9F JSR $9F51 ; right bit shift mantissa 2, 3, 4
A2AB: 8C 4D B9 STY $B94D
A2AE: 60       RTS

; INT function
A2AF: A5 6F    LDA $6F
A2B1: C9 A0    CMP #$A0
A2B3: B0 22    BCS $A2D7
A2B5: 20 7B A2 JSR $A27B
A2B8: 8C 0E B8 STY $B80E
A2BB: A5 74    LDA $74
A2BD: 84 74    STY $74
A2BF: 49 80    EOR #$80
A2C1: 2A       ROL
A2C2: A9 A0    LDA #$A0
A2C4: 85 6F    STA $6F
A2C6: A5 73    LDA $73
A2C8: 8D 00 B8 STA $B800
A2CB: 4C 20 9E JMP $9E20

; clear float accum
A2CE: 85 70    STA $70
A2D0: 85 71    STA $71
A2D2: 85 72    STA $72
A2D4: 85 73    STA $73
A2D6: A8       TAY
A2D7: 60       RTS

; convert string to float in float accum
A2D8: A0 00    LDY #$00
A2DA: A2 03    LDX #$03
A2DC: 94 66    STY $66,X
A2DE: CA       DEX
A2DF: 10 FB    BPL $A2DC
A2E1: A2 06    LDX #$06
A2E3: 94 6F    STY $6F,X
A2E5: CA       DEX
A2E6: 10 FB    BPL $A2E3
A2E8: 90 17    BCC $A301
A2EA: C9 2D    CMP #$2D
A2EC: F0 04    BEQ $A2F2
A2EE: C9 CA    CMP #$CA
A2F0: D0 04    BNE $A2F6
A2F2: 86 75    STX $75
A2F4: F0 08    BEQ $A2FE
A2F6: C9 2B    CMP #$2B
A2F8: F0 04    BEQ $A2FE
A2FA: C9 C9    CMP #$C9
A2FC: D0 05    BNE $A303
A2FE: 20 1A 96 JSR $961A
A301: 90 5B    BCC $A35E
A303: C9 2E    CMP #$2E
A305: F0 2E    BEQ $A335
A307: C9 45    CMP #$45
A309: D0 30    BNE $A33B
A30B: 20 1A 96 JSR $961A
A30E: 90 17    BCC $A327
A310: C9 CA    CMP #$CA
A312: F0 0E    BEQ $A322
A314: C9 2D    CMP #$2D
A316: F0 0A    BEQ $A322
A318: C9 C9    CMP #$C9
A31A: F0 08    BEQ $A324
A31C: C9 2B    CMP #$2B
A31E: F0 04    BEQ $A324
A320: D0 07    BNE $A329
A322: 66 69    ROR $69
A324: 20 1A 96 JSR $961A
A327: 90 49    BCC $A372
A329: 24 69    BIT $69
A32B: 10 0E    BPL $A33B
A32D: A9 00    LDA #$00
A32F: 38       SEC
A330: E5 67    SBC $67
A332: 4C 3D A3 JMP $A33D

A335: 66 68    ROR $68
A337: 24 68    BIT $68
A339: 50 C3    BVC $A2FE
A33B: A5 67    LDA $67
A33D: 38       SEC
A33E: E5 66    SBC $66
A340: 85 67    STA $67
A342: F0 12    BEQ $A356
A344: 10 09    BPL $A34F
A346: 20 B1 A0 JSR $A0B1
A349: E6 67    INC $67
A34B: D0 F9    BNE $A346
A34D: F0 07    BEQ $A356
A34F: 20 95 A0 JSR $A095
A352: C6 67    DEC $67
A354: D0 F9    BNE $A34F
A356: A5 75    LDA $75
A358: 30 01    BMI $A35B
A35A: 60       RTS
A35B: 4C 2B A6 JMP $A62B
A35E: 48       PHA
A35F: 24 68    BIT $68
A361: 10 02    BPL $A365
A363: E6 66    INC $66
A365: 20 95 A0 JSR $A095
A368: 68       PLA
A369: 38       SEC
A36A: E9 30    SBC #$30 ; '0'
A36C: 20 2D A4 JSR $A42D
A36F: 4C FE A2 JMP $A2FE

A372: A5 67    LDA $67
A374: C9 0A    CMP #$0A
A376: 90 09    BCC $A381
A378: A9 64    LDA #$64
A37A: 24 69    BIT $69
A37C: 30 10    BMI $A38E
A37E: 4C D5 9E JMP $9ED5
A381: 0A       ASL
A382: 0A       ASL
A383: 18       CLC
A384: 65 67    ADC $67
A386: 0A       ASL
A387: 18       CLC
A388: 6D 2A B9 ADC $B92A
A38B: 38       SEC
A38C: E9 30    SBC #$30
A38E: 85 67    STA $67
A390: 4C 24 A3 JMP $A324

A393: A0 00    LDY #$00
A395: A2 03    LDX #$03
A397: 94 66    STY $66,X
A399: CA       DEX
A39A: 10 FB    BPL $A397

; clear FAC1
A39C: A2 06    LDX #$06
A39E: 94 6F    STY $6F,X
A3A0: CA       DEX
A3A1: 10 FB    BPL $A39E

A3A3: 90 17    BCC $A3BC
A3A5: C9 2D    CMP #$2D
A3A7: F0 04    BEQ $A3AD
A3A9: C9 CA    CMP #$CA
A3AB: D0 04    BNE $A3B1
A3AD: 86 75    STX $75
A3AF: F0 08    BEQ $A3B9
A3B1: C9 2B    CMP #$2B
A3B3: F0 04    BEQ $A3B9
A3B5: C9 C9    CMP #$C9
A3B7: D0 05    BNE $A3BE
A3B9: 20 34 66 JSR $6634

A3BC: 90 5B    BCC $A419
A3BE: C9 2E    CMP #$2E
A3C0: F0 2E    BEQ $A3F0
A3C2: C9 45    CMP #$45
A3C4: D0 30    BNE $A3F6
A3C6: 20 34 66 JSR $6634
A3C9: 90 17    BCC $A3E2
A3CB: C9 CA    CMP #$CA
A3CD: F0 0E    BEQ $A3DD
A3CF: C9 2D    CMP #$2D
A3D1: F0 0A    BEQ $A3DD
A3D3: C9 C9    CMP #$C9
A3D5: F0 08    BEQ $A3DF
A3D7: C9 2B    CMP #$2B
A3D9: F0 04    BEQ $A3DF
A3DB: D0 07    BNE $A3E4
A3DD: 66 69    ROR $69
A3DF: 20 34 66 JSR $6634
A3E2: 90 5C    BCC $A440
A3E4: 24 69    BIT $69
A3E6: 10 0E    BPL $A3F6
A3E8: A9 00    LDA #$00
A3EA: 38       SEC
A3EB: E5 67    SBC $67
A3ED: 4C F8 A3 JMP $A3F8
A3F0: 66 68    ROR $68
A3F2: 24 68    BIT $68
A3F4: 50 C3    BVC $A3B9
A3F6: A5 67    LDA $67
A3F8: 38       SEC
A3F9: E5 66    SBC $66
A3FB: 85 67    STA $67
A3FD: F0 12    BEQ $A411
A3FF: 10 09    BPL $A40A
A401: 20 B1 A0 JSR $A0B1
A404: E6 67    INC $67
A406: D0 F9    BNE $A401
A408: F0 07    BEQ $A411
A40A: 20 95 A0 JSR $A095
A40D: C6 67    DEC $67
A40F: D0 F9    BNE $A40A
A411: A5 75    LDA $75
A413: 30 01    BMI $A416
A415: 60       RTS
A416: 4C 2B A6 JMP $A62B

A419: 48       PHA
A41A: 24 68    BIT $68
A41C: 10 02    BPL $A420
A41E: E6 66    INC $66
A420: 20 95 A0 JSR $A095  ; multiply FAC1 by 10
A423: 68       PLA
A424: 38       SEC
A425: E9 30    SBC #$30
A427: 20 2D A4 JSR $A42D
A42A: 4C B9 A3 JMP $A3B9
A42D: 48       PHA
A42E: 20 D3 A1 JSR $A1D3
A431: 68       PLA
A432: 20 05 A2 JSR $A205
A435: A5 7C    LDA $7C
A437: 45 74    EOR $74
A439: 85 7D    STA $7D
A43B: A6 6F    LDX $6F
A43D: 4C B0 9D JMP $9DB0
A440: A5 67    LDA $67
A442: C9 0A    CMP #$0A
A444: 90 09    BCC $A44F
A446: A9 64    LDA #$64
A448: 24 69    BIT $69
A44A: 30 11    BMI $A45D
A44C: 4C D5 9E JMP $9ED5
A44F: 0A       ASL
A450: 0A       ASL
A451: 18       CLC
A452: 65 67    ADC $67
A454: 0A       ASL
A455: 18       CLC
A456: A0 00    LDY #$00
A458: 71 5E    ADC ($5E),Y
A45A: 38       SEC
A45B: E9 30    SBC #$30
A45D: 85 67    STA $67
A45F: 4C DF A3 JMP $A3DF

; 99_999_999.90625  maximum value with at least one decimal
A462: .db $9B, $3e, $bc, $1f, $fd

; 999_999_999.25  maximum value before scientific notation
A467: .db $9E, $6E, $6b, $27, $fd

; 1_000_000_000
A46C: .db $9E, $6E, $6b, $28, $00

A471: A9 29    LDA #$29
A473: A0 66    LDY #$66
A475: 20 8B A4 JSR $A48B
A478: AD 15 B8 LDA $B815
A47B: AE 14 B8 LDX $B814

A47E: 85 70    STA $70
A480: 86 71    STX $71
A482: A2 90    LDX #$90
A484: 38       SEC
A485: 20 12 A2 JSR $A212
A488: 20 8E A4 JSR $A48E
A48B: 4C 2D 79 JMP $792D

A48E: A0 01    LDY #$01
A490: A9 2D    LDA #$2D
A492: 88       DEY
A493: 24 74    BIT $74
A495: 10 04    BPL $A49B
A497: C8       INY
A498: 99 98 B9 STA $B998,Y
A49B: 85 74    STA $74
A49D: 84 52    STY $52
A49F: C8       INY
A4A0: A9 30    LDA #$30
A4A2: A6 6F    LDX $6F
A4A4: D0 03    BNE $A4A9
A4A6: 4C B1 A5 JMP $A5B1
A4A9: A9 00    LDA #$00
A4AB: E0 80    CPX #$80
A4AD: F0 02    BEQ $A4B1
A4AF: B0 09    BCS $A4BA
A4B1: A9 6C    LDA #$6C
A4B3: A0 A4    LDY #$A4
A4B5: 20 C9 9F JSR $9FC9
A4B8: A9 F7    LDA #$F7
A4BA: 85 66    STA $66
A4BC: A9 67    LDA #$67
A4BE: A0 A4    LDY #$A4
A4C0: 20 3A A2 JSR $A23A
A4C3: F0 1E    BEQ $A4E3
A4C5: 10 12    BPL $A4D9
A4C7: A9 62    LDA #$62
A4C9: A0 A4    LDY #$A4
A4CB: 20 3A A2 JSR $A23A
A4CE: F0 02    BEQ $A4D2
A4D0: 10 0E    BPL $A4E0
A4D2: 20 95 A0 JSR $A095
A4D5: C6 66    DEC $66
A4D7: D0 EE    BNE $A4C7
A4D9: 20 B1 A0 JSR $A0B1
A4DC: E6 66    INC $66
A4DE: D0 DC    BNE $A4BC
A4E0: 20 8F 9D JSR $9D8F
A4E3: 20 7B A2 JSR $A27B
A4E6: A2 01    LDX #$01
A4E8: A5 66    LDA $66
A4EA: 18       CLC
A4EB: 69 0A    ADC #$0A
A4ED: 30 09    BMI $A4F8
A4EF: C9 0B    CMP #$0B
A4F1: B0 06    BCS $A4F9
A4F3: 69 FF    ADC #$FF
A4F5: AA       TAX
A4F6: A9 02    LDA #$02
A4F8: 38       SEC
A4F9: E9 02    SBC #$02
A4FB: 85 67    STA $67
A4FD: 86 66    STX $66
A4FF: 8A       TXA
A500: F0 02    BEQ $A504
A502: 10 13    BPL $A517
A504: A4 52    LDY $52
A506: A9 2E    LDA #$2E
A508: C8       INY
A509: 99 98 B9 STA $B998,Y
A50C: 8A       TXA
A50D: F0 06    BEQ $A515
A50F: A9 30    LDA #$30
A511: C8       INY
A512: 99 98 B9 STA $B998,Y
A515: 84 52    STY $52
A517: A0 00    LDY #$00
A519: A2 80    LDX #$80
A51B: A5 73    LDA $73
A51D: 18       CLC
A51E: 79 C6 A5 ADC $A5C6,Y
A521: 85 73    STA $73
A523: A5 72    LDA $72
A525: 79 C5 A5 ADC $A5C5,Y
A528: 85 72    STA $72
A52A: A5 71    LDA $71
A52C: 79 C4 A5 ADC $A5C4,Y
A52F: 85 71    STA $71
A531: A5 70    LDA $70
A533: 79 C3 A5 ADC $A5C3,Y
A536: 85 70    STA $70
A538: E8       INX
A539: B0 04    BCS $A53F
A53B: 10 DE    BPL $A51B
A53D: 30 02    BMI $A541
A53F: 30 DA    BMI $A51B
A541: 8A       TXA
A542: 90 04    BCC $A548
A544: 49 FF    EOR #$FF
A546: 69 0A    ADC #$0A
A548: 69 2F    ADC #$2F
A54A: C8       INY
A54B: C8       INY
A54C: C8       INY
A54D: C8       INY
A54E: 84 58    STY $58
A550: A4 52    LDY $52
A552: C8       INY
A553: AA       TAX
A554: 29 7F    AND #$7F
A556: 99 98 B9 STA $B998,Y
A559: C6 66    DEC $66
A55B: D0 06    BNE $A563
A55D: A9 2E    LDA #$2E
A55F: C8       INY
A560: 99 98 B9 STA $B998,Y
A563: 84 52    STY $52
A565: A4 58    LDY $58
A567: 8A       TXA
A568: 49 FF    EOR #$FF
A56A: 29 80    AND #$80
A56C: AA       TAX
A56D: C0 24    CPY #$24
A56F: D0 AA    BNE $A51B
A571: A4 52    LDY $52
A573: B9 98 B9 LDA $B998,Y
A576: 88       DEY
A577: C9 30    CMP #$30
A579: F0 F8    BEQ $A573
A57B: C9 2E    CMP #$2E
A57D: F0 01    BEQ $A580
A57F: C8       INY
A580: A9 2B    LDA #$2B
A582: A6 67    LDX $67
A584: F0 2E    BEQ $A5B4
A586: 10 08    BPL $A590
A588: A9 00    LDA #$00
A58A: 38       SEC
A58B: E5 67    SBC $67
A58D: AA       TAX
A58E: A9 2D    LDA #$2D
A590: 99 9A B9 STA $B99A,Y
A593: A9 45    LDA #$45
A595: 99 99 B9 STA $B999,Y
A598: 8A       TXA
A599: A2 2F    LDX #$2F
A59B: 38       SEC
A59C: E8       INX
A59D: E9 0A    SBC #$0A
A59F: B0 FB    BCS $A59C
A5A1: 69 3A    ADC #$3A
A5A3: 99 9C B9 STA $B99C,Y
A5A6: 8A       TXA
A5A7: 99 9B B9 STA $B99B,Y
A5AA: A9 00    LDA #$00
A5AC: 99 9D B9 STA $B99D,Y
A5AF: F0 08    BEQ $A5B9
A5B1: 99 98 B9 STA $B998,Y
A5B4: A9 00    LDA #$00
A5B6: 99 99 B9 STA $B999,Y
A5B9: A9 99    LDA #$99
A5BB: A0 B9    LDY #$B9
A5BD: 60       RTS

; 0.5, first two bytes
A5BE: .db $80, $00

; null return for undefined variables
A5C0: .db $00, $00, $00

A5C3: .db $FA, $0A, $1F, $00  ; -100_000_000
A5C7: .db $00, $98, $96, $80  ; +10_000_000
A5CB: .db $FF, $F0, $bd, $c0  ; -1_000_000
A5CF: .db $00, $01, $86, $a0  ; +100_000
A5D3: .db $FF, $ff, $d8, $f0  ; -10_000
A5D7: .db $00, $00, $03, $e8  ; +1_000
A5DB: .db $FF, $ff, $ff, $9c  ; -100
A5DF: .db $00, $00, $00, $0a  ; +10
A5E3: .db $FF, $ff, $ff, $ff  ; -1

; SQR function
A5E7: 20 D3 A1 JSR $A1D3
A5EA: A9 BE    LDA #$BE
A5EC: A0 A5    LDY #$A5
A5EE: 20 66 A1 JSR $A166

; ^ operator
A5F1: F0 71    BEQ $A664
A5F3: A5 77    LDA $77
A5F5: D0 03    BNE $A5FA
A5F7: 4C 49 9E JMP $9E49

A5FA: A2 6A    LDX #$6A
A5FC: A0 00    LDY #$00
A5FE: 20 99 A1 JSR $A199
A601: A5 7C    LDA $7C
A603: 10 10    BPL $A615
A605: 20 AF A2 JSR $A2AF
A608: A9 6A    LDA #$6A
A60A: A0 00    LDY #$00
A60C: 20 3A A2 JSR $A23A
A60F: D0 04    BNE $A615
A611: 98       TYA
A612: AC 00 B8 LDY $B800
A615: 20 C4 A1 JSR $A1C4
A618: 98       TYA
A619: 48       PHA
A61A: 20 8B 9F JSR $9F8B
A61D: A9 6A    LDA #$6A
A61F: A0 00    LDY #$00
A621: 20 C9 9F JSR $9FC9
A624: 20 64 A6 JSR $A664
A627: 68       PLA
A628: 4A       LSR
A629: 90 0A    BCC $A635

; minus operator
A62B: A5 6F    LDA $6F
A62D: F0 06    BEQ $A635
A62F: A5 74    LDA $74
A631: 49 FF    EOR #$FF
A633: 85 74    STA $74
A635: 60       RTS

; 1 / log(2)
A636: .db $81, $38, $aa, $3b, $29

; EXP polynomial table
A63B: .db $07 ; degree 8
A63C: .db $71, $34, $58, $3e, $56
A641: .db $74, $16, $7e, $b3, $1b
A646: .db $77, $2f, $ee, $e3, $85
A64B: .db $7A, $1d, $84, $1c, $2a
A650: .db $7C, $63, $59, $58, $0a
A655: .db $7E, $75, $FD, $e7, $c6
A65A: .db $80, $31, $72, $18, $10
A65F: .db $81, $00, $00, $00, $00

; EXP function
A664: A9 36    LDA #$36
A666: A0 A6    LDY #$A6
A668: 20 C9 9F JSR $9FC9
A66B: AD 0E B8 LDA $B80E
A66E: 69 50    ADC #$50
A670: 90 03    BCC $A675
A672: 20 EC A1 JSR $A1EC
A675: 8D 60 B9 STA $B960
A678: 20 D6 A1 JSR $A1D6
A67B: A5 6F    LDA $6F
A67D: C9 88    CMP #$88
A67F: 90 03    BCC $A684
A681: 20 87 A0 JSR $A087
A684: 20 AF A2 JSR $A2AF
A687: AD 00 B8 LDA $B800
A68A: 18       CLC
A68B: 69 81    ADC #$81
A68D: F0 F2    BEQ $A681
A68F: 38       SEC
A690: E9 01    SBC #$01
A692: 48       PHA
A693: A2 05    LDX #$05
A695: B5 77    LDA $77,X
A697: B4 6F    LDY $6F,X
A699: 95 6F    STA $6F,X
A69B: 94 77    STY $77,X
A69D: CA       DEX
A69E: 10 F5    BPL $A695
A6A0: AD 60 B9 LDA $B960
A6A3: 8D 0E B8 STA $B80E
A6A6: 20 99 9D JSR $9D99
A6A9: 20 2B A6 JSR $A62B
A6AC: A9 3B    LDA #$3B
A6AE: A0 A6    LDY #$A6
A6B0: 20 D4 A6 JSR $A6D4
A6B3: A9 00    LDA #$00
A6B5: 85 7D    STA $7D
A6B7: 68       PLA
A6B8: 20 6C A0 JSR $A06C
A6BB: 60       RTS
A6BC: 85 52    STA $52
A6BE: 84 53    STY $53
A6C0: 20 8F A1 JSR $A18F
A6C3: A9 60    LDA #$60
A6C5: A0 00    LDY #$00
A6C7: 20 C9 9F JSR $9FC9
A6CA: 20 D8 A6 JSR $A6D8
A6CD: A9 60    LDA #$60
A6CF: A0 00    LDY #$00
A6D1: 4C C9 9F JMP $9FC9
A6D4: 85 52    STA $52
A6D6: 84 53    STY $53
A6D8: 20 8C A1 JSR $A18C
A6DB: B1 52    LDA ($52),Y
A6DD: 85 75    STA $75
A6DF: A4 52    LDY $52
A6E1: C8       INY
A6E2: 98       TYA
A6E3: D0 02    BNE $A6E7
A6E5: E6 53    INC $53
A6E7: 85 52    STA $52
A6E9: A4 53    LDY $53
A6EB: 20 C9 9F JSR $9FC9
A6EE: A5 52    LDA $52
A6F0: A4 53    LDY $53
A6F2: 18       CLC
A6F3: 69 05    ADC #$05
A6F5: 90 01    BCC $A6F8
A6F7: C8       INY
A6F8: 85 52    STA $52
A6FA: 84 53    STY $53
A6FC: 20 AD 9D JSR $9DAD
A6FF: A9 65    LDA #$65
A701: A0 00    LDY #$00
A703: C6 75    DEC $75
A705: D0 E4    BNE $A6EB
A707: 60       RTS

; float numbers for RND
A708: .DB $98, $35, $44, $7a
A70C: .DB $68, $28, $b1, $46

; RND function
A710: 20 F4 A1 JSR $A1F4
A713: AA       TAX
A714: 30 18    BMI $A72E
A716: A9 BB    LDA #$BB
A718: A0 B8    LDY #$B8
A71A: 20 66 A1 JSR $A166
A71D: 8A       TXA
A71E: F0 E7    BEQ $A707
A720: A9 08    LDA #$08
A722: A0 A7    LDY #$A7
A724: 20 C9 9F JSR $9FC9
A727: A9 0C    LDA #$0C
A729: A0 A7    LDY #$A7
A72B: 20 AD 9D JSR $9DAD
A72E: A6 73    LDX $73
A730: A5 70    LDA $70
A732: 85 73    STA $73
A734: 86 70    STX $70
A736: A9 00    LDA #$00
A738: 85 74    STA $74
A73A: A5 6F    LDA $6F
A73C: 8D 0E B8 STA $B80E
A73F: A9 80    LDA #$80
A741: 85 6F    STA $6F
A743: 20 25 9E JSR $9E25
A746: A2 BB    LDX #$BB
A748: A0 B8    LDY #$B8
A74A: 4C 99 A1 JMP $A199

; COS function
A74D: A9 CD    LDA #$CD
A74F: A0 A7    LDY #$A7
A751: 20 AD 9D JSR $9DAD

; SIN function
A754: 20 D3 A1 JSR $A1D3
A757: A9 D2    LDA #$D2
A759: A0 A7    LDY #$A7
A75B: A6 7C    LDX $7C
A75D: 20 BA A0 JSR $A0BA
A760: 20 D3 A1 JSR $A1D3
A763: 20 AF A2 JSR $A2AF
A766: A9 00    LDA #$00
A768: 85 7D    STA $7D
A76A: 20 99 9D JSR $9D99
A76D: A9 D7    LDA #$D7
A76F: A0 A7    LDY #$A7
A771: 20 96 9D JSR $9D96
A774: A5 74    LDA $74
A776: 48       PHA
A777: 10 0F    BPL $A788
A779: 20 8F 9D JSR $9D8F
A77C: A5 74    LDA $74
A77E: 30 0B    BMI $A78B
A780: AD 0D B8 LDA $B80D
A783: 49 FF    EOR #$FF
A785: 8D 0D B8 STA $B80D

A788: 20 2B A6 JSR $A62B
A78B: A9 D7    LDA #$D7 ; low B7D7
A78D: A0 A7    LDY #$A7 ; high B7D7
A78F: 20 AD 9D JSR $9DAD
A792: 68       PLA
A793: 10 03    BPL $A798
A795: 20 2B A6 JSR $A62B
A798: A9 DC    LDA #$DC ; low B7DC
A79A: A0 A7    LDY #$A7 ; highi B7Dc
A79C: 4C BC A6 JMP $A6BC

; TAN function
A79F: 20 8F A1 JSR $A18F
A7A2: A9 00    LDA #$00
A7A4: 8D 0D B8 STA $B80D
A7A7: 20 54 A7 JSR $A754
A7AA: A2 6A    LDX #$6A
A7AC: A0 00    LDY #$00
A7AE: 20 4A A7 JSR $A74A
A7B1: A9 60    LDA #$60
A7B3: A0 00    LDY #$00
A7B5: 20 66 A1 JSR $A166
A7B8: A9 00    LDA #$00
A7BA: 85 74    STA $74
A7BC: AD 0D B8 LDA $B80D
A7BF: 20 C9 A7 JSR $A7C9
A7C2: A9 6A    LDA #$6A
A7C4: A0 00    LDY #$00
A7C6: 4C C2 A0 JMP $A0C2

A7C9: 48       PHA
A7CA: 4C 88 A7 JMP $A788

; float numbers for SIN, COS and TAN

; 0.5 * PI
A7CD: .db $81, $49, $0f, $da, $a2
; 2 * PI
A7D2: .db $83, $49, $0f, $da, $a2
; 0.25
A7D7: .db $7F, $00, $00, $00, $00

; polynomial table
A7DC: .db $05 ; degree 6
A7DD: .db $84, $e6, $1a, $2d, $1b
A7E2: .db $86, $28, $07, $fb, $f8
A7E7: .db $87, $99, $68, $89, $01
A7EC: .db $87, $23, $35, $df, $e1
A7F1: .db $86, $a5, $5d, $e7, $28
A7F6: .db $83, $49, $0f, $da, $a2

A7FB: A6
A7FC: D3       ??
A7FD: C1 C8    CMP ($C8,X)
A7FF: D4       ??
A800: C8       INY
A801: D5 C4    CMP $C4,X
A803: CE CA

; ATN function
A805: A5 74    LDA $74
A807: 48       PHA
A808: 10 03    BPL $A80D
A80A: 20 2B A6 JSR $A62B
A80D: A5 6F    LDA $6F
A80F: 48       PHA
A810: C9 81    CMP #$81
A812: 90 07    BCC $A81B
A814: A9 5D    LDA #$5D ; low AF5D
A816: A0 9F    LDY #$9F ; high AF5D
A818: 20 C2 A0 JSR $A0C2
A81B: A9 35    LDA #$35 ; low B835
A81D: A0 A8    LDY #$A8 ; high B835
A81F: 20 BC A6 JSR $A6BC
A822: 68       PLA
A823: C9 81    CMP #$81
A825: 90 07    BCC $A82E
A827: A9 CD    LDA #$CD ; low B7CD
A829: A0 A7    LDY #$A7 ; high B7CD
A82B: 20 96 9D JSR $9D96
A82E: 68       PLA
A82F: 10 03    BPL $A834
A831: 4C 2B A6 JMP $A62B
A834: 60       RTS

; float numbers for ATN
; polynomial table
A835: .db $0B ; degree 12
A836: .db $76, $B3, $83, $bd, $d3
A83B: .db $79, $1e, $f4, $a6, $f5
A840: .db $7B, $83, $fc, $b0, $10
A845: .db $7C, $0c, $1f, $67, $ca
A84A: .db $7C, $de, $53, $cb, $c1
A84F: .db $7D, $14, $64, $70, $4c
A854: .db $7D, $B7, $EA, $51, $7a
A859: .db $7D, $63, $30, $88, $7e
A85D: .db $7E, $92, $44, $99, $3a
A863: .db $7E, $4c, $cc, $91, $c7
A868: .db $7F, $aa, $aa, $aa, $13
A86D: .db $81, $00, $00, $00, $00

A872: 20 C7 85 JSR $85C7
A875: E0 30    CPX #$30
A877: B0 11    BCS $A88A
A879: A9 2C    LDA #$2C
A87B: 20 F4 9C JSR $9CF4
A87E: 20 C7 85 JSR $85C7
A881: E0 30    CPX #$30
A883: B0 05    BCS $A88A
A885: 86 FD    STX $FD
A887: 86 FE    STX $FE
A889: 60       RTS
A88A: 4C 99 99 JMP $9999
A88D: A5 84    LDA $84
A88F: 05 85    ORA $85
A891: D0 05    BNE $A898
A893: A9 7F    LDA #$7F
A895: 69 08    ADC #$08
A897: 60       RTS
A898: 20 0D A9 JSR $A90D
A89B: A5 81    LDA $81
A89D: C5 85    CMP $85
A89F: D0 04    BNE $A8A5
A8A1: A5 80    LDA $80
A8A3: C5 84    CMP $84
A8A5: B0 12    BCS $A8B9
A8A7: A5 81    LDA $81
A8A9: 85 83    STA $83
A8AB: A5 80    LDA $80
A8AD: 85 82    STA $82
A8AF: A9 00    LDA #$00
A8B1: 85 80    STA $80
A8B3: A9 00    LDA #$00
A8B5: 85 81    STA $81
A8B7: B8       CLV
A8B8: 60       RTS
A8B9: A5 81    LDA $81
A8BB: 05 85    ORA $85
A8BD: F0 21    BEQ $A8E0
A8BF: A0 10    LDY #$10
A8C1: 06 80    ASL $80
A8C3: 26 81    ROL $81
A8C5: 26 82    ROL $82
A8C7: 26 83    ROL $83
A8C9: 38       SEC
A8CA: A5 82    LDA $82
A8CC: E5 84    SBC $84
A8CE: AA       TAX
A8CF: A5 83    LDA $83
A8D1: E5 85    SBC $85
A8D3: 90 06    BCC $A8DB
A8D5: 86 82    STX $82
A8D7: 85 83    STA $83
A8D9: E6 80    INC $80
A8DB: 88       DEY
A8DC: D0 E3    BNE $A8C1
A8DE: F0 1A    BEQ $A8FA
A8E0: A9 00    LDA #$00
A8E2: A0 08    LDY #$08
A8E4: 06 80    ASL $80
A8E6: 2A       ROL
A8E7: 38       SEC
A8E8: E5 84    SBC $84
A8EA: B0 07    BCS $A8F3
A8EC: 65 84    ADC $84
A8EE: 88       DEY
A8EF: D0 F3    BNE $A8E4
A8F1: F0 05    BEQ $A8F8
A8F3: E6 80    INC $80
A8F5: 88       DEY
A8F6: D0 EC    BNE $A8E4
A8F8: 85 82    STA $82
A8FA: A5 86    LDA $86
A8FC: F0 0D    BEQ $A90B
A8FE: 38       SEC
A8FF: A9 00    LDA #$00
A901: E5 80    SBC $80
A903: 85 80    STA $80
A905: A9 00    LDA #$00
A907: E5 81    SBC $81
A909: 85 81    STA $81
A90B: B8       CLV
A90C: 60       RTS
A90D: A0 00    LDY #$00
A90F: 84 82    STY $82
A911: 84 83    STY $83
A913: A5 81    LDA $81
A915: 45 85    EOR $85
A917: 29 80    AND #$80
A919: 85 86    STA $86
A91B: A5 81    LDA $81
A91D: 10 0D    BPL $A92C
A91F: 38       SEC
A920: A9 00    LDA #$00
A922: E5 80    SBC $80
A924: 85 80    STA $80
A926: A9 00    LDA #$00
A928: E5 81    SBC $81
A92A: 85 81    STA $81
A92C: A5 85    LDA $85
A92E: 30 01    BMI $A931
A930: 60       RTS
A931: 38       SEC
A932: A9 00    LDA #$00
A934: E5 84    SBC $84
A936: 85 84    STA $84
A938: A9 00    LDA #$00
A93A: E5 85    SBC $85
A93C: 85 85    STA $85
A93E: 60       RTS
A93F: A9 00    LDA #$00
A941: 85 83    STA $83
A943: 85 84    STA $84
A945: 85 85    STA $85
A947: A5 80    LDA $80
A949: 05 81    ORA $81
A94B: D0 01    BNE $A94E
A94D: 60       RTS
A94E: A5 82    LDA $82
A950: F0 FB    BEQ $A94D
A952: A2 08    LDX #$08
A954: 18       CLC
A955: 06 83    ASL $83
A957: 26 84    ROL $84
A959: 26 85    ROL $85
A95B: 18       CLC
A95C: 06 82    ASL $82
A95E: 90 11    BCC $A971
A960: 18       CLC
A961: A5 83    LDA $83
A963: 65 80    ADC $80
A965: 85 83    STA $83
A967: A5 84    LDA $84
A969: 65 81    ADC $81
A96B: 85 84    STA $84
A96D: 90 02    BCC $A971
A96F: E6 85    INC $85
A971: CA       DEX
A972: D0 E0    BNE $A954
A974: 60       RTS
A975: A9 3F    LDA #$3F
A977: 8D B8 B8 STA $B8B8
A97A: A9 02    LDA #$02
A97C: 8D B7 B8 STA $B8B7
A97F: 20 5E AC JSR $AC5E
A982: AD 05 04 LDA $0405
A985: 29 D2    AND #$D2
A987: F0 14    BEQ $A99D
A989: 78       SEI
A98A: A9 00    LDA #$00
A98C: 8D E2 03 STA $03E2
A98F: 8D 40 0B STA $0B40
A992: A9 80    LDA #$80
A994: 8D 41 0B STA $0B41
A997: 58       CLI
A998: 00 08 C0 INT $C008
A99B: 18       CLC
A99C: 60       RTS
A99D: AD 40 0B LDA $0B40
A9A0: 10 0B    BPL $A9AD
A9A2: 20 1B AA JSR $AA1B
A9A5: A9 00    LDA #$00
A9A7: 8D F6 03 STA $03F6
A9AA: 4C 82 A9 JMP $A982
A9AD: A2 00    LDX #$00
A9AF: A0 00    LDY #$00
A9B1: B1 60    LDA ($60),Y
A9B3: DD C8 AC CMP $ACC8,X
A9B6: F0 0B    BEQ $A9C3
A9B8: E8       INX
A9B9: E0 0E    CPX #$0E
A9BB: D0 03    BNE $A9C0
A9BD: 4C 19 AA JMP $AA19
A9C0: 4C B3 A9 JMP $A9B3
A9C3: 8A       TXA
A9C4: A8       TAY
A9C5: 0A       ASL
A9C6: AA       TAX
A9C7: BD AC AC LDA $ACAC,X
A9CA: 85 81    STA $81
A9CC: BD AD AC LDA $ACAD,X
A9CF: 85 82    STA $82
A9D1: A9 4C    LDA #$4C
A9D3: 85 80    STA $80
A9D5: 98       TYA
A9D6: 20 80 00 JSR $0080
A9D9: B0 3E    BCS $AA19
A9DB: A0 00    LDY #$00
A9DD: B1 60    LDA ($60),Y
A9DF: F0 03    BEQ $A9E4
A9E1: 4C 82 A9 JMP $A982
A9E4: AD 40 0B LDA $0B40
A9E7: 10 17    BPL $AA00
A9E9: 2C 41 0B BIT $0B41
A9EC: 70 0B    BVS $A9F9
A9EE: AD 41 0B LDA $0B41
A9F1: 09 40    ORA #$40
A9F3: 8D 41 0B STA $0B41
A9F6: 00 BD FF INT $FFBD
A9F9: A9 00    LDA #$00
A9FB: 8D F6 03 STA $03F6
A9FE: F0 E4    BEQ $A9E4
AA00: A9 FF    LDA #$FF
AA02: A0 FF    LDY #$FF
AA04: 20 E4 AB JSR $ABE4
AA07: 2C 41 0B BIT $0B41
AA0A: 70 0B    BVS $AA17
AA0C: AD 41 0B LDA $0B41
AA0F: 09 40    ORA #$40
AA11: 8D 41 0B STA $0B41
AA14: 00 BD FF INT $FFBD
AA17: 18       CLC
AA18: 60       RTS
AA19: 38       SEC
AA1A: 60       RTS
AA1B: AD 41 0B LDA $0B41
AA1E: 29 40    AND #$40
AA20: D0 0B    BNE $AA2D
AA22: AD 41 0B LDA $0B41
AA25: 09 40    ORA #$40
AA27: 8D 41 0B STA $0B41
AA2A: 00 BD FF INT $FFBD
AA2D: 60       RTS
AA2E: 48       PHA
AA2F: E6 60    INC $60
AA31: D0 02    BNE $AA35
AA33: E6 61    INC $61
AA35: 20 7F AB JSR $AB7F
AA38: 68       PLA
AA39: B0 57    BCS $AA92
AA3B: AA       TAX
AA3C: A8       TAY
AA3D: BD DB AC LDA $ACDB,X
AA40: 8D BA B8 STA $B8BA
AA43: AE B7 B8 LDX $B8B7
AA46: BD D6 AC LDA $ACD6,X
AA49: 18       CLC
AA4A: 6D BA B8 ADC $B8BA
AA4D: 8D BA B8 STA $B8BA
AA50: AD B9 B8 LDA $B8B9
AA53: 29 01    AND #$01
AA55: F0 0A    BEQ $AA61
AA57: C0 03    CPY #$03
AA59: F0 14    BEQ $AA6F
AA5B: CE BA B8 DEC $B8BA
AA5E: 4C 6F AA JMP $AA6F
AA61: AD B9 B8 LDA $B8B9
AA64: 29 02    AND #$02
AA66: F0 07    BEQ $AA6F
AA68: C0 02    CPY #$02
AA6A: F0 03    BEQ $AA6F
AA6C: EE BA B8 INC $B8BA
AA6F: AD BA B8 LDA $B8BA
AA72: 09 C0    ORA #$C0
AA74: 8D BA B8 STA $B8BA
AA77: AC B8 B8 LDY $B8B8
AA7A: AD B9 B8 LDA $B8B9
AA7D: 29 04    AND #$04
AA7F: F0 09    BEQ $AA8A
AA81: AD B8 B8 LDA $B8B8
AA84: 4A       LSR
AA85: 18       CLC
AA86: 6D B8 B8 ADC $B8B8
AA89: A8       TAY
AA8A: AD BA B8 LDA $B8BA
AA8D: 20 E4 AB JSR $ABE4
AA90: 18       CLC
AA91: 60       RTS
AA92: 38       SEC
AA93: 60       RTS
AA94: E6 60    INC $60
AA96: D0 02    BNE $AA9A
AA98: E6 61    INC $61
AA9A: 20 33 AB JSR $AB33
AA9D: B0 0A    BCS $AAA9
AA9F: 20 95 AC JSR $AC95
AAA2: B0 05    BCS $AAA9
AAA4: 8D B8 B8 STA $B8B8
AAA7: 18       CLC
AAA8: 60       RTS
AAA9: 38       SEC
AAAA: 60       RTS
AAAB: E6 60    INC $60
AAAD: D0 02    BNE $AAB1
AAAF: E6 61    INC $61
AAB1: 20 33 AB JSR $AB33
AAB4: B0 0B    BCS $AAC1
AAB6: C9 08    CMP #$08
AAB8: F0 02    BEQ $AABC
AABA: B0 05    BCS $AAC1
AABC: 8D 66 B9 STA $B966
AABF: 18       CLC
AAC0: 60       RTS
AAC1: 38       SEC
AAC2: 60       RTS
AAC3: E6 60    INC $60
AAC5: D0 02    BNE $AAC9
AAC7: E6 61    INC $61
AAC9: 20 33 AB JSR $AB33
AACC: B0 2C    BCS $AAFA
AACE: 20 95 AC JSR $AC95
AAD1: B0 27    BCS $AAFA
AAD3: 8D B9 B8 STA $B8B9
AAD6: A0 00    LDY #$00
AAD8: B1 60    LDA ($60),Y
AADA: C9 2E    CMP #$2E
AADC: D0 12    BNE $AAF0
AADE: AD B9 B8 LDA $B8B9
AAE1: 0A       ASL
AAE2: 18       CLC
AAE3: 6D B9 B8 ADC $B8B9
AAE6: 6A       ROR
AAE7: 8D B9 B8 STA $B8B9
AAEA: E6 60    INC $60
AAEC: D0 02    BNE $AAF0
AAEE: E6 61    INC $61
AAF0: A9 00    LDA #$00
AAF2: AC B9 B8 LDY $B8B9
AAF5: 20 E4 AB JSR $ABE4
AAF8: 18       CLC
AAF9: 60       RTS
AAFA: 38       SEC
AAFB: 60       RTS
AAFC: E6 60    INC $60
AAFE: D0 02    BNE $AB02
AB00: E6 61    INC $61
AB02: 20 33 AB JSR $AB33
AB05: B0 09    BCS $AB10
AB07: C9 05    CMP #$05
AB09: B0 05    BCS $AB10
AB0B: 8D B7 B8 STA $B8B7
AB0E: 18       CLC
AB0F: 60       RTS
AB10: 38       SEC
AB11: 60       RTS
AB12: C9 3E    CMP #$3E
AB14: D0 0D    BNE $AB23
AB16: EE B7 B8 INC $B8B7
AB19: AE B7 B8 LDX $B8B7
AB1C: E0 05    CPX #$05
AB1E: B0 0A    BCS $AB2A
AB20: 4C 28 AB JMP $AB28
AB23: CE B7 B8 DEC $B8B7
AB26: 30 02    BMI $AB2A
AB28: 18       CLC
AB29: 60       RTS
AB2A: 38       SEC
AB2B: 60       RTS
AB2C: E6 60    INC $60
AB2E: D0 02    BNE $AB32
AB30: E6 61    INC $61
AB32: 60       RTS
AB33: A2 00    LDX #$00
AB35: A9 00    LDA #$00
AB37: 95 80    STA $80,X
AB39: E8       INX
AB3A: E0 09    CPX #$09
AB3C: D0 F9    BNE $AB37
AB3E: A2 00    LDX #$00
AB40: A0 FF    LDY #$FF
AB42: C8       INY
AB43: B1 60    LDA ($60),Y
AB45: C9 20    CMP #$20
AB47: F0 F9    BEQ $AB42
AB49: 20 30 E0 JSR $E030
AB4C: 90 0A    BCC $AB58
AB4E: 95 86    STA $86,X
AB50: E8       INX
AB51: E0 04    CPX #$04
AB53: F0 28    BEQ $AB7D
AB55: 4C 42 AB JMP $AB42
AB58: C0 00    CPY #$00
AB5A: F0 21    BEQ $AB7D
AB5C: 98       TYA
AB5D: 18       CLC
AB5E: 65 60    ADC $60
AB60: 85 60    STA $60
AB62: 90 02    BCC $AB66
AB64: E6 61    INC $61
AB66: CA       DEX
AB67: A0 03    LDY #$03
AB69: B5 86    LDA $86,X
AB6B: 99 82 00 STA $0082,Y
AB6E: 88       DEY
AB6F: CA       DEX
AB70: 10 F7    BPL $AB69
AB72: 00 34 C7 INT $C734
AB75: A5 81    LDA $81
AB77: D0 04    BNE $AB7D
AB79: A5 80    LDA $80
AB7B: 18       CLC
AB7C: 60       RTS
AB7D: 38       SEC
AB7E: 60       RTS
AB7F: A9 00    LDA #$00
AB81: 8D B9 B8 STA $B8B9
AB84: A0 FF    LDY #$FF
AB86: C8       INY
AB87: B1 60    LDA ($60),Y
AB89: C9 20    CMP #$20
AB8B: F0 F9    BEQ $AB86
AB8D: C9 23    CMP #$23
AB8F: F0 0F    BEQ $ABA0
AB91: C9 2B    CMP #$2B
AB93: F0 0B    BEQ $ABA0
AB95: C9 2D    CMP #$2D
AB97: F0 19    BEQ $ABB2
AB99: C9 2E    CMP #$2E
AB9B: F0 27    BEQ $ABC4
AB9D: 4C D6 AB JMP $ABD6
ABA0: AD B9 B8 LDA $B8B9
ABA3: 29 03    AND #$03
ABA5: D0 3B    BNE $ABE2
ABA7: AD B9 B8 LDA $B8B9
ABAA: 09 02    ORA #$02
ABAC: 8D B9 B8 STA $B8B9
ABAF: 4C 86 AB JMP $AB86
ABB2: AD B9 B8 LDA $B8B9
ABB5: 29 03    AND #$03
ABB7: D0 29    BNE $ABE2
ABB9: AD B9 B8 LDA $B8B9
ABBC: 09 01    ORA #$01
ABBE: 8D B9 B8 STA $B8B9
ABC1: 4C 86 AB JMP $AB86
ABC4: AD B9 B8 LDA $B8B9
ABC7: 29 04    AND #$04
ABC9: D0 17    BNE $ABE2
ABCB: AD B9 B8 LDA $B8B9
ABCE: 09 04    ORA #$04
ABD0: 8D B9 B8 STA $B8B9
ABD3: 4C 86 AB JMP $AB86
ABD6: 98       TYA
ABD7: 18       CLC
ABD8: 65 60    ADC $60
ABDA: 85 60    STA $60
ABDC: 90 02    BCC $ABE0
ABDE: E6 61    INC $61
ABE0: 18       CLC
ABE1: 60       RTS
ABE2: 38       SEC
ABE3: 60       RTS
ABE4: 48       PHA
ABE5: AD 40 0B LDA $0B40
ABE8: 29 3F    AND #$3F
ABEA: 0A       ASL
ABEB: AA       TAX
ABEC: 68       PLA
ABED: 9D 00 0B STA $0B00,X
ABF0: E8       INX
ABF1: 98       TYA
ABF2: 9D 00 0B STA $0B00,X
ABF5: EE 40 0B INC $0B40
ABF8: 20 FC AB JSR $ABFC
ABFB: 60       RTS
ABFC: AD 40 0B LDA $0B40
ABFF: 29 3F    AND #$3F
AC01: 8D B9 B8 STA $B8B9
AC04: AD 41 0B LDA $0B41
AC07: 29 3F    AND #$3F
AC09: 8D BA B8 STA $B8BA
AC0C: AD 41 0B LDA $0B41
AC0F: 29 80    AND #$80
AC11: F0 17    BEQ $AC2A
AC13: 38       SEC
AC14: AD B9 B8 LDA $B8B9
AC17: ED BA B8 SBC $B8BA
AC1A: 0A       ASL
AC1B: C9 40    CMP #$40
AC1D: D0 1E    BNE $AC3D
AC1F: AD 40 0B LDA $0B40
AC22: 09 80    ORA #$80
AC24: 8D 40 0B STA $0B40
AC27: 4C 3D AC JMP $AC3D
AC2A: 38       SEC
AC2B: AD BA B8 LDA $B8BA
AC2E: ED B9 B8 SBC $B8B9
AC31: C9 00    CMP #$00
AC33: D0 08    BNE $AC3D
AC35: AD 40 0B LDA $0B40
AC38: 09 80    ORA #$80
AC3A: 8D 40 0B STA $0B40
AC3D: AD 40 0B LDA $0B40
AC40: 29 3F    AND #$3F
AC42: 0A       ASL
AC43: C9 40    CMP #$40
AC45: D0 10    BNE $AC57
AC47: AD 40 0B LDA $0B40
AC4A: 29 C0    AND #$C0
AC4C: 8D 40 0B STA $0B40
AC4F: AD 41 0B LDA $0B41
AC52: 29 7F    AND #$7F
AC54: 8D 41 0B STA $0B41
AC57: 60       RTS
AC58: A6 FF    LDX $FF
AC5A: CA       DEX
AC5B: D0 FD    BNE $AC5A
AC5D: 60       RTS
AC5E: 2C 41 0B BIT $0B41
AC61: 50 31    BVC $AC94
AC63: AD 40 0B LDA $0B40
AC66: 10 07    BPL $AC6F
AC68: A9 00    LDA #$00
AC6A: 8D F6 03 STA $03F6
AC6D: F0 F4    BEQ $AC63
AC6F: 29 3F    AND #$3F
AC71: AA       TAX
AC72: CE 40 0B DEC $0B40
AC75: CA       DEX
AC76: 10 15    BPL $AC8D
AC78: EE 40 0B INC $0B40
AC7B: AD 40 0B LDA $0B40
AC7E: 29 C0    AND #$C0
AC80: 09 1F    ORA #$1F
AC82: 8D 40 0B STA $0B40
AC85: AD 41 0B LDA $0B41
AC88: 09 80    ORA #$80
AC8A: 8D 41 0B STA $0B41
AC8D: A9 FF    LDA #$FF
AC8F: A0 00    LDY #$00
AC91: 20 E4 AB JSR $ABE4
AC94: 60       RTS
AC95: 85 84    STA $84
AC97: A9 00    LDA #$00
AC99: 85 85    STA $85
AC9B: 85 81    STA $81
AC9D: A9 FF    LDA #$FF
AC9F: 85 80    STA $80
ACA1: 20 8D A8 JSR $A88D
ACA4: 70 04    BVS $ACAA
ACA6: A5 80    LDA $80
ACA8: 18       CLC
ACA9: 60       RTS
ACAA: 38       SEC
ACAB: 60       RTS

ACAC: 2E AA 2E ROL $2EAA
ACAF: AA       TAX
ACB0: 2E AA 2E ROL $2EAA
ACB3: AA       TAX
ACB4: 2E AA 2E ROL $2EAA
ACB7: AA       TAX
ACB8: 2E AA 94 ROL $94AA
ACBB: AA       TAX
ACBC: AB       ??
ACBD: AA       TAX
ACBE: C3       ??
ACBF: AA       TAX
ACC0: FC       ??
ACC1: AA       TAX
ACC2: 12       ??
ACC3: AB       ??
ACC4: 12       ??
ACC5: AB       ??
ACC6: 2C AB 43 BIT $43AB
ACC9: 44       ??
ACCA: 45 46    EOR $46
ACCC: 47       ??
ACCD: 41 42    EOR ($42,X)
ACCF: 4C 4D 50 JMP $504D
ACD2: 4F       ??
ACD3: 3C       ??
ACD4: 3E 20 00 ROL $0020,X
ACD7: 0C       ??
ACD8: 18       CLC
ACD9: 24 30    BIT $30
ACDB: 00 02 04 INT $0402
ACDE: 05 07    ORA $07
ACE0: 09 0A    ORA #$0A

; clear screen and text buffer
ACE2: 20 06 AD JSR $AD06  ; clear screen

; clear text buffer
ACE5: A2 00    LDX #$00
ACE7: A0 64    LDY #$64
ACE9: D0 0E    BNE $ACF9

ACEB: 20 26 AD JSR $AD26
ACEE: A2 3C    LDX #$3C
ACF0: D0 05    BNE $ACF7

ACF2: 20 32 AD JSR $AD32
ACF5: A2 50    LDX #$50
ACF7: A0 14    LDY #$14

ACF9: A9 00    LDA #$00
ACFB: 9D C0 02 STA $02C0,X
ACFE: E8       INX
ACFF: 88       DEY
AD00: D0 F9    BNE $ACFB
AD02: 00 1A C7 INT $C71A
AD05: 60       RTS

; clear screen
AD06: A9 00    LDA #$00
AD08: A0 C0    LDY #$C0
AD0A: 99 00 19 STA $1900,Y
AD0D: C8       INY
AD0E: D0 FA    BNE $AD0A
AD10: 99 00 1A STA $1A00,Y
AD13: 99 00 1B STA $1B00,Y
AD16: 99 00 1C STA $1C00,Y
AD19: 99 00 1D STA $1D00,Y
AD1C: 99 00 1E STA $1E00,Y
AD1F: 99 00 1F STA $1F00,Y
AD22: C8       INY
AD23: D0 EB    BNE $AD10
AD25: 60       RTS

AD26: A9 80    LDA #$80
AD28: 85 80    STA $80
AD2A: A9 1D    LDA #$1D
AD2C: 85 81    STA $81
AD2E: A2 00    LDX #$00
AD30: F0 16    BEQ $AD48

AD32: A9 C0    LDA #$C0
AD34: 85 80    STA $80
AD36: A9 1E    LDA #$1E
AD38: 85 81    STA $81
AD3A: A2 00    LDX #$00
AD3C: F0 0A    BEQ $AD48
AD3E: A5 80    LDA $80
AD40: 69 14    ADC #$14
AD42: 85 80    STA $80
AD44: 90 02    BCC $AD48
AD46: E6 81    INC $81

AD48: A9 00    LDA #$00
AD4A: A0 13    LDY #$13
AD4C: 91 80    STA ($80),Y
AD4E: 88       DEY
AD4F: D0 FB    BNE $AD4C
AD51: A9 80    LDA #$80
AD53: 31 80    AND ($80),Y
AD55: 91 80    STA ($80),Y
AD57: E8       INX
AD58: E0 10    CPX #$10
AD5A: 90 E2    BCC $AD3E
AD5C: 60       RTS
AD5D: 8D 02 B8 STA $B802
AD60: A2 00    LDX #$00
AD62: 8A       TXA
AD63: 0A       ASL
AD64: A8       TAY
AD65: B9 CC AD LDA $ADCC,Y
AD68: 85 80    STA $80
AD6A: B9 CD AD LDA $ADCD,Y
AD6D: 85 81    STA $81
AD6F: B9 EC AD LDA $ADEC,Y
AD72: 85 82    STA $82
AD74: B9 ED AD LDA $ADED,Y
AD77: 85 83    STA $83
AD79: A0 00    LDY #$00
AD7B: B1 80    LDA ($80),Y
AD7D: 29 80    AND #$80
AD7F: 91 80    STA ($80),Y
AD81: B1 82    LDA ($82),Y
AD83: 29 7F    AND #$7F
AD85: 11 80    ORA ($80),Y
AD87: 91 80    STA ($80),Y
AD89: C8       INY
AD8A: B1 82    LDA ($82),Y
AD8C: 91 80    STA ($80),Y
AD8E: C8       INY
AD8F: C0 14    CPY #$14
AD91: 90 F7    BCC $AD8A
AD93: E8       INX
AD94: EC 02 B8 CPX $B802
AD97: 90 C9    BCC $AD62
AD99: 60       RTS

AD9A: A0 0C    LDY #$0C
AD9C: B9 2B B9 LDA $B92B,Y
AD9F: 99 96 03 STA $0396,Y
ADA2: 88       DEY
ADA3: 10 F7    BPL $AD9C
ADA5: AD 68 B9 LDA $B968
ADA8: D0 1F    BNE $ADC9
ADAA: A9 00    LDA #$00
ADAC: 8D B1 03 STA $03B1
ADAF: AE 47 04 LDX $0447
ADB2: E0 02    CPX #$02
ADB4: D0 02    BNE $ADB8
ADB6: A9 08    LDA #$08
ADB8: 8D B2 03 STA $03B2
ADBB: A9 FF    LDA #$FF
ADBD: 8D AF 03 STA $03AF
ADC0: A9 FF    LDA #$FF
ADC2: 8D B0 03 STA $03B0
ADC5: 00 19 C7 INT $C719
ADC8: 60       RTS
ADC9: 4C 6C AE JMP $AE6C

ADCC: .dw $19C0, $19d4, $19e8, $19fc, $1a10, $1a24, $1a38, $1a4c, $1a60, $1a74
ADE0: .dw $1a88, $1a9c, $1ab0, $1ac4, $1ad8, $1aec, $1b00, $1b14, $1b28, $1b3c
ADF4: .dw $1b50, $1b64, $1b78, $1b8c, $1ba0, $1bb4, $1bc8, $1bdc, $1bf0, $1c04
AE08: .dw $1c18, $1c2c, $1c40, $1c54, $1c68, $1c7c, $1c90, $1ca4, $1cb8, $1ccc
AE1C: .dw $1cE0, $1cf4, $1d08, $1d1c, $1d30, $1d44, $1d58, $1d6c, $1d80, $1d94
AE30: .dw $1dA8, $1dbc, $1dd0, $1de4, $1df8, $1e0c, $1e20, $1e34, $1e48, $1e5c
AE44: .dw $1e70, $1e84, $1e98, $1eac, $1ec0, $1ed4, $1ee8, $1efc, $1f10, $1f24
AE58: .dw $1f38, $1f4c, $1f60, $1f74, $1f88, $1f9c, $1fb0, $1fc4, $1fd8, $1fec

AE6C: A9 00    LDA #$00
AE6D: 85 65    STA $65
AE70: A5 65    LDA $65
AE72: 0A       ASL
AE73: AA       TAX
AE74: BD E5 AE LDA $AEE5,X
AE77: 85 88    STA $88
AE79: BD E6 AE LDA $AEE6,X
AE7C: 85 89    STA $89
AE7E: A9 FF    LDA #$FF
AE80: 85 66    STA $66
AE82: A4 66    LDY $66
AE84: C8       INY
AE85: C0 14    CPY #$14
AE87: F0 4F    BEQ $AED8
AE89: 84 66    STY $66
AE8B: B1 88    LDA ($88),Y
AE8D: F0 F3    BEQ $AE82
AE8F: 10 26    BPL $AEB7
AE91: 85 92    STA $92
AE93: C8       INY
AE94: B1 88    LDA ($88),Y
AE96: 85 93    STA $93
AE98: A5 65    LDA $65
AE9A: 0A       ASL
AE9B: 8D C2 03 STA $03C2
AE9E: A5 66    LDA $66
AEA0: 8D C0 03 STA $03C0
AEA3: A5 88    LDA $88
AEA5: 48       PHA
AEA6: A5 89    LDA $89
AEA8: 48       PHA
AEA9: 00 0C C7 INT $C70C
AEAC: 68       PLA
AEAD: 85 89    STA $89
AEAF: 68       PLA
AEB0: 85 88    STA $88
AEB2: E6 66    INC $66
AEB4: 4C 82 AE JMP $AE82
AEB7: 85 80    STA $80
AEB9: A5 65    LDA $65
AEBB: 0A       ASL
AEBC: 8D C2 03 STA $03C2
AEBF: A5 66    LDA $66
AEC1: 8D C0 03 STA $03C0
AEC4: A5 88    LDA $88
AEC6: 48       PHA
AEC7: A5 89    LDA $89
AEC9: 48       PHA
AECA: A5 80    LDA $80
AECC: 00 13 C7 INT $C713
AECF: 68       PLA
AED0: 85 89    STA $89
AED2: 68       PLA
AED3: 85 88    STA $88
AED5: 4C 82 AE JMP $AE82
AED8: A6 65    LDX $65
AEDA: E8       INX
AEDB: E0 05    CPX #$05
AEDD: 86 65    STX $65
AEDF: B0 03    BCS $AEE4
AEE1: 4C 70 AE JMP $AE70
AEE4: 60       RTS

AEE5: C0 02    CPY #$02
AEE7: D4       ??
AEE8: 02       ??
AEE9: E8       INX
AEEA: 02       ??
AEEB: FC       ??
AEEC: 02       ??
AEED: 10 03    BPL $AEF2

; 清空 $2000-$4000
AEEF: A9 00    LDA #$00
AEF1: 85 80    STA $80
AEF3: A9 20    LDA #$20
AEF5: 85 81    STA $81
AEF7: A0 00    LDY #$00
AEF9: A2 20    LDX #$20
AEFB: A9 00    LDA #$00
AEFD: 91 80    STA ($80),Y
AEFF: C8       INY
AF00: D0 FB    BNE $AEFD
AF02: E6 81    INC $81
AF04: CA       DEX
AF05: D0 F6    BNE $AEFD
AF07: 60       RTS

AF08: A9 01    LDA #$01
AF0A: 85 80    STA $80
AF0C: A9 70    LDA #$70
AF0E: 85 81    STA $81
AF10: 20 3B AF JSR $AF3B
AF13: A9 00    LDA #$00
AF15: 85 82    STA $82
AF17: A9 70    LDA #$70
AF19: 85 83    STA $83
AF1B: 98       TYA
AF1C: D0 01    BNE $AF1F
AF1E: 60       RTS

AF1F: C8       INY
AF20: 84 57    STY $57
AF22: A0 00    LDY #$00
AF24: B1 80    LDA ($80),Y
AF26: 85 82    STA $82
AF28: C8       INY
AF29: B1 80    LDA ($80),Y
AF2B: 85 83    STA $83
AF2D: 38       SEC
AF2E: A5 82    LDA $82
AF30: E5 57    SBC $57
AF32: 85 82    STA $82
AF34: A5 83    LDA $83
AF36: E9 00    SBC #$00
AF38: 85 83    STA $83
AF3A: 60       RTS

AF3B: A0 01    LDY #$01
AF3D: B1 80    LDA ($80),Y
AF3F: 88       DEY
AF40: 11 80    ORA ($80),Y
AF42: D0 01    BNE $AF45
AF44: 60       RTS

AF45: A0 03    LDY #$03
AF47: C8       INY
AF48: B1 80    LDA ($80),Y
AF4A: D0 FB    BNE $AF47
AF4C: C8       INY
AF4D: 60       RTS

AF4E: 20 2C 7D JSR $7D2C
AF51: 20 17 86 JSR $8617
AF54: 6C 40 00 JMP ($0040)
AF57: 20 60 AF JSR $AF60
AF5A: 8A       TXA
AF5B: A0 00    LDY #$00
AF5D: 91 40    STA ($40),Y
AF5F: 60       RTS
AF60: 20 2C 7D JSR $7D2C
AF63: 20 17 86 JSR $8617
AF66: 20 F2 9C JSR $9CF2
AF69: 4C C7 85 JMP $85C7